
CLOCK.elf:     file format elf32-littleriscv
CLOCK.elf
architecture: riscv:rv32, flags 0x00000112:
EXEC_P, HAS_SYMS, D_PAGED
start address 0x00000000

Program Header:
    LOAD off    0x00001000 vaddr 0x00000000 paddr 0x00000000 align 2**12
         filesz 0x0000ddc8 memsz 0x0000ddc8 flags r-x
    LOAD off    0x0000f000 vaddr 0x20000000 paddr 0x0000ddc8 align 2**12
         filesz 0x00000288 memsz 0x0000ef4c flags rw-
    LOAD off    0x0000f800 vaddr 0x2000f800 paddr 0x2000f800 align 2**12
         filesz 0x00000000 memsz 0x00000800 flags rw-

Sections:
Idx Name          Size      VMA       LMA       File off  Algn
  0 .init         00000038  00000000  00000000  00001000  2**1
                  CONTENTS, ALLOC, LOAD, READONLY, CODE
  1 .vector       000001c8  00000038  00000038  00001038  2**1
                  CONTENTS, ALLOC, LOAD, READONLY, CODE
  2 .text         0000dbc8  00000200  00000200  00001200  2**3
                  CONTENTS, ALLOC, LOAD, READONLY, CODE
  3 .fini         00000000  0000ddc8  0000ddc8  0000f288  2**0
                  CONTENTS, ALLOC, LOAD, CODE
  4 .dalign       00000000  20000000  20000000  0000f288  2**0
                  CONTENTS
  5 .dlalign      00000000  0000ddc8  0000ddc8  0000f288  2**0
                  CONTENTS
  6 .data         00000288  20000000  0000ddc8  0000f000  2**3
                  CONTENTS, ALLOC, LOAD, DATA
  7 .bss          0000ecc4  20000288  0000e050  0000f288  2**3
                  ALLOC
  8 .stack        00000800  2000f800  2000f800  0000f800  2**0
                  ALLOC
  9 .debug_info   00042016  00000000  00000000  0000f288  2**0
                  CONTENTS, READONLY, DEBUGGING
 10 .debug_abbrev 000092c6  00000000  00000000  0005129e  2**0
                  CONTENTS, READONLY, DEBUGGING
 11 .debug_loc    00010a55  00000000  00000000  0005a564  2**0
                  CONTENTS, READONLY, DEBUGGING
 12 .debug_aranges 000015c0  00000000  00000000  0006afc0  2**3
                  CONTENTS, READONLY, DEBUGGING
 13 .debug_ranges 00002528  00000000  00000000  0006c580  2**3
                  CONTENTS, READONLY, DEBUGGING
 14 .debug_line   00025aad  00000000  00000000  0006eaa8  2**0
                  CONTENTS, READONLY, DEBUGGING
 15 .debug_str    00009249  00000000  00000000  00094555  2**0
                  CONTENTS, READONLY, DEBUGGING
 16 .comment      00000033  00000000  00000000  0009d79e  2**0
                  CONTENTS, READONLY
 17 .debug_frame  00005620  00000000  00000000  0009d7d4  2**2
                  CONTENTS, READONLY, DEBUGGING
 18 .stab         00000084  00000000  00000000  000a2df4  2**2
                  CONTENTS, READONLY, DEBUGGING
 19 .stabstr      00000183  00000000  00000000  000a2e78  2**0
                  CONTENTS, READONLY, DEBUGGING
SYMBOL TABLE:
00000000 l    d  .init	00000000 .init
00000038 l    d  .vector	00000000 .vector
00000200 l    d  .text	00000000 .text
0000ddc8 l    d  .fini	00000000 .fini
20000000 l    d  .dalign	00000000 .dalign
0000ddc8 l    d  .dlalign	00000000 .dlalign
20000000 l    d  .data	00000000 .data
20000288 l    d  .bss	00000000 .bss
2000f800 l    d  .stack	00000000 .stack
00000000 l    d  .debug_info	00000000 .debug_info
00000000 l    d  .debug_abbrev	00000000 .debug_abbrev
00000000 l    d  .debug_loc	00000000 .debug_loc
00000000 l    d  .debug_aranges	00000000 .debug_aranges
00000000 l    d  .debug_ranges	00000000 .debug_ranges
00000000 l    d  .debug_line	00000000 .debug_line
00000000 l    d  .debug_str	00000000 .debug_str
00000000 l    d  .comment	00000000 .comment
00000000 l    d  .debug_frame	00000000 .debug_frame
00000000 l    d  .stab	00000000 .stab
00000000 l    d  .stabstr	00000000 .stabstr
00000000 l    df *ABS*	00000000 ./Startup/startup_ch32v30x.o
00000038 l       .vector	00000000 _vector_base
00000000 l    df *ABS*	00000000 ./arch/rv32i/gcc/port_s.o
00000224 l     F .text	00000000 restore_context
00000000 l    df *ABS*	00000000 tos_hal_uart.c
00000000 l    df *ABS*	00000000 tencent_firmware_module_wrapper.c
20000498 l     O .bss	00000800 mqtt_message_handle_task_stack
200002d0 l     O .bss	00000140 mqtt_message
20000410 l     O .bss	00000088 mqtt_message_handle_task
20000c98 l     O .bss	000003c0 mqtt_message_pool
20001058 l     O .bss	00000018 sub_list_node_mbp
20001070 l     O .bss	000007d0 sub_list_node_pool
20000288 l     O .bss	00000004 g_tencent_firmware_module
2000028c l     O .bss	00000008 mqtt_sub_list
00000000 l    df *ABS*	00000000 tos_at.c
00000760 l     F .text	0000005c at_uart_getchar
000007bc l     F .text	0000005e at_event_do_get
0000081a l     F .text	000001dc at_parser
000009f6 l     F .text	00000062 at_cmd_do_exec
00000000 l    df *ABS*	00000000 tos_char_fifo.c
00000000 l    df *ABS*	00000000 tos_event.c
00000fd8 l     F .text	000000a2 event_do_post
00000000 l    df *ABS*	00000000 tos_mail_queue.c
000011b4 l     F .text	000000c0 mail_q_do_post
00000000 l    df *ABS*	00000000 tos_mmblk.c
00000000 l    df *ABS*	00000000 tos_mmheap.c
00001430 l     F .text	0000000a blk_next
0000143a l     F .text	00000014 blk_link_next
0000144e l     F .text	00000058 mmheap_ctl_init
000014a6 l     F .text	0000003c generic_fls.part.0
000014e2 l     F .text	0000005e remove_free_block
00001540 l     F .text	00000028 adjust_request_size
00001568 l     F .text	0000003c mapping_insert
000015a4 l     F .text	00000022 blk_remove
000015c6 l     F .text	00000032 blk_merge_next
000015f8 l     F .text	00000062 blk_insert
0000165a l     F .text	000000b8 blk_locate_free
00001712 l     F .text	00000042 blk_split
00001754 l     F .text	0000004e blk_prepare_used
00000000 l    df *ABS*	00000000 tos_mutex.c
000018ce l     F .text	0000005c mutex_old_owner_release
00000000 l    df *ABS*	00000000 tos_pend.c
00001bc4 l     F .text	00000040 pend_list_add
00000000 l    df *ABS*	00000000 tos_ring_queue.c
00000000 l    df *ABS*	00000000 tos_sched.c
00001ef4 l     F .text	00000030 readyqueue_prio_mark
00000000 l    df *ABS*	00000000 tos_sem.c
0000209c l     F .text	00000074 sem_do_post
00000000 l    df *ABS*	00000000 tos_stopwatch.c
00000000 l    df *ABS*	00000000 tos_sys.c
00002286 l     F .text	00000002 knl_idle_entry
00000000 l    df *ABS*	00000000 tos_task.c
0000249e l     F .text	000000ce task_do_destroy.part.13
000026e8 l     F .text	00000004 task_exit
00000000 l    df *ABS*	00000000 tos_tick.c
00000000 l    df *ABS*	00000000 tos_time.c
00000000 l    df *ABS*	00000000 tos_timer.c
00002ad2 l     F .text	00000058 timer_takeoff
00002b2a l     F .text	00000090 timer_place
00000000 l    df *ABS*	00000000 mqtt_iot_explorer.c
20001940 l     O .bss	0000008a report_reply_topic_name
200019cc l     O .bss	0000008a report_topic_name
00000000 l    df *ABS*	00000000 esp8266_tencent_firmware.c
00003578 l     F .text	000000ec esp8266_tencent_firmware_get_rssi
00003664 l     F .text	0000008e esp8266_tencent_firmware_ota_read_fwdata
00003756 l     F .text	00000132 esp8266_tencent_firmware_init
20001b00 l     O .bss	00000800 esp8266_tf_at_parse_task_stk
20001a58 l     O .bss	00000080 buffer.7556
20001ad8 l     O .bss	00000028 buffer.7577
20002300 l     O .bss	00000140 mqtt_message
00000000 l    df *ABS*	00000000 port_c.c
00000000 l    df *ABS*	00000000 tos_cpu.c
00000000 l    df *ABS*	00000000 ch32v30x_it.c
00000000 l    df *ABS*	00000000 lcd.c
00000000 l    df *ABS*	00000000 lcd_init.c
00000000 l    df *ABS*	00000000 main.c
200002b8 l     O .bss	00000002 daycnt.13964
00000000 l    df *ABS*	00000000 spi_flash.c
00000000 l    df *ABS*	00000000 system_ch32v30x.c
00000000 l    df *ABS*	00000000 usart.c
00000000 l    df *ABS*	00000000 ch32v30x_bkp.c
00000000 l    df *ABS*	00000000 ch32v30x_gpio.c
00000000 l    df *ABS*	00000000 ch32v30x_misc.c
00000000 l    df *ABS*	00000000 ch32v30x_pwr.c
00000000 l    df *ABS*	00000000 ch32v30x_rcc.c
20000070 l     O .data	00000010 APBAHBPrescTable
20000270 l     O .data	00000004 ADCPrescTable
00000000 l    df *ABS*	00000000 ch32v30x_rtc.c
00000000 l    df *ABS*	00000000 ch32v30x_spi.c
00000000 l    df *ABS*	00000000 ch32v30x_usart.c
00000000 l    df *ABS*	00000000 debug.c
200002c0 l     O .bss	00000002 p_ms
200002c2 l     O .bss	00000001 p_us
00000000 l    df *ABS*	00000000 core_riscv.c
00000000 l    df *ABS*	00000000 lv_math.c
0000d9c0 l     O .text	000000b6 sin0_90_table
00000000 l    df *ABS*	00000000 libgcc2.c
00000000 l    df *ABS*	00000000 libgcc2.c
00000000 l    df *ABS*	00000000 adddf3.c
00000000 l    df *ABS*	00000000 divdf3.c
00000000 l    df *ABS*	00000000 muldf3.c
00000000 l    df *ABS*	00000000 fixunsdfsi.c
00000000 l    df *ABS*	00000000 floatsidf.c
00000000 l    df *ABS*	00000000 fflush.c
00000000 l    df *ABS*	00000000 findfp.c
00007916 l     F .text	0000006a std
00000000 l    df *ABS*	00000000 fwalk.c
00000000 l    df *ABS*	00000000 memcpy.c
00000000 l    df *ABS*	00000000 memmove.c
00000000 l    df *ABS*	00000000 nano-mallocr.c
00000000 l    df *ABS*	00000000 nano-mallocr.c
00000000 l    df *ABS*	00000000 nano-vfprintf.c
00007dca l     F .text	0000002a __sfputc_r
00000000 l    df *ABS*	00000000 nano-vfprintf_i.c
00000000 l    df *ABS*	00000000 printf.c
00000000 l    df *ABS*	00000000 putchar.c
00000000 l    df *ABS*	00000000 puts.c
00000000 l    df *ABS*	00000000 sbrkr.c
00000000 l    df *ABS*	00000000 snprintf.c
00000000 l    df *ABS*	00000000 sscanf.c
00000000 l    df *ABS*	00000000 stdio.c
00000000 l    df *ABS*	00000000 strcat.c
00000000 l    df *ABS*	00000000 strlen.c
00000000 l    df *ABS*	00000000 strncmp.c
00000000 l    df *ABS*	00000000 strncpy.c
00000000 l    df *ABS*	00000000 strstr.c
00000000 l    df *ABS*	00000000 strtol.c
0000885e l     F .text	00000142 _strtol_l.isra.0
00000000 l    df *ABS*	00000000 strtoul.c
000089b6 l     F .text	00000138 _strtoul_l.isra.0
00000000 l    df *ABS*	00000000 vsnprintf.c
00000000 l    df *ABS*	00000000 wbuf.c
00000000 l    df *ABS*	00000000 writer.c
00000000 l    df *ABS*	00000000 wsetup.c
00000000 l    df *ABS*	00000000 closer.c
00000000 l    df *ABS*	00000000 locale.c
00000000 l    df *ABS*	00000000 lseekr.c
00000000 l    df *ABS*	00000000 makebuf.c
00000000 l    df *ABS*	00000000 mbtowc_r.c
00000000 l    df *ABS*	00000000 memchr.c
00000000 l    df *ABS*	00000000 mlock.c
00000000 l    df *ABS*	00000000 nano-mallocr.c
00000000 l    df *ABS*	00000000 nano-vfprintf.c
00000000 l    df *ABS*	00000000 nano-vfscanf.c
00000000 l    df *ABS*	00000000 nano-vfscanf_i.c
00000000 l    df *ABS*	00000000 putc.c
00000000 l    df *ABS*	00000000 readr.c
00000000 l    df *ABS*	00000000 sccl.c
00000000 l    df *ABS*	00000000 ungetc.c
00000000 l    df *ABS*	00000000 wctomb_r.c
00000000 l    df *ABS*	00000000 fstatr.c
00000000 l    df *ABS*	00000000 isattyr.c
00000000 l    df *ABS*	00000000 nano-mallocr.c
00000000 l    df *ABS*	00000000 close.c
00000000 l    df *ABS*	00000000 fstat.c
00000000 l    df *ABS*	00000000 isatty.c
00000000 l    df *ABS*	00000000 lseek.c
00000000 l    df *ABS*	00000000 read.c
00000000 l    df *ABS*	00000000 sbrk.c
200002cc l     O .bss	00000004 heap_end.1520
00000000 l    df *ABS*	00000000 libgcc2.c
00000000 l    df *ABS*	00000000 ctype_.c
00000000 l    df *ABS*	00000000 tos_global.c
00000000 l    df *ABS*	00000000 impure.c
20000080 l     O .data	00000060 impure_data
00000000 l    df *ABS*	00000000 esp8266.c
00000000 l    df *ABS*	00000000 reent.c
00005000  w      .text	00000000 Ecall_U_Mode_Handler
00005562 g     F .text	00000018 RTC_ExitConfigMode
00000b22 g     F .text	000000aa tos_at_raw_data_send_until
00002470 g     F .text	0000002e tos_knl_init
0000399e g     F .text	00000018 port_cpu_init
0000503c  w      .text	00000000 TIM1_TRG_COM_IRQHandler
00001c90 g     F .text	0000003c pend_task_wakeup
00000200 g     F .text	00000000 port_int_disable
0000453e g     F .text	00000112 RTC_Set
2000b3d0 g     O .bss	00000010 ota_fw_info_sem
00009d60 g     F .text	00000014 _malloc_usable_size_r
000031ea g     F .text	00000078 esp8266_tencent_firmware_module_mqtt_state_get
0000508a  w      .text	00000000 CAN2_RX1_IRQHandler
00008b04 g     F .text	0000005e _vsnprintf_r
20000274 g     O .data	00000004 _impure_ptr
00005012  w      .text	00000000 RCC_IRQHandler
00008e60 g     F .text	000000a2 __smakebuf_r
00005064  w      .text	00000000 TIM8_CC_IRQHandler
0000868c g     F .text	00000052 sscanf
000017a2 g     F .text	0000002a tos_mmheap_alloc
00008f3c g     F .text	0000001a memchr
00001c24 g     F .text	00000018 pend_list_remove
00004f5a g     F .text	000000a0 uart7_init
0000300a g     F .text	00000086 esp8266_tencent_firmware_module_mqtt_conn
0000566c g     F .text	00000004 RTC_ClearITPendingBit
00005022  w      .text	00000000 DMA1_Channel3_IRQHandler
00004aaa g     F .text	0000009e clock_entry
00004ffe  w      .text	00000000 Ecall_M_Mode_Handler
0000506a  w      .text	00000000 SDIO_IRQHandler
20000260 g     O .data	00000008 k_tick_list
0000504c  w      .text	00000000 I2C2_ER_IRQHandler
00009d30 g     F .text	00000030 _isatty_r
000050b0  w      .text	00000000 DMA2_Channel8_IRQHandler
2000026c g     O .data	00000004 SystemCoreClock
0000506c  w      .text	00000000 TIM5_IRQHandler
00003b3a g     F .text	0000006e HardFault_Handler
2000bba0 g     O .bss	00000200 k_irq_stk
000058ca g     F .text	0000005e USART_Printf_Init
00005172 g     F .text	0000001e BKP_ReadBackupRegister
0000192a g     F .text	00000018 mutex_release
0000581e g     F .text	0000000a USART_ReceiveData
0000502c  w      .text	00000000 ADC1_2_IRQHandler
00008492 g     F .text	00000042 iprintf
00005146 g     F .text	00000010 BKP_DeInit
00000d00 g     F .text	0000016e tos_at_init
0000798a g     F .text	00000046 __sfmoreglue
0000107a g     F .text	00000026 tos_event_create
2000bda0 g     O .bss	00000088 application_task3
00005002  w      .text	00000000 Break_Point_Handler
0000537e g     F .text	00000020 RCC_RTCCLKCmd
000021a0 g     F .text	00000004 tos_sem_post
00001dd2 g     F .text	0000007e tos_ring_q_dequeue
000050a4  w      .text	00000000 TIM10_BRK_IRQHandler
00007e38 g     F .text	000002a2 _vfiprintf_r
000022a6 g     F .text	00000054 tos_knl_irq_leave
2000b3e0 g     O .bss	0000001c ota_fw_data_chr_fifo
0000061e g     F .text	00000012 tos_tf_module_register
00008db2 g     F .text	00000006 __locale_ctype_ptr_l
200002bc g     O .bss	00000004 NVIC_Priority_Group
00007664 g     F .text	0000009e .hidden __fixunsdfsi
0000020c g     F .text	00000000 port_cpsr_save
000050ac  w      .text	00000000 DMA2_Channel6_IRQHandler
00008b74 g     F .text	000000c6 __swbuf_r
00005074  w      .text	00000000 TIM6_IRQHandler
000056ca g     F .text	0000001e SPI_Cmd
00003888 g     F .text	00000076 esp8266_tencent_firmware_join_ap
00003e2a g     F .text	000000aa LCD_DrawLine
00003968 g     F .text	00000004 port_irq_context_switch
00000a8c g     F .text	00000048 tos_at_uart_read
2000b3fc g     O .bss	00000010 ota_fw_data_sem
00002016 g     F .text	00000086 readyqueue_remove
0000500c  w      .text	00000000 TAMPER_IRQHandler
00009b90 g     F .text	00000034 _read_r
000081e6 g     F .text	000002ac _printf_i
00008492 g     F .text	00000042 printf
00005062  w      .text	00000000 TIM8_TRG_COM_IRQHandler
00001c1c g     F .text	00000008 pend_highest_pending_task_get
2000be28 g     O .bss	00001000 application_task_stk3
00005016  w      .text	00000000 EXTI1_IRQHandler
00001af6 g     F .text	00000006 tos_mutex_pend
000017cc g     F .text	00000052 tos_mmheap_free
00003ba8 g     F .text	00000086 USART2_IRQHandler
0000074c g     F .text	00000014 tos_tf_module_mqtt_state_get
20000a50 g       .data	00000000 __global_pointer$
00009d74 g     F .text	00000010 _close
000087d0 g     F .text	0000002c strncmp
00005066  w      .text	00000000 RNG_IRQHandler
0000507a  w      .text	00000000 DMA2_Channel2_IRQHandler
00008dd0 g     F .text	00000036 _lseek_r
00002aa2 g     F .text	00000026 tos_systick_get
00001dae g     F .text	00000024 tos_ring_q_is_empty
00005604 g     F .text	00000010 RTC_WaitForLastTask
2000b7e0 g     O .bss	000003c0 esp8266_agent
20000288 g       .bss	00000000 _sbss
20000298 g     O .bss	00000004 k_curr_task
0000242a g     F .text	00000010 knl_is_idle
000090a2 g     F .text	00000282 _svfiprintf_r
00009cfe g     F .text	00000032 _fstat_r
00008500 g     F .text	000000de _puts_r
00005014  w      .text	00000000 EXTI0_IRQHandler
20000294 g     O .bss	00000004 k_cpu_cycle_per_tick
00005034  w      .text	00000000 CAN1_SCE_IRQHandler
00005040  w      .text	00000000 TIM2_IRQHandler
00009da4 g     F .text	00000010 _lseek
20000010 g     O .data	00000020 esp8266_tencent_firmware_at_event
00008b62 g     F .text	00000012 vsnprintf
000079d0 g     F .text	0000006c __sinit
00001fb2 g     F .text	00000050 readyqueue_add_tail
00007cf0 g     F .text	000000da _malloc_r
0000256c g     F .text	00000122 tos_task_create
00005078  w      .text	00000000 DMA2_Channel1_IRQHandler
00005e16 g     F .text	00000a0e .hidden __adddf3
000018ba g     F .text	00000014 mmheap_init_with_pool
0000181e g     F .text	0000009c tos_mmheap_pool_add
00000a58 g     F .text	0000001a tos_at_global_lock_pend
00005334 g     F .text	00000016 PWR_WakeUpPinCmd
00003dba g     F .text	00000058 LCD_Fill
00000340 g     F .text	000000a8 memset
00005080  w      .text	00000000 DMA2_Channel5_IRQHandler
000029d8 g     F .text	000000ae tick_update
00000212 g     F .text	00000000 port_cpsr_restore
0000396c g     F .text	00000024 port_systick_config
00003b36 g     F .text	00000004 NMI_Handler
0000509c  w      .text	00000000 TIM9_BRK_IRQHandler
20000278 g     O .data	00000004 k_idle_task_stk_addr
000085ea g     F .text	00000032 _sbrk_r
0000287c g     F .text	000000d0 tick_list_add
00005090  w      .text	00000000 USBHSWakeup_IRQHandler
000057c2 g     F .text	0000001c USART_Cmd
000005d4 g     F .text	0000004a mqtt_message_handle_task_entry
00001f3c g     F .text	00000026 readyqueue_init
00005060  w      .text	00000000 TIM8_UP_IRQHandler
00004c34 g     F .text	000000ca SPI_Flash_Init
000050ae  w      .text	00000000 DMA2_Channel7_IRQHandler
0000280a g     F .text	00000072 tos_task_delay
000054ca g     F .text	0000001e RCC_APB1PeriphClockCmd
00003452 g     F .text	000000b6 esp8266_tencent_firmware_recvfwdata
00001942 g     F .text	00000044 tos_mutex_create
0000d9b4 g     O .text	0000000c table_week
00008714 g     F .text	0000004e __swrite
0000469e g     F .text	0000013e RTC_Get
000086de g     F .text	00000032 __sread
00001ccc g     F .text	00000044 pend_task_block
2000b40c g     O .bss	00000010 smart_config_status_event
000055da g     F .text	0000002a RTC_SetPrescaler
00009406 g     F .text	000003b6 __ssvfscanf_r
00008f5a g     F .text	0000005a _realloc_r
00002cd8 g     F .text	000001ae mqtt_demo_task
00002f7a g     F .text	00000046 esp8266_tencent_firmware_module_mqtt_unsub
000050a6  w      .text	00000000 TIM10_UP_IRQHandler
00003a36 g     F .text	00000004 tos_cpu_cpsr_restore
00005508 g     F .text	0000002e RCC_GetFlagStatus
00005a7e g     F .text	00000398 .hidden __udivdi3
20000258 g     O .data	00000008 k_stat_list
00000f76 g     F .text	00000062 tos_chr_fifo_pop_stream
00005052  w      .text	00000000 USART1_IRQHandler
0000a4d8 g     O .text	00000474 ascii_1206
20000030 g     O .data	00000040 tencent_firmware_module_esp8266
00003af6 g     F .text	00000040 tos_cpu_clz
00000e94 g     F .text	0000002e tos_chr_fifo_create
00004e0c g     F .text	000000aa usart2_init
000090a2 g     F .text	00000282 _svfprintf_r
000054e8 g     F .text	00000020 RCC_BackupResetCmd
0000564c g     F .text	00000020 RTC_GetITStatus
00001d10 g     F .text	00000008 pend_wakeup_one
000042d8 g     F .text	0000004a LCD_Address_Set
00005008  w      .text	00000000 WWDG_IRQHandler
000030cc g     F .text	00000040 esp8266_tencent_firmware_module_debug_level_set
00000038 g       .init	00000000 _einit
000056e8 g     F .text	000000da USART_Init
00001c42 g     F .text	00000006 pend_object_deinit
000078b0 g     F .text	00000066 _fflush_r
00007adc g     F .text	0000006c _fwalk_reent
0000394a g     F .text	0000000e sw_clearpend
00000274 g       .text	00000000 SW_handler
2000027c g     O .data	00000004 k_idle_task_stk_size
00000630 g     F .text	0000008c tos_tf_module_init
00005028  w      .text	00000000 DMA1_Channel6_IRQHandler
000050b4  w      .text	00000000 DMA2_Channel10_IRQHandler
0000700e g     F .text	00000656 .hidden __muldf3
00005068  w      .text	00000000 FSMC_IRQHandler
20000280 g     O .data	00000004 _global_impure_ptr
00005088  w      .text	00000000 CAN2_RX0_IRQHandler
0000dc18 g     O .text	00000020 __sf_fake_stdin
000010a0 g     F .text	00000110 tos_event_pend
000085de g     F .text	0000000c puts
000026ec g     F .text	00000040 tos_task_yield
20001840 g     O .bss	00000100 payload
2000ce28 g     O .bss	00001000 SPI_FLASH_BUF
00000ad4 g     F .text	0000004e tos_at_echo_create
00003416 g     F .text	0000003c esp8266_tencent_firmware_recvcmd
000097bc g     F .text	000000ec _scanf_chars
200002a0 g     O .bss	00000004 k_knl_state
0000508c  w      .text	00000000 CAN2_SCE_IRQHandler
0000dc38 g     O .text	00000020 __sf_fake_stdout
2000ef48 g     O .bss	00000004 errno
0000507c  w      .text	00000000 DMA2_Channel3_IRQHandler
000050a2  w      .text	00000000 TIM9_CC_IRQHandler
000087be g     F .text	00000012 strlen
0000501c  w      .text	00000000 EXTI4_IRQHandler
00004518 g     F .text	00000026 Is_Leap_Year
00004cfe g     F .text	0000010e SystemInit
00008f58 g     F .text	00000002 __malloc_unlock
20002440 g     O .bss	00000024 mqtt_message_mail
00008d80 g     F .text	00000032 _close_r
20002468 g     O .bss	00000058 k_rdyq
00005536 g     F .text	0000001a RTC_ITConfig
00005614 g     F .text	00000024 RTC_WaitForSynchro
00002e8e g     F .text	00000052 esp8266_tencent_firmware_module_info_set
00009c52 g     F .text	0000008c __submore
000039b6 g     F .text	0000007c SysTick_Handler
00007a3c g     F .text	000000a0 __sfp
00004650 g     F .text	0000004e RTC_Get_Week
00001d54 g     F .text	00000006 pend_wakeup
00005024  w      .text	00000000 DMA1_Channel4_IRQHandler
00007c48 g     F .text	000000a8 _free_r
00008db8 g     F .text	00000018 __locale_ctype_ptr
000057de g     F .text	00000036 USART_ITConfig
00002416 g     F .text	0000000a knl_is_sched_locked
00007e38 g     F .text	000002a2 _vfprintf_r
000084d4 g     F .text	0000002c putchar
200002b0 g     O .bss	00000008 k_tick_count
00001e7c g     F .text	00000078 tos_ring_q_enqueue
0000503a  w      .text	00000000 TIM1_UP_IRQHandler
00005256 g     F .text	0000000a GPIO_WriteBit
00005984 g     F .text	00000006 __get_MTVAL
00008f56 g     F .text	00000002 __malloc_lock
00001c3c g     F .text	00000006 pend_object_init
20000268 g     O .data	00000004 k_irq_stk_top
00005084  w      .text	00000000 ETH_WKUP_IRQHandler
0000500a  w      .text	00000000 PVD_IRQHandler
0000502a  w      .text	00000000 DMA1_Channel7_IRQHandler
00008b62 g     F .text	00000012 vsniprintf
00002ee0 g     F .text	00000050 esp8266_tencent_firmware_module_mqtt_pub
000089a0 g     F .text	00000016 _strtol_r
0000505e  w      .text	00000000 TIM8_BRK_IRQHandler
00001afc g     F .text	000000c8 tos_mutex_post
00002242 g     F .text	00000044 tos_stopwatch_delay
0000501e  w      .text	00000000 DMA1_Channel1_IRQHandler
00009cde g     F .text	00000020 __ascii_wctomb
00009b0a g     F .text	00000086 _putc_r
000050b8  w      .text	00000000 handle_reset
00002a86 g     F .text	0000001c tos_tick_handler
00008f02 g     F .text	0000003a __ascii_mbtowc
00002288 g     F .text	0000001e tos_knl_irq_enter
00003090 g     F .text	0000003c esp8266_tencent_firmware_module_mqtt_discon
0000056a g     F .text	00000058 tos_hal_uart_write
00001986 g     F .text	00000062 tos_mutex_destroy
00000000 g       .init	00000000 _start
00003148 g     F .text	000000a2 esp8266_tencent_firmware_module_mqtt_publ
0000af3c g     O .text	000011d0 ascii_2412
00002ac8 g     F .text	00000004 tos_millisec2tick
00003958 g     F .text	00000010 port_context_switch
2000ef4c g       .bss	00000000 end
00001c48 g     F .text	0000000c pend_is_nopending
000011b0 g     F .text	00000004 tos_event_post
00003a3e g     F .text	00000004 cpu_irq_context_switch
00009d84 g     F .text	00000010 _fstat
00001274 g     F .text	00000032 tos_mail_q_create
00005026  w      .text	00000000 DMA1_Channel5_IRQHandler
000055b2 g     F .text	00000028 RTC_SetCounter
00003ed4 g     F .text	00000104 Draw_Circle
0000505a  w      .text	00000000 RTCAlarm_IRQHandler
00004322 g     F .text	000001f6 LCD_Init
00003262 g     F .text	000000b0 esp8266_tencent_firmware_ota_read_fwinfo
00008798 g     F .text	00000006 __sclose
00003a32 g     F .text	00000004 tos_cpu_cpsr_save
00005266 g     F .text	000000b8 NVIC_Init
0000a94c g     O .text	000005f0 ascii_1608
00003a4a g     F .text	0000001c cpu_systick_init
0000506e  w      .text	00000000 SPI3_IRQHandler
00002e86 g     F .text	00000008 application_entry
00003508 g     F .text	00000070 esp8266_tencent_firmware_start_smartconfig
0000509e  w      .text	00000000 TIM9_UP_IRQHandler
00005048  w      .text	00000000 I2C1_ER_IRQHandler
000006bc g     F .text	00000014 tos_tf_module_info_set
00003a66 g     F .text	00000036 cpu_init
00005094  w      .text	00000000 DVP_IRQHandler
00008762 g     F .text	00000036 __sseek
0000861c g     F .text	00000070 sniprintf
00000ef4 g     F .text	00000022 tos_chr_fifo_push
000023ce g     F .text	00000048 tos_knl_sched_unlock
00005252 g     F .text	00000004 GPIO_SetBits
00005260 g     F .text	00000006 NVIC_PriorityGroupConfig
00007774 g     F .text	0000013c __sflush_r
200024c0 g     O .bss	00008000 k_mmheap_default_pool
00009324 g     F .text	0000009a _sungetc_r
00007df4 g     F .text	00000044 __sfputs_r
000022fa g     F .text	0000004c tos_knl_sched_lock
00005092  w      .text	00000000 USBHS_IRQHandler
00005834 g     F .text	00000044 USART_GetITStatus
00009dc4 g     F .text	00000024 _sbrk
200000e0 g     O .data	0000016c __global_locale
0000861c g     F .text	00000070 snprintf
20000000 g     O .data	00000010 k_timer_ctl
00002bba g     F .text	000000ca soft_timer_update
00008c70 g     F .text	00000110 __swsetup_r
0000531e g     F .text	00000016 PWR_BackupAccessCmd
0000294c g     F .text	0000008c tick_list_remove
00000800 g       *ABS*	00000000 __stack_size
0000505c  w      .text	00000000 USBWakeUp_IRQHandler
000012a6 g     F .text	000000d0 tos_mail_q_pend
00007bfe g     F .text	0000004a memmove
0000214a g     F .text	00000056 tos_sem_destroy
0000503e  w      .text	00000000 TIM1_CC_IRQHandler
00003990 g     F .text	0000000e port_systick_priority_set
000006fc g     F .text	00000050 tos_tf_module_mqtt_sub
00005032  w      .text	00000000 CAN1_RX1_IRQHandler
000093be g     F .text	00000048 __ssrefill_r
00005156 g     F .text	0000001c BKP_WriteBackupRegister
00008b04 g     F .text	0000005e _vsniprintf_r
0000589e g     F .text	0000002c Delay_Ms
00003d3a g     F .text	00000080 RTC_IRQHandler
00005878 g     F .text	00000026 Delay_Init
00009db4 g     F .text	00000010 _read
00000000 g       .init	00000000 _sinit
00008820 g     F .text	0000003e strstr
00001c54 g     F .text	0000000c pend_list_adjust
000042a4 g     F .text	00000034 LCD_WR_REG
000048da g     F .text	000001d0 DrawClock
0000509a  w      .text	00000000 UART8_IRQHandler
0000557a g     F .text	00000038 RTC_GetCounter
00002346 g     F .text	00000036 tos_knl_start
20000288 g       .data	00000000 _edata
200002c4 g     O .bss	00000004 __malloc_free_list
000036f2 g     F .text	00000064 esp8266_tencent_firmware_recvscstatus
00005018  w      .text	00000000 EXTI2_IRQHandler
00000f16 g     F .text	00000050 tos_chr_fifo_push_stream
200002c8 g     O .bss	00000004 __malloc_sbrk_start
00000a72 g     F .text	0000001a tos_at_global_lock_post
00001e50 g     F .text	0000002c tos_ring_q_is_full
00007702 g     F .text	00000072 .hidden __floatsidf
00004eb6 g     F .text	000000a4 uart6_init
0000508e  w      .text	00000000 OTG_FS_IRQHandler
00000c62 g     F .text	0000009e tos_at_cmd_exec_until
00002002 g     F .text	00000014 readyqueue_add
00005638 g     F .text	00000014 RTC_ClearFlag
2000de28 g     O .bss	00001000 application_task_stk1
00001d7c g     F .text	00000032 tos_ring_q_destroy
00005550 g     F .text	00000012 RTC_EnterConfigMode
00000bcc g     F .text	00000096 tos_at_cmd_exec
00005372 g     F .text	0000000c RCC_RTCCLKConfig
00005056  w      .text	00000000 USART3_IRQHandler
2000a4c0 g     O .bss	00000c84 k_mmheap_ctl
00005072  w      .text	00000000 UART5_IRQHandler
200002a4 g     O .bss	00000004 k_next_task
00003e12 g     F .text	00000018 LCD_DrawPoint
00003c2e g     F .text	00000086 UART6_IRQHandler
20010000 g       .stack	00000000 _eusrstack
00008aee g     F .text	00000016 _strtoul_r
0000507e  w      .text	00000000 DMA2_Channel4_IRQHandler
00005082  w      .text	00000000 ETH_IRQHandler
0000310c g     F .text	0000003c esp8266_tencent_firmware_stop_smartconfig
0000ddc8 g       .dlalign	00000000 _data_lma
00003a9c g     F .text	0000005a cpu_task_stk_init
0000868c g     F .text	00000052 siscanf
00005928 g     F .text	00000050 _write
00009bc4 g     F .text	0000008e __sccl
00003cb4 g     F .text	00000086 UART7_IRQHandler
00005046  w      .text	00000000 I2C1_EV_IRQHandler
00009406 g     F .text	000003b6 __ssvfiscanf_r
00002388 g     F .text	00000046 knl_sched
00005828 g     F .text	0000000c USART_GetFlagStatus
00009d94 g     F .text	00000010 _isatty
0000137a g     F .text	00000070 tos_mmblk_pool_create
00005076  w      .text	00000000 TIM7_IRQHandler
000013ea g     F .text	00000046 tos_mmblk_alloc
000050aa  w      .text	00000000 TIM10_CC_IRQHandler
00000218 g     F .text	00000000 port_sched_start
00001c04 g     F .text	00000018 pend_highest_pending_prio_get
00002c88 g     F .text	00000050 default_message_handler
000050a8  w      .text	00000000 TIM10_TRG_COM_IRQHandler
00001d18 g     F .text	0000003c pend_wakeup_all
000098a8 g     F .text	00000262 _scanf_i
00001c60 g     F .text	00000030 pend_state2errno
0000237c g     F .text	0000000c tos_knl_is_running
200002a8 g     O .bss	00000001 k_sched_lock_nest_cnt
000003e8 g     F .text	0000011e strcmp
00005020  w      .text	00000000 DMA1_Channel2_IRQHandler
0000c10c g     O .text	000017c0 ascii_3216
00004b48 g     F .text	000000ec main
0000da78 g     O .text	00000100 .hidden __clz_tab
000041a4 g     F .text	0000007e LCD_GPIO_Init
00005670 g     F .text	0000005a SPI_Init
00000506 g     F .text	00000064 tos_hal_uart_init
00005086  w      .text	00000000 CAN2_TX_IRQHandler
00001376 g     F .text	00000004 tos_mail_q_post
00005190 g     F .text	000000c2 GPIO_Init
00002420 g     F .text	0000000a knl_is_inirq
00005044  w      .text	00000000 TIM4_IRQHandler
0000879e g     F .text	00000020 strcat
00005058  w      .text	00000000 EXTI15_10_IRQHandler
2000b144 g     O .bss	00000200 k_idle_task_stk
000006d0 g     F .text	0000002c tos_tf_module_mqtt_conn
0000534a g     F .text	00000028 RCC_LSEConfig
00002fc0 g     F .text	0000004a esp8266_tencent_firmware_ota_set
000087fc g     F .text	00000024 strncpy
000047dc g     F .text	000000fe RTC_Init
000050b6  w      .text	00000000 DMA2_Channel11_IRQHandler
00005a08 g     F .text	00000076 .hidden __clzsi2
00002144 g     F .text	00000006 tos_sem_create
0000504a  w      .text	00000000 I2C2_EV_IRQHandler
00005814 g     F .text	0000000a USART_SendData
0000243a g     F .text	0000000e knl_is_self
00000ec2 g     F .text	00000032 tos_chr_fifo_destroy
0000268e g     F .text	0000005a tos_task_destroy
000005c2 g     F .text	00000012 tos_hal_uart_deinit
00002c84 g     F .text	00000004 soft_timer_init
000038fe g     F .text	0000004c esp8266_tencent_firmware_sal_init
00005038  w      .text	00000000 TIM1_BRK_IRQHandler
000050a0  w      .text	00000000 TIM9_TRG_COM_IRQHandler
00005042  w      .text	00000000 TIM3_IRQHandler
2000b420 g     O .bss	000003c0 esp8266_tf_agent
00005010  w      .text	00000000 FLASH_IRQHandler
20000000 g       .dalign	00000000 _data_vma
000080da g     F .text	0000010c _printf_common
00001f62 g     F .text	00000050 readyqueue_add_head
00004222 g     F .text	00000066 LCD_Writ_Bus
20000250 g     O .data	00000008 k_cpu_tick_per_second
000050b2  w      .text	00000000 DMA2_Channel9_IRQHandler
0000504e  w      .text	00000000 SPI1_IRQHandler
0000598a g     F .text	0000007e lv_trigo_sin
00005978 g     F .text	00000006 __get_MEPC
00008fb4 g     F .text	000000ee __ssputs_r
0000dbf8 g     O .text	00000020 __sf_fake_stderr
00008c3a g     F .text	00000036 _write_r
00000f66 g     F .text	00000010 tos_chr_fifo_pop
00003a3a g     F .text	00000004 cpu_context_switch
00007980 g     F .text	0000000a _cleanup_r
00004288 g     F .text	0000001c LCD_WR_DATA
00002110 g     F .text	00000034 tos_sem_create_max
0000502e  w      .text	00000000 USB_HP_CAN1_TX_IRQHandler
00006824 g     F .text	000007ea .hidden __divdf3
0000272c g     F .text	000000de tos_task_prio_change
2000ee28 g     O .bss	0000000a calendar
00005070  w      .text	00000000 UART4_IRQHandler
00003a42 g     F .text	00000008 cpu_sched_start
000019e8 g     F .text	0000010e tos_mutex_pend_timed
00002448 g     F .text	00000028 knl_idle_init
00003fd8 g     F .text	00000170 LCD_ShowChar
0000501a  w      .text	00000000 EXTI3_IRQHandler
00008e06 g     F .text	0000005a __swhatbuf_r
2000ee38 g     O .bss	00000088 application_task1
00007b48 g     F .text	000000b6 memcpy
0000d9a8 g     O .text	0000000c mon_table
00005050  w      .text	00000000 SPI2_IRQHandler
00002f30 g     F .text	0000004a esp8266_tencent_firmware_module_mqtt_sub
00004148 g     F .text	0000005c LCD_ShowString
0000dcc4 g     O .text	00000101 _ctype_
00001d5a g     F .text	00000022 tos_ring_q_create
2000b348 g     O .bss	00000088 k_idle_task
000054ac g     F .text	0000001e RCC_APB2PeriphClockCmd
00000206 g     F .text	00000000 port_int_enable
00000e6e g     F .text	00000026 tos_at_uart_input_byte
2000eec0 g     O .bss	00000088 application_task2
00005030  w      .text	00000000 USB_LP_CAN1_RX0_IRQHandler
00002acc g     F .text	00000006 tos_sleep_ms
2000ef4c g       .bss	00000000 _ebss
00005036  w      .text	00000000 EXTI9_5_IRQHandler
2000029c g     O .bss	00000001 k_irq_nest_cnt
0000539e g     F .text	0000010e RCC_GetClocksFreq
00001f24 g     F .text	00000018 readyqueue_highest_ready_task_get
000021a4 g     F .text	0000009e tos_sem_pend
00003312 g     F .text	00000104 esp8266_tencent_firmware_recvpub
00008710 g     F .text	00000004 __seofread
0000597e g     F .text	00000006 __get_MCAUSE



Disassembly of section .init:

00000000 <_sinit>:
   0:	0b80506f          	j	50b8 <handle_reset>
   4:	00000013          	nop
   8:	00000013          	nop
   c:	00000013          	nop
  10:	00000013          	nop
  14:	00000013          	nop
  18:	00000013          	nop
  1c:	00000013          	nop
  20:	00000013          	nop
  24:	00000013          	nop
  28:	00000013          	nop
  2c:	00000013          	nop
  30:	00000013          	nop
  34:	00100073          	ebreak

Disassembly of section .vector:

00000038 <_vector_base>:
	...
  40:	3b36                	fld	fs6,360(sp)
  42:	0000                	unimp
  44:	3b3a                	fld	fs6,424(sp)
  46:	0000                	unimp
  48:	0000                	unimp
  4a:	0000                	unimp
  4c:	4ffe                	lw	t6,220(sp)
	...
  56:	0000                	unimp
  58:	5000                	lw	s0,32(s0)
  5a:	0000                	unimp
  5c:	5002                	0x5002
	...
  66:	0000                	unimp
  68:	39b6                	fld	fs3,360(sp)
  6a:	0000                	unimp
  6c:	0000                	unimp
  6e:	0000                	unimp
  70:	0274                	addi	a3,sp,268
  72:	0000                	unimp
  74:	0000                	unimp
  76:	0000                	unimp
  78:	5008                	lw	a0,32(s0)
  7a:	0000                	unimp
  7c:	500a                	0x500a
  7e:	0000                	unimp
  80:	500c                	lw	a1,32(s0)
  82:	0000                	unimp
  84:	3d3a                	fld	fs10,424(sp)
  86:	0000                	unimp
  88:	5010                	lw	a2,32(s0)
  8a:	0000                	unimp
  8c:	5012                	0x5012
  8e:	0000                	unimp
  90:	5014                	lw	a3,32(s0)
  92:	0000                	unimp
  94:	5016                	0x5016
  96:	0000                	unimp
  98:	5018                	lw	a4,32(s0)
  9a:	0000                	unimp
  9c:	501a                	0x501a
  9e:	0000                	unimp
  a0:	501c                	lw	a5,32(s0)
  a2:	0000                	unimp
  a4:	501e                	0x501e
  a6:	0000                	unimp
  a8:	5020                	lw	s0,96(s0)
  aa:	0000                	unimp
  ac:	5022                	0x5022
  ae:	0000                	unimp
  b0:	5024                	lw	s1,96(s0)
  b2:	0000                	unimp
  b4:	5026                	0x5026
  b6:	0000                	unimp
  b8:	5028                	lw	a0,96(s0)
  ba:	0000                	unimp
  bc:	502a                	0x502a
  be:	0000                	unimp
  c0:	502c                	lw	a1,96(s0)
  c2:	0000                	unimp
  c4:	502e                	0x502e
  c6:	0000                	unimp
  c8:	5030                	lw	a2,96(s0)
  ca:	0000                	unimp
  cc:	5032                	0x5032
  ce:	0000                	unimp
  d0:	5034                	lw	a3,96(s0)
  d2:	0000                	unimp
  d4:	5036                	0x5036
  d6:	0000                	unimp
  d8:	5038                	lw	a4,96(s0)
  da:	0000                	unimp
  dc:	503a                	0x503a
  de:	0000                	unimp
  e0:	503c                	lw	a5,96(s0)
  e2:	0000                	unimp
  e4:	503e                	0x503e
  e6:	0000                	unimp
  e8:	5040                	lw	s0,36(s0)
  ea:	0000                	unimp
  ec:	5042                	0x5042
  ee:	0000                	unimp
  f0:	5044                	lw	s1,36(s0)
  f2:	0000                	unimp
  f4:	5046                	0x5046
  f6:	0000                	unimp
  f8:	5048                	lw	a0,36(s0)
  fa:	0000                	unimp
  fc:	504a                	0x504a
  fe:	0000                	unimp
 100:	504c                	lw	a1,36(s0)
 102:	0000                	unimp
 104:	504e                	0x504e
 106:	0000                	unimp
 108:	5050                	lw	a2,36(s0)
 10a:	0000                	unimp
 10c:	5052                	0x5052
 10e:	0000                	unimp
 110:	3ba8                	fld	fa0,112(a5)
 112:	0000                	unimp
 114:	5056                	0x5056
 116:	0000                	unimp
 118:	5058                	lw	a4,36(s0)
 11a:	0000                	unimp
 11c:	505a                	0x505a
 11e:	0000                	unimp
 120:	505c                	lw	a5,36(s0)
 122:	0000                	unimp
 124:	505e                	0x505e
 126:	0000                	unimp
 128:	5060                	lw	s0,100(s0)
 12a:	0000                	unimp
 12c:	5062                	0x5062
 12e:	0000                	unimp
 130:	5064                	lw	s1,100(s0)
 132:	0000                	unimp
 134:	5066                	0x5066
 136:	0000                	unimp
 138:	5068                	lw	a0,100(s0)
 13a:	0000                	unimp
 13c:	506a                	0x506a
 13e:	0000                	unimp
 140:	506c                	lw	a1,100(s0)
 142:	0000                	unimp
 144:	506e                	0x506e
 146:	0000                	unimp
 148:	5070                	lw	a2,100(s0)
 14a:	0000                	unimp
 14c:	5072                	0x5072
 14e:	0000                	unimp
 150:	5074                	lw	a3,100(s0)
 152:	0000                	unimp
 154:	5076                	0x5076
 156:	0000                	unimp
 158:	5078                	lw	a4,100(s0)
 15a:	0000                	unimp
 15c:	507a                	0x507a
 15e:	0000                	unimp
 160:	507c                	lw	a5,100(s0)
 162:	0000                	unimp
 164:	507e                	0x507e
 166:	0000                	unimp
 168:	5080                	lw	s0,32(s1)
 16a:	0000                	unimp
 16c:	5082                	lw	ra,32(sp)
 16e:	0000                	unimp
 170:	5084                	lw	s1,32(s1)
 172:	0000                	unimp
 174:	5086                	lw	ra,96(sp)
 176:	0000                	unimp
 178:	5088                	lw	a0,32(s1)
 17a:	0000                	unimp
 17c:	508a                	lw	ra,160(sp)
 17e:	0000                	unimp
 180:	508c                	lw	a1,32(s1)
 182:	0000                	unimp
 184:	508e                	lw	ra,224(sp)
 186:	0000                	unimp
 188:	5090                	lw	a2,32(s1)
 18a:	0000                	unimp
 18c:	5092                	lw	ra,36(sp)
 18e:	0000                	unimp
 190:	5094                	lw	a3,32(s1)
 192:	0000                	unimp
 194:	3c2e                	fld	fs8,232(sp)
 196:	0000                	unimp
 198:	3cb4                	fld	fa3,120(s1)
 19a:	0000                	unimp
 19c:	509a                	lw	ra,164(sp)
 19e:	0000                	unimp
 1a0:	509c                	lw	a5,32(s1)
 1a2:	0000                	unimp
 1a4:	509e                	lw	ra,228(sp)
 1a6:	0000                	unimp
 1a8:	50a0                	lw	s0,96(s1)
 1aa:	0000                	unimp
 1ac:	50a2                	lw	ra,40(sp)
 1ae:	0000                	unimp
 1b0:	50a4                	lw	s1,96(s1)
 1b2:	0000                	unimp
 1b4:	50a6                	lw	ra,104(sp)
 1b6:	0000                	unimp
 1b8:	50a8                	lw	a0,96(s1)
 1ba:	0000                	unimp
 1bc:	50aa                	lw	ra,168(sp)
 1be:	0000                	unimp
 1c0:	50ac                	lw	a1,96(s1)
 1c2:	0000                	unimp
 1c4:	50ae                	lw	ra,232(sp)
 1c6:	0000                	unimp
 1c8:	50b0                	lw	a2,96(s1)
 1ca:	0000                	unimp
 1cc:	50b2                	lw	ra,44(sp)
 1ce:	0000                	unimp
 1d0:	50b4                	lw	a3,96(s1)
 1d2:	0000                	unimp
 1d4:	50b6                	lw	ra,108(sp)
	...

Disassembly of section .text:

00000200 <port_int_disable>:
     200:	30047073          	csrci	mstatus,8
     204:	8082                	ret

00000206 <port_int_enable>:
     206:	30046073          	csrsi	mstatus,8
     20a:	8082                	ret

0000020c <port_cpsr_save>:
     20c:	30047573          	csrrci	a0,mstatus,8
     210:	8082                	ret

00000212 <port_cpsr_restore>:
     212:	30051073          	csrw	mstatus,a0
     216:	8082                	ret

00000218 <port_sched_start>:
     218:	8481a283          	lw	t0,-1976(gp) # 20000298 <k_curr_task>
     21c:	0002a103          	lw	sp,0(t0)
     220:	a011                	j	224 <restore_context>
     222:	0001                	nop

00000224 <restore_context>:
     224:	4282                	lw	t0,0(sp)
     226:	34129073          	csrw	mepc,t0
     22a:	4292                	lw	t0,4(sp)
     22c:	30029073          	csrw	mstatus,t0
     230:	40a2                	lw	ra,8(sp)
     232:	41b2                	lw	gp,12(sp)
     234:	4242                	lw	tp,16(sp)
     236:	42d2                	lw	t0,20(sp)
     238:	4362                	lw	t1,24(sp)
     23a:	43f2                	lw	t2,28(sp)
     23c:	5402                	lw	s0,32(sp)
     23e:	5492                	lw	s1,36(sp)
     240:	5522                	lw	a0,40(sp)
     242:	55b2                	lw	a1,44(sp)
     244:	5642                	lw	a2,48(sp)
     246:	56d2                	lw	a3,52(sp)
     248:	5762                	lw	a4,56(sp)
     24a:	57f2                	lw	a5,60(sp)
     24c:	4806                	lw	a6,64(sp)
     24e:	4896                	lw	a7,68(sp)
     250:	4926                	lw	s2,72(sp)
     252:	49b6                	lw	s3,76(sp)
     254:	4a46                	lw	s4,80(sp)
     256:	4ad6                	lw	s5,84(sp)
     258:	4b66                	lw	s6,88(sp)
     25a:	4bf6                	lw	s7,92(sp)
     25c:	5c06                	lw	s8,96(sp)
     25e:	5c96                	lw	s9,100(sp)
     260:	5d26                	lw	s10,104(sp)
     262:	5db6                	lw	s11,108(sp)
     264:	5e46                	lw	t3,112(sp)
     266:	5ed6                	lw	t4,116(sp)
     268:	5f66                	lw	t5,120(sp)
     26a:	5ff6                	lw	t6,124(sp)
     26c:	6109                	addi	sp,sp,128
     26e:	30200073          	mret
     272:	0001                	nop

00000274 <SW_handler>:
     274:	7119                	addi	sp,sp,-128
     276:	ca16                	sw	t0,20(sp)
     278:	02000293          	li	t0,32
     27c:	8042a073          	csrs	0x804,t0
     280:	300022f3          	csrr	t0,mstatus
     284:	c216                	sw	t0,4(sp)
     286:	341022f3          	csrr	t0,mepc
     28a:	c016                	sw	t0,0(sp)
     28c:	c406                	sw	ra,8(sp)
     28e:	c60e                	sw	gp,12(sp)
     290:	c812                	sw	tp,16(sp)
     292:	cc1a                	sw	t1,24(sp)
     294:	ce1e                	sw	t2,28(sp)
     296:	d022                	sw	s0,32(sp)
     298:	d226                	sw	s1,36(sp)
     29a:	d42a                	sw	a0,40(sp)
     29c:	d62e                	sw	a1,44(sp)
     29e:	d832                	sw	a2,48(sp)
     2a0:	da36                	sw	a3,52(sp)
     2a2:	dc3a                	sw	a4,56(sp)
     2a4:	de3e                	sw	a5,60(sp)
     2a6:	c0c2                	sw	a6,64(sp)
     2a8:	c2c6                	sw	a7,68(sp)
     2aa:	c4ca                	sw	s2,72(sp)
     2ac:	c6ce                	sw	s3,76(sp)
     2ae:	c8d2                	sw	s4,80(sp)
     2b0:	cad6                	sw	s5,84(sp)
     2b2:	ccda                	sw	s6,88(sp)
     2b4:	cede                	sw	s7,92(sp)
     2b6:	d0e2                	sw	s8,96(sp)
     2b8:	d2e6                	sw	s9,100(sp)
     2ba:	d4ea                	sw	s10,104(sp)
     2bc:	d6ee                	sw	s11,108(sp)
     2be:	d8f2                	sw	t3,112(sp)
     2c0:	daf6                	sw	t4,116(sp)
     2c2:	dcfa                	sw	t5,120(sp)
     2c4:	defe                	sw	t6,124(sp)
     2c6:	828a                	mv	t0,sp
     2c8:	8181a103          	lw	sp,-2024(gp) # 20000268 <k_irq_stk_top>
     2cc:	c016                	sw	t0,0(sp)
     2ce:	67c030ef          	jal	ra,394a <sw_clearpend>
     2d2:	4102                	lw	sp,0(sp)
     2d4:	84818293          	addi	t0,gp,-1976 # 20000298 <k_curr_task>
     2d8:	85418313          	addi	t1,gp,-1964 # 200002a4 <k_next_task>
     2dc:	0002a383          	lw	t2,0(t0)
     2e0:	0023a023          	sw	sp,0(t2)
     2e4:	00032303          	lw	t1,0(t1)
     2e8:	0062a023          	sw	t1,0(t0)
     2ec:	00032103          	lw	sp,0(t1)
     2f0:	4292                	lw	t0,4(sp)
     2f2:	30029073          	csrw	mstatus,t0
     2f6:	4282                	lw	t0,0(sp)
     2f8:	34129073          	csrw	mepc,t0
     2fc:	40a2                	lw	ra,8(sp)
     2fe:	41b2                	lw	gp,12(sp)
     300:	4242                	lw	tp,16(sp)
     302:	42d2                	lw	t0,20(sp)
     304:	4362                	lw	t1,24(sp)
     306:	43f2                	lw	t2,28(sp)
     308:	5402                	lw	s0,32(sp)
     30a:	5492                	lw	s1,36(sp)
     30c:	5522                	lw	a0,40(sp)
     30e:	55b2                	lw	a1,44(sp)
     310:	5642                	lw	a2,48(sp)
     312:	56d2                	lw	a3,52(sp)
     314:	5762                	lw	a4,56(sp)
     316:	57f2                	lw	a5,60(sp)
     318:	4806                	lw	a6,64(sp)
     31a:	4896                	lw	a7,68(sp)
     31c:	4926                	lw	s2,72(sp)
     31e:	49b6                	lw	s3,76(sp)
     320:	4a46                	lw	s4,80(sp)
     322:	4ad6                	lw	s5,84(sp)
     324:	4b66                	lw	s6,88(sp)
     326:	4bf6                	lw	s7,92(sp)
     328:	5c06                	lw	s8,96(sp)
     32a:	5c96                	lw	s9,100(sp)
     32c:	5d26                	lw	s10,104(sp)
     32e:	5db6                	lw	s11,108(sp)
     330:	5e46                	lw	t3,112(sp)
     332:	5ed6                	lw	t4,116(sp)
     334:	5f66                	lw	t5,120(sp)
     336:	5ff6                	lw	t6,124(sp)
     338:	6109                	addi	sp,sp,128
     33a:	30200073          	mret
	...

00000340 <memset>:
     340:	433d                	li	t1,15
     342:	872a                	mv	a4,a0
     344:	02c37363          	bgeu	t1,a2,36a <memset+0x2a>
     348:	00f77793          	andi	a5,a4,15
     34c:	efbd                	bnez	a5,3ca <memset+0x8a>
     34e:	e5ad                	bnez	a1,3b8 <memset+0x78>
     350:	ff067693          	andi	a3,a2,-16
     354:	8a3d                	andi	a2,a2,15
     356:	96ba                	add	a3,a3,a4
     358:	c30c                	sw	a1,0(a4)
     35a:	c34c                	sw	a1,4(a4)
     35c:	c70c                	sw	a1,8(a4)
     35e:	c74c                	sw	a1,12(a4)
     360:	0741                	addi	a4,a4,16
     362:	fed76be3          	bltu	a4,a3,358 <memset+0x18>
     366:	e211                	bnez	a2,36a <memset+0x2a>
     368:	8082                	ret
     36a:	40c306b3          	sub	a3,t1,a2
     36e:	068a                	slli	a3,a3,0x2
     370:	00000297          	auipc	t0,0x0
     374:	9696                	add	a3,a3,t0
     376:	00a68067          	jr	10(a3)
     37a:	00b70723          	sb	a1,14(a4)
     37e:	00b706a3          	sb	a1,13(a4)
     382:	00b70623          	sb	a1,12(a4)
     386:	00b705a3          	sb	a1,11(a4)
     38a:	00b70523          	sb	a1,10(a4)
     38e:	00b704a3          	sb	a1,9(a4)
     392:	00b70423          	sb	a1,8(a4)
     396:	00b703a3          	sb	a1,7(a4)
     39a:	00b70323          	sb	a1,6(a4)
     39e:	00b702a3          	sb	a1,5(a4)
     3a2:	00b70223          	sb	a1,4(a4)
     3a6:	00b701a3          	sb	a1,3(a4)
     3aa:	00b70123          	sb	a1,2(a4)
     3ae:	00b700a3          	sb	a1,1(a4)
     3b2:	00b70023          	sb	a1,0(a4)
     3b6:	8082                	ret
     3b8:	0ff5f593          	andi	a1,a1,255
     3bc:	00859693          	slli	a3,a1,0x8
     3c0:	8dd5                	or	a1,a1,a3
     3c2:	01059693          	slli	a3,a1,0x10
     3c6:	8dd5                	or	a1,a1,a3
     3c8:	b761                	j	350 <memset+0x10>
     3ca:	00279693          	slli	a3,a5,0x2
     3ce:	00000297          	auipc	t0,0x0
     3d2:	9696                	add	a3,a3,t0
     3d4:	8286                	mv	t0,ra
     3d6:	fa8680e7          	jalr	-88(a3)
     3da:	8096                	mv	ra,t0
     3dc:	17c1                	addi	a5,a5,-16
     3de:	8f1d                	sub	a4,a4,a5
     3e0:	963e                	add	a2,a2,a5
     3e2:	f8c374e3          	bgeu	t1,a2,36a <memset+0x2a>
     3e6:	b7a5                	j	34e <memset+0xe>

000003e8 <strcmp>:
     3e8:	00b56733          	or	a4,a0,a1
     3ec:	53fd                	li	t2,-1
     3ee:	8b0d                	andi	a4,a4,3
     3f0:	e779                	bnez	a4,4be <strcmp+0xd6>
     3f2:	7f7f87b7          	lui	a5,0x7f7f8
     3f6:	f7f78793          	addi	a5,a5,-129 # 7f7f7f7f <_eusrstack+0x5f7e7f7f>
     3fa:	4110                	lw	a2,0(a0)
     3fc:	4194                	lw	a3,0(a1)
     3fe:	00f672b3          	and	t0,a2,a5
     402:	00f66333          	or	t1,a2,a5
     406:	92be                	add	t0,t0,a5
     408:	0062e2b3          	or	t0,t0,t1
     40c:	0c729763          	bne	t0,t2,4da <strcmp+0xf2>
     410:	06d61863          	bne	a2,a3,480 <strcmp+0x98>
     414:	4150                	lw	a2,4(a0)
     416:	41d4                	lw	a3,4(a1)
     418:	00f672b3          	and	t0,a2,a5
     41c:	00f66333          	or	t1,a2,a5
     420:	92be                	add	t0,t0,a5
     422:	0062e2b3          	or	t0,t0,t1
     426:	0a729863          	bne	t0,t2,4d6 <strcmp+0xee>
     42a:	04d61b63          	bne	a2,a3,480 <strcmp+0x98>
     42e:	4510                	lw	a2,8(a0)
     430:	4594                	lw	a3,8(a1)
     432:	00f672b3          	and	t0,a2,a5
     436:	00f66333          	or	t1,a2,a5
     43a:	92be                	add	t0,t0,a5
     43c:	0062e2b3          	or	t0,t0,t1
     440:	0a729163          	bne	t0,t2,4e2 <strcmp+0xfa>
     444:	02d61e63          	bne	a2,a3,480 <strcmp+0x98>
     448:	4550                	lw	a2,12(a0)
     44a:	45d4                	lw	a3,12(a1)
     44c:	00f672b3          	and	t0,a2,a5
     450:	00f66333          	or	t1,a2,a5
     454:	92be                	add	t0,t0,a5
     456:	0062e2b3          	or	t0,t0,t1
     45a:	08729a63          	bne	t0,t2,4ee <strcmp+0x106>
     45e:	02d61163          	bne	a2,a3,480 <strcmp+0x98>
     462:	4910                	lw	a2,16(a0)
     464:	4994                	lw	a3,16(a1)
     466:	00f672b3          	and	t0,a2,a5
     46a:	00f66333          	or	t1,a2,a5
     46e:	92be                	add	t0,t0,a5
     470:	0062e2b3          	or	t0,t0,t1
     474:	08729363          	bne	t0,t2,4fa <strcmp+0x112>
     478:	0551                	addi	a0,a0,20
     47a:	05d1                	addi	a1,a1,20
     47c:	f6d60fe3          	beq	a2,a3,3fa <strcmp+0x12>
     480:	01061713          	slli	a4,a2,0x10
     484:	01069793          	slli	a5,a3,0x10
     488:	00f71c63          	bne	a4,a5,4a0 <strcmp+0xb8>
     48c:	01065713          	srli	a4,a2,0x10
     490:	0106d793          	srli	a5,a3,0x10
     494:	40f70533          	sub	a0,a4,a5
     498:	0ff57593          	andi	a1,a0,255
     49c:	e991                	bnez	a1,4b0 <strcmp+0xc8>
     49e:	8082                	ret
     4a0:	8341                	srli	a4,a4,0x10
     4a2:	83c1                	srli	a5,a5,0x10
     4a4:	40f70533          	sub	a0,a4,a5
     4a8:	0ff57593          	andi	a1,a0,255
     4ac:	e191                	bnez	a1,4b0 <strcmp+0xc8>
     4ae:	8082                	ret
     4b0:	0ff77713          	andi	a4,a4,255
     4b4:	0ff7f793          	andi	a5,a5,255
     4b8:	40f70533          	sub	a0,a4,a5
     4bc:	8082                	ret
     4be:	00054603          	lbu	a2,0(a0)
     4c2:	0005c683          	lbu	a3,0(a1)
     4c6:	0505                	addi	a0,a0,1
     4c8:	0585                	addi	a1,a1,1
     4ca:	00d61363          	bne	a2,a3,4d0 <strcmp+0xe8>
     4ce:	fa65                	bnez	a2,4be <strcmp+0xd6>
     4d0:	40d60533          	sub	a0,a2,a3
     4d4:	8082                	ret
     4d6:	0511                	addi	a0,a0,4
     4d8:	0591                	addi	a1,a1,4
     4da:	fed612e3          	bne	a2,a3,4be <strcmp+0xd6>
     4de:	4501                	li	a0,0
     4e0:	8082                	ret
     4e2:	0521                	addi	a0,a0,8
     4e4:	05a1                	addi	a1,a1,8
     4e6:	fcd61ce3          	bne	a2,a3,4be <strcmp+0xd6>
     4ea:	4501                	li	a0,0
     4ec:	8082                	ret
     4ee:	0531                	addi	a0,a0,12
     4f0:	05b1                	addi	a1,a1,12
     4f2:	fcd616e3          	bne	a2,a3,4be <strcmp+0xd6>
     4f6:	4501                	li	a0,0
     4f8:	8082                	ret
     4fa:	0541                	addi	a0,a0,16
     4fc:	05c1                	addi	a1,a1,16
     4fe:	fcd610e3          	bne	a2,a3,4be <strcmp+0xd6>
     502:	4501                	li	a0,0
     504:	8082                	ret

00000506 <tos_hal_uart_init>:
     506:	c125                	beqz	a0,566 <tos_hal_uart_init+0x60>
     508:	1141                	addi	sp,sp,-16
     50a:	c606                	sw	ra,12(sp)
     50c:	87aa                	mv	a5,a0
     50e:	ed99                	bnez	a1,52c <tos_hal_uart_init+0x26>
     510:	40002737          	lui	a4,0x40002
     514:	c0070713          	addi	a4,a4,-1024 # 40001c00 <_eusrstack+0x1fff1c00>
     518:	c158                	sw	a4,4(a0)
     51a:	6571                	lui	a0,0x1c
     51c:	20050513          	addi	a0,a0,512 # 1c200 <_data_lma+0xe438>
     520:	23b040ef          	jal	ra,4f5a <uart7_init>
     524:	4501                	li	a0,0
     526:	40b2                	lw	ra,12(sp)
     528:	0141                	addi	sp,sp,16
     52a:	8082                	ret
     52c:	4709                	li	a4,2
     52e:	00e59d63          	bne	a1,a4,548 <tos_hal_uart_init+0x42>
     532:	40004737          	lui	a4,0x40004
     536:	40070713          	addi	a4,a4,1024 # 40004400 <_eusrstack+0x1fff4400>
     53a:	c158                	sw	a4,4(a0)
     53c:	6571                	lui	a0,0x1c
     53e:	20050513          	addi	a0,a0,512 # 1c200 <_data_lma+0xe438>
     542:	0cb040ef          	jal	ra,4e0c <usart2_init>
     546:	bff9                	j	524 <tos_hal_uart_init+0x1e>
     548:	4719                	li	a4,6
     54a:	557d                	li	a0,-1
     54c:	fce59de3          	bne	a1,a4,526 <tos_hal_uart_init+0x20>
     550:	40002737          	lui	a4,0x40002
     554:	80070713          	addi	a4,a4,-2048 # 40001800 <_eusrstack+0x1fff1800>
     558:	6571                	lui	a0,0x1c
     55a:	c3d8                	sw	a4,4(a5)
     55c:	20050513          	addi	a0,a0,512 # 1c200 <_data_lma+0xe438>
     560:	157040ef          	jal	ra,4eb6 <uart6_init>
     564:	b7c1                	j	524 <tos_hal_uart_init+0x1e>
     566:	557d                	li	a0,-1
     568:	8082                	ret

0000056a <tos_hal_uart_write>:
     56a:	57fd                	li	a5,-1
     56c:	c929                	beqz	a0,5be <tos_hal_uart_write+0x54>
     56e:	c9a1                	beqz	a1,5be <tos_hal_uart_write+0x54>
     570:	1101                	addi	sp,sp,-32
     572:	c84a                	sw	s2,16(sp)
     574:	00452903          	lw	s2,4(a0)
     578:	ce06                	sw	ra,28(sp)
     57a:	cc22                	sw	s0,24(sp)
     57c:	ca26                	sw	s1,20(sp)
     57e:	c64e                	sw	s3,12(sp)
     580:	00090963          	beqz	s2,592 <tos_hal_uart_write+0x28>
     584:	842e                	mv	s0,a1
     586:	00c584b3          	add	s1,a1,a2
     58a:	4985                	li	s3,1
     58c:	00941b63          	bne	s0,s1,5a2 <tos_hal_uart_write+0x38>
     590:	4781                	li	a5,0
     592:	40f2                	lw	ra,28(sp)
     594:	4462                	lw	s0,24(sp)
     596:	44d2                	lw	s1,20(sp)
     598:	4942                	lw	s2,16(sp)
     59a:	49b2                	lw	s3,12(sp)
     59c:	853e                	mv	a0,a5
     59e:	6105                	addi	sp,sp,32
     5a0:	8082                	ret
     5a2:	00044583          	lbu	a1,0(s0)
     5a6:	854a                	mv	a0,s2
     5a8:	26c050ef          	jal	ra,5814 <USART_SendData>
     5ac:	04000593          	li	a1,64
     5b0:	854a                	mv	a0,s2
     5b2:	276050ef          	jal	ra,5828 <USART_GetFlagStatus>
     5b6:	ff351be3          	bne	a0,s3,5ac <tos_hal_uart_write+0x42>
     5ba:	0405                	addi	s0,s0,1
     5bc:	bfc1                	j	58c <tos_hal_uart_write+0x22>
     5be:	853e                	mv	a0,a5
     5c0:	8082                	ret

000005c2 <tos_hal_uart_deinit>:
     5c2:	c519                	beqz	a0,5d0 <tos_hal_uart_deinit+0xe>
     5c4:	4148                	lw	a0,4(a0)
     5c6:	00153513          	seqz	a0,a0
     5ca:	40a00533          	neg	a0,a0
     5ce:	8082                	ret
     5d0:	557d                	li	a0,-1
     5d2:	8082                	ret

000005d4 <mqtt_message_handle_task_entry>:
     5d4:	7179                	addi	sp,sp,-48
     5d6:	d226                	sw	s1,36(sp)
     5d8:	d04a                	sw	s2,32(sp)
     5da:	ce4e                	sw	s3,28(sp)
     5dc:	cc52                	sw	s4,24(sp)
     5de:	d606                	sw	ra,44(sp)
     5e0:	d422                	sw	s0,40(sp)
     5e2:	ca56                	sw	s5,20(sp)
     5e4:	20002a37          	lui	s4,0x20002
     5e8:	89a6                	mv	s3,s1
     5ea:	56fd                	li	a3,-1
     5ec:	577d                	li	a4,-1
     5ee:	0070                	addi	a2,sp,12
     5f0:	88018593          	addi	a1,gp,-1920 # 200002d0 <mqtt_message>
     5f4:	440a0513          	addi	a0,s4,1088 # 20002440 <mqtt_message_mail>
     5f8:	4af000ef          	jal	ra,12a6 <tos_mail_q_pend>
     5fc:	83c1a403          	lw	s0,-1988(gp) # 2000028c <mqtt_sub_list>
     600:	83c18a93          	addi	s5,gp,-1988 # 2000028c <mqtt_sub_list>
     604:	ff5403e3          	beq	s0,s5,5ea <mqtt_message_handle_task_entry+0x16>
     608:	4448                	lw	a0,12(s0)
     60a:	88018593          	addi	a1,gp,-1920 # 200002d0 <mqtt_message>
     60e:	3be9                	jal	3e8 <strcmp>
     610:	e509                	bnez	a0,61a <mqtt_message_handle_task_entry+0x46>
     612:	481c                	lw	a5,16(s0)
     614:	88018513          	addi	a0,gp,-1920 # 200002d0 <mqtt_message>
     618:	9782                	jalr	a5
     61a:	4000                	lw	s0,0(s0)
     61c:	b7e5                	j	604 <mqtt_message_handle_task_entry+0x30>

0000061e <tos_tf_module_register>:
     61e:	83818793          	addi	a5,gp,-1992 # 20000288 <_edata>
     622:	4398                	lw	a4,0(a5)
     624:	e701                	bnez	a4,62c <tos_tf_module_register+0xe>
     626:	c388                	sw	a0,0(a5)
     628:	4501                	li	a0,0
     62a:	8082                	ret
     62c:	557d                	li	a0,-1
     62e:	8082                	ret

00000630 <tos_tf_module_init>:
     630:	20002537          	lui	a0,0x20002
     634:	1141                	addi	sp,sp,-16
     636:	14000693          	li	a3,320
     63a:	460d                	li	a2,3
     63c:	24818593          	addi	a1,gp,584 # 20000c98 <mqtt_message_pool>
     640:	44050513          	addi	a0,a0,1088 # 20002440 <mqtt_message_mail>
     644:	c606                	sw	ra,12(sp)
     646:	42f000ef          	jal	ra,1274 <tos_mail_q_create>
     64a:	ed39                	bnez	a0,6a8 <tos_tf_module_init+0x78>
     64c:	83c18793          	addi	a5,gp,-1988 # 2000028c <mqtt_sub_list>
     650:	46d1                	li	a3,20
     652:	4615                	li	a2,5
     654:	62018593          	addi	a1,gp,1568 # 20001070 <sub_list_node_pool>
     658:	60818513          	addi	a0,gp,1544 # 20001058 <sub_list_node_mbp>
     65c:	c39c                	sw	a5,0(a5)
     65e:	c3dc                	sw	a5,4(a5)
     660:	51b000ef          	jal	ra,137a <tos_mmblk_pool_create>
     664:	e531                	bnez	a0,6b0 <tos_tf_module_init+0x80>
     666:	6805                	lui	a6,0x1
     668:	200007b7          	lui	a5,0x20000
     66c:	00000637          	lui	a2,0x0
     670:	0000a5b7          	lui	a1,0xa
     674:	48a9                	li	a7,10
     676:	80080813          	addi	a6,a6,-2048 # 800 <__stack_size>
     67a:	49878793          	addi	a5,a5,1176 # 20000498 <mqtt_message_handle_task_stack>
     67e:	470d                	li	a4,3
     680:	4681                	li	a3,0
     682:	5d460613          	addi	a2,a2,1492 # 5d4 <mqtt_message_handle_task_entry>
     686:	df858593          	addi	a1,a1,-520 # 9df8 <_sbrk+0x34>
     68a:	9c018513          	addi	a0,gp,-1600 # 20000410 <mqtt_message_handle_task>
     68e:	6df010ef          	jal	ra,256c <tos_task_create>
     692:	e10d                	bnez	a0,6b4 <tos_tf_module_init+0x84>
     694:	8381a783          	lw	a5,-1992(gp) # 20000288 <_edata>
     698:	c385                	beqz	a5,6b8 <tos_tf_module_init+0x88>
     69a:	0007a303          	lw	t1,0(a5)
     69e:	00030d63          	beqz	t1,6b8 <tos_tf_module_init+0x88>
     6a2:	40b2                	lw	ra,12(sp)
     6a4:	0141                	addi	sp,sp,16
     6a6:	8302                	jr	t1
     6a8:	5579                	li	a0,-2
     6aa:	40b2                	lw	ra,12(sp)
     6ac:	0141                	addi	sp,sp,16
     6ae:	8082                	ret
     6b0:	5575                	li	a0,-3
     6b2:	bfe5                	j	6aa <tos_tf_module_init+0x7a>
     6b4:	5571                	li	a0,-4
     6b6:	bfd5                	j	6aa <tos_tf_module_init+0x7a>
     6b8:	557d                	li	a0,-1
     6ba:	bfc5                	j	6aa <tos_tf_module_init+0x7a>

000006bc <tos_tf_module_info_set>:
     6bc:	8381a783          	lw	a5,-1992(gp) # 20000288 <_edata>
     6c0:	c791                	beqz	a5,6cc <tos_tf_module_info_set+0x10>
     6c2:	0047a303          	lw	t1,4(a5)
     6c6:	00030363          	beqz	t1,6cc <tos_tf_module_info_set+0x10>
     6ca:	8302                	jr	t1
     6cc:	557d                	li	a0,-1
     6ce:	8082                	ret

000006d0 <tos_tf_module_mqtt_conn>:
     6d0:	8381a783          	lw	a5,-1992(gp) # 20000288 <_edata>
     6d4:	c395                	beqz	a5,6f8 <tos_tf_module_mqtt_conn+0x28>
     6d6:	1101                	addi	sp,sp,-32
     6d8:	cc22                	sw	s0,24(sp)
     6da:	4780                	lw	s0,8(a5)
     6dc:	ce06                	sw	ra,28(sp)
     6de:	85aa                	mv	a1,a0
     6e0:	557d                	li	a0,-1
     6e2:	c419                	beqz	s0,6f0 <tos_tf_module_mqtt_conn+0x20>
     6e4:	4641                	li	a2,16
     6e6:	850a                	mv	a0,sp
     6e8:	460070ef          	jal	ra,7b48 <memcpy>
     6ec:	850a                	mv	a0,sp
     6ee:	9402                	jalr	s0
     6f0:	40f2                	lw	ra,28(sp)
     6f2:	4462                	lw	s0,24(sp)
     6f4:	6105                	addi	sp,sp,32
     6f6:	8082                	ret
     6f8:	557d                	li	a0,-1
     6fa:	8082                	ret

000006fc <tos_tf_module_mqtt_sub>:
     6fc:	7179                	addi	sp,sp,-48
     6fe:	d422                	sw	s0,40(sp)
     700:	842a                	mv	s0,a0
     702:	d226                	sw	s1,36(sp)
     704:	60818513          	addi	a0,gp,1544 # 20001058 <sub_list_node_mbp>
     708:	84ae                	mv	s1,a1
     70a:	086c                	addi	a1,sp,28
     70c:	c632                	sw	a2,12(sp)
     70e:	d606                	sw	ra,44(sp)
     710:	4db000ef          	jal	ra,13ea <tos_mmblk_alloc>
     714:	4632                	lw	a2,12(sp)
     716:	c519                	beqz	a0,724 <tos_tf_module_mqtt_sub+0x28>
     718:	557d                	li	a0,-1
     71a:	50b2                	lw	ra,44(sp)
     71c:	5422                	lw	s0,40(sp)
     71e:	5492                	lw	s1,36(sp)
     720:	6145                	addi	sp,sp,48
     722:	8082                	ret
     724:	47f2                	lw	a5,28(sp)
     726:	83c18713          	addi	a4,gp,-1988 # 2000028c <mqtt_sub_list>
     72a:	4354                	lw	a3,4(a4)
     72c:	c35c                	sw	a5,4(a4)
     72e:	c7c0                	sw	s0,12(a5)
     730:	c784                	sw	s1,8(a5)
     732:	cb90                	sw	a2,16(a5)
     734:	c398                	sw	a4,0(a5)
     736:	c3d4                	sw	a3,4(a5)
     738:	c29c                	sw	a5,0(a3)
     73a:	8381a783          	lw	a5,-1992(gp) # 20000288 <_edata>
     73e:	dfe9                	beqz	a5,718 <tos_tf_module_mqtt_sub+0x1c>
     740:	4f9c                	lw	a5,24(a5)
     742:	dbf9                	beqz	a5,718 <tos_tf_module_mqtt_sub+0x1c>
     744:	85a6                	mv	a1,s1
     746:	8522                	mv	a0,s0
     748:	9782                	jalr	a5
     74a:	bfc1                	j	71a <tos_tf_module_mqtt_sub+0x1e>

0000074c <tos_tf_module_mqtt_state_get>:
     74c:	8381a783          	lw	a5,-1992(gp) # 20000288 <_edata>
     750:	c791                	beqz	a5,75c <tos_tf_module_mqtt_state_get+0x10>
     752:	0207a303          	lw	t1,32(a5)
     756:	00030363          	beqz	t1,75c <tos_tf_module_mqtt_state_get+0x10>
     75a:	8302                	jr	t1
     75c:	557d                	li	a0,-1
     75e:	8082                	ret

00000760 <at_uart_getchar>:
     760:	1101                	addi	sp,sp,-32
     762:	cc22                	sw	s0,24(sp)
     764:	c84a                	sw	s2,16(sp)
     766:	842a                	mv	s0,a0
     768:	892e                	mv	s2,a1
     76a:	4505                	li	a0,1
     76c:	4581                	li	a1,0
     76e:	ce06                	sw	ra,28(sp)
     770:	ca26                	sw	s1,20(sp)
     772:	c432                	sw	a2,8(sp)
     774:	c636                	sw	a3,12(sp)
     776:	2cd010ef          	jal	ra,2242 <tos_stopwatch_delay>
     77a:	4622                	lw	a2,8(sp)
     77c:	46b2                	lw	a3,12(sp)
     77e:	39040513          	addi	a0,s0,912
     782:	85b2                	mv	a1,a2
     784:	8636                	mv	a2,a3
     786:	21f010ef          	jal	ra,21a4 <tos_sem_pend>
     78a:	e51d                	bnez	a0,7b8 <at_uart_getchar+0x58>
     78c:	2a6030ef          	jal	ra,3a32 <tos_cpu_cpsr_save>
     790:	84aa                	mv	s1,a0
     792:	85ca                	mv	a1,s2
     794:	3a040513          	addi	a0,s0,928
     798:	7ce000ef          	jal	ra,f66 <tos_chr_fifo_pop>
     79c:	842a                	mv	s0,a0
     79e:	8526                	mv	a0,s1
     7a0:	296030ef          	jal	ra,3a36 <tos_cpu_cpsr_restore>
     7a4:	00803533          	snez	a0,s0
     7a8:	40a00533          	neg	a0,a0
     7ac:	40f2                	lw	ra,28(sp)
     7ae:	4462                	lw	s0,24(sp)
     7b0:	44d2                	lw	s1,20(sp)
     7b2:	4942                	lw	s2,16(sp)
     7b4:	6105                	addi	sp,sp,32
     7b6:	8082                	ret
     7b8:	557d                	li	a0,-1
     7ba:	bfcd                	j	7ac <at_uart_getchar+0x4c>

000007bc <at_event_do_get>:
     7bc:	1101                	addi	sp,sp,-32
     7be:	cc22                	sw	s0,24(sp)
     7c0:	c452                	sw	s4,8(sp)
     7c2:	2a052403          	lw	s0,672(a0)
     7c6:	2a452a03          	lw	s4,676(a0)
     7ca:	ca26                	sw	s1,20(sp)
     7cc:	c256                	sw	s5,4(sp)
     7ce:	c05a                	sw	s6,0(sp)
     7d0:	ce06                	sw	ra,28(sp)
     7d2:	c84a                	sw	s2,16(sp)
     7d4:	c64e                	sw	s3,12(sp)
     7d6:	8aae                	mv	s5,a1
     7d8:	8b32                	mv	s6,a2
     7da:	4481                	li	s1,0
     7dc:	01449e63          	bne	s1,s4,7f8 <at_event_do_get+0x3c>
     7e0:	4901                	li	s2,0
     7e2:	40f2                	lw	ra,28(sp)
     7e4:	4462                	lw	s0,24(sp)
     7e6:	854a                	mv	a0,s2
     7e8:	44d2                	lw	s1,20(sp)
     7ea:	4942                	lw	s2,16(sp)
     7ec:	49b2                	lw	s3,12(sp)
     7ee:	4a22                	lw	s4,8(sp)
     7f0:	4a92                	lw	s5,4(sp)
     7f2:	4b02                	lw	s6,0(sp)
     7f4:	6105                	addi	sp,sp,32
     7f6:	8082                	ret
     7f8:	00042983          	lw	s3,0(s0)
     7fc:	8922                	mv	s2,s0
     7fe:	854e                	mv	a0,s3
     800:	7bf070ef          	jal	ra,87be <strlen>
     804:	862a                	mv	a2,a0
     806:	00ab6763          	bltu	s6,a0,814 <__stack_size+0x14>
     80a:	85d6                	mv	a1,s5
     80c:	854e                	mv	a0,s3
     80e:	7c3070ef          	jal	ra,87d0 <strncmp>
     812:	d961                	beqz	a0,7e2 <at_event_do_get+0x26>
     814:	0485                	addi	s1,s1,1
     816:	0421                	addi	s0,s0,8
     818:	b7d1                	j	7dc <at_event_do_get+0x20>

0000081a <at_parser>:
     81a:	711d                	addi	sp,sp,-96
     81c:	cca2                	sw	s0,88(sp)
     81e:	c2d6                	sw	s5,68(sp)
     820:	c0da                	sw	s6,64(sp)
     822:	de5e                	sw	s7,60(sp)
     824:	dc62                	sw	s8,56(sp)
     826:	ce86                	sw	ra,92(sp)
     828:	caa6                	sw	s1,84(sp)
     82a:	c8ca                	sw	s2,80(sp)
     82c:	c6ce                	sw	s3,76(sp)
     82e:	c4d2                	sw	s4,72(sp)
     830:	da66                	sw	s9,52(sp)
     832:	d86a                	sw	s10,48(sp)
     834:	d66e                	sw	s11,44(sp)
     836:	842a                	mv	s0,a0
     838:	0000aab7          	lui	s5,0xa
     83c:	0000ab37          	lui	s6,0xa
     840:	0000abb7          	lui	s7,0xa
     844:	0000ac37          	lui	s8,0xa
     848:	33c42603          	lw	a2,828(s0)
     84c:	33842503          	lw	a0,824(s0)
     850:	34042023          	sw	zero,832(s0)
     854:	4581                	li	a1,0
     856:	34ed                	jal	340 <memset>
     858:	4a01                	li	s4,0
     85a:	4901                	li	s2,0
     85c:	4ca9                	li	s9,10
     85e:	4d35                	li	s10,13
     860:	4d89                	li	s11,2
     862:	567d                	li	a2,-1
     864:	56fd                	li	a3,-1
     866:	01f10593          	addi	a1,sp,31
     86a:	8522                	mv	a0,s0
     86c:	3dd5                	jal	760 <at_uart_getchar>
     86e:	f975                	bnez	a0,862 <at_parser+0x48>
     870:	33c42703          	lw	a4,828(s0)
     874:	33842783          	lw	a5,824(s0)
     878:	02e97463          	bgeu	s2,a4,8a0 <at_parser+0x86>
     87c:	01f14983          	lbu	s3,31(sp)
     880:	97ca                	add	a5,a5,s2
     882:	00190493          	addi	s1,s2,1
     886:	01378023          	sb	s3,0(a5)
     88a:	33842903          	lw	s2,824(s0)
     88e:	34942023          	sw	s1,832(s0)
     892:	8626                	mv	a2,s1
     894:	85ca                	mv	a1,s2
     896:	8522                	mv	a0,s0
     898:	3715                	jal	7bc <at_event_do_get>
     89a:	c91d                	beqz	a0,8d0 <at_parser+0xb6>
     89c:	4909                	li	s2,2
     89e:	a029                	j	8a8 <at_parser+0x8e>
     8a0:	97ba                	add	a5,a5,a4
     8a2:	fe078fa3          	sb	zero,-1(a5)
     8a6:	4911                	li	s2,4
     8a8:	33842583          	lw	a1,824(s0)
     8ac:	e28b8513          	addi	a0,s7,-472 # 9e28 <_sbrk+0x64>
     8b0:	3e3070ef          	jal	ra,8492 <iprintf>
     8b4:	4529                	li	a0,10
     8b6:	41f070ef          	jal	ra,84d4 <putchar>
     8ba:	4791                	li	a5,4
     8bc:	0af91063          	bne	s2,a5,95c <at_parser+0x142>
     8c0:	e30c0513          	addi	a0,s8,-464 # 9e30 <_sbrk+0x6c>
     8c4:	3cf070ef          	jal	ra,8492 <iprintf>
     8c8:	4529                	li	a0,10
     8ca:	40b070ef          	jal	ra,84d4 <putchar>
     8ce:	bfad                	j	848 <at_parser+0x2e>
     8d0:	2a842703          	lw	a4,680(s0)
     8d4:	c705                	beqz	a4,8fc <at_parser+0xe2>
     8d6:	471c                	lw	a5,8(a4)
     8d8:	c63a                	sw	a4,12(sp)
     8da:	c38d                	beqz	a5,8fc <at_parser+0xe2>
     8dc:	853e                	mv	a0,a5
     8de:	c43e                	sw	a5,8(sp)
     8e0:	6df070ef          	jal	ra,87be <strlen>
     8e4:	862a                	mv	a2,a0
     8e6:	00a4eb63          	bltu	s1,a0,8fc <at_parser+0xe2>
     8ea:	4732                	lw	a4,12(sp)
     8ec:	47a2                	lw	a5,8(sp)
     8ee:	5f58                	lw	a4,60(a4)
     8f0:	c739                	beqz	a4,93e <at_parser+0x124>
     8f2:	85be                	mv	a1,a5
     8f4:	854a                	mv	a0,s2
     8f6:	72b070ef          	jal	ra,8820 <strstr>
     8fa:	c539                	beqz	a0,948 <at_parser+0x12e>
     8fc:	0000a7b7          	lui	a5,0xa
     900:	2fc78593          	addi	a1,a5,764 # a2fc <_sbrk+0x538>
     904:	854a                	mv	a0,s2
     906:	71b070ef          	jal	ra,8820 <strstr>
     90a:	e129                	bnez	a0,94c <at_parser+0x132>
     90c:	e18a8593          	addi	a1,s5,-488 # 9e18 <_sbrk+0x54>
     910:	854a                	mv	a0,s2
     912:	70f070ef          	jal	ra,8820 <strstr>
     916:	ed0d                	bnez	a0,950 <at_parser+0x136>
     918:	e20b0593          	addi	a1,s6,-480 # 9e20 <_sbrk+0x5c>
     91c:	854a                	mv	a0,s2
     91e:	703070ef          	jal	ra,8820 <strstr>
     922:	e90d                	bnez	a0,954 <at_parser+0x13a>
     924:	01999a63          	bne	s3,s9,938 <at_parser+0x11e>
     928:	01aa1863          	bne	s4,s10,938 <at_parser+0x11e>
     92c:	03b49663          	bne	s1,s11,958 <at_parser+0x13e>
     930:	34042023          	sw	zero,832(s0)
     934:	4981                	li	s3,0
     936:	4481                	li	s1,0
     938:	8a4e                	mv	s4,s3
     93a:	8926                	mv	s2,s1
     93c:	b71d                	j	862 <at_parser+0x48>
     93e:	85ca                	mv	a1,s2
     940:	853e                	mv	a0,a5
     942:	68f070ef          	jal	ra,87d0 <strncmp>
     946:	bf55                	j	8fa <at_parser+0xe0>
     948:	490d                	li	s2,3
     94a:	bfb9                	j	8a8 <at_parser+0x8e>
     94c:	4915                	li	s2,5
     94e:	bfa9                	j	8a8 <at_parser+0x8e>
     950:	4919                	li	s2,6
     952:	bf99                	j	8a8 <at_parser+0x8e>
     954:	491d                	li	s2,7
     956:	bf89                	j	8a8 <at_parser+0x8e>
     958:	4905                	li	s2,1
     95a:	b7b9                	j	8a8 <at_parser+0x8e>
     95c:	4789                	li	a5,2
     95e:	00f91f63          	bne	s2,a5,97c <at_parser+0x162>
     962:	34042603          	lw	a2,832(s0)
     966:	33842583          	lw	a1,824(s0)
     96a:	8522                	mv	a0,s0
     96c:	3d81                	jal	7bc <at_event_do_get>
     96e:	ec050de3          	beqz	a0,848 <at_parser+0x2e>
     972:	415c                	lw	a5,4(a0)
     974:	ec078ae3          	beqz	a5,848 <at_parser+0x2e>
     978:	9782                	jalr	a5
     97a:	b5f9                	j	848 <at_parser+0x2e>
     97c:	2a842483          	lw	s1,680(s0)
     980:	ec0484e3          	beqz	s1,848 <at_parser+0x2e>
     984:	4088                	lw	a0,0(s1)
     986:	c51d                	beqz	a0,9b4 <at_parser+0x19a>
     988:	48d8                	lw	a4,20(s1)
     98a:	40dc                	lw	a5,4(s1)
     98c:	8f99                	sub	a5,a5,a4
     98e:	c39d                	beqz	a5,9b4 <at_parser+0x19a>
     990:	34042983          	lw	s3,832(s0)
     994:	0137f363          	bgeu	a5,s3,99a <at_parser+0x180>
     998:	89be                	mv	s3,a5
     99a:	33842583          	lw	a1,824(s0)
     99e:	864e                	mv	a2,s3
     9a0:	953a                	add	a0,a0,a4
     9a2:	1a6070ef          	jal	ra,7b48 <memcpy>
     9a6:	48dc                	lw	a5,20(s1)
     9a8:	99be                	add	s3,s3,a5
     9aa:	44dc                	lw	a5,12(s1)
     9ac:	0134aa23          	sw	s3,20(s1)
     9b0:	0785                	addi	a5,a5,1
     9b2:	c4dc                	sw	a5,12(s1)
     9b4:	478d                	li	a5,3
     9b6:	00f91c63          	bne	s2,a5,9ce <at_parser+0x1b4>
     9ba:	4791                	li	a5,4
     9bc:	c89c                	sw	a5,16(s1)
     9be:	4c9c                	lw	a5,24(s1)
     9c0:	01c48513          	addi	a0,s1,28
     9c4:	e80782e3          	beqz	a5,848 <at_parser+0x2e>
     9c8:	7d8010ef          	jal	ra,21a0 <tos_sem_post>
     9cc:	bdb5                	j	848 <at_parser+0x2e>
     9ce:	4715                	li	a4,5
     9d0:	00e91a63          	bne	s2,a4,9e4 <at_parser+0x1ca>
     9d4:	4785                	li	a5,1
     9d6:	c89c                	sw	a5,16(s1)
     9d8:	4c9c                	lw	a5,24(s1)
     9da:	e60797e3          	bnez	a5,848 <at_parser+0x2e>
     9de:	02c48513          	addi	a0,s1,44
     9e2:	b7dd                	j	9c8 <at_parser+0x1ae>
     9e4:	4719                	li	a4,6
     9e6:	00e91463          	bne	s2,a4,9ee <at_parser+0x1d4>
     9ea:	4789                	li	a5,2
     9ec:	b7ed                	j	9d6 <at_parser+0x1bc>
     9ee:	471d                	li	a4,7
     9f0:	e4e91ce3          	bne	s2,a4,848 <at_parser+0x2e>
     9f4:	b7cd                	j	9d6 <at_parser+0x1bc>

000009f6 <at_cmd_do_exec>:
     9f6:	1101                	addi	sp,sp,-32
     9f8:	cc22                	sw	s0,24(sp)
     9fa:	842a                	mv	s0,a0
     9fc:	36452503          	lw	a0,868(a0)
     a00:	86b2                	mv	a3,a2
     a02:	862e                	mv	a2,a1
     a04:	20000593          	li	a1,512
     a08:	ce06                	sw	ra,28(sp)
     a0a:	ca26                	sw	s1,20(sp)
     a0c:	156080ef          	jal	ra,8b62 <vsniprintf>
     a10:	36442583          	lw	a1,868(s0)
     a14:	c62a                	sw	a0,12(sp)
     a16:	0000a537          	lui	a0,0xa
     a1a:	e0c50513          	addi	a0,a0,-500 # 9e0c <_sbrk+0x48>
     a1e:	275070ef          	jal	ra,8492 <iprintf>
     a22:	4529                	li	a0,10
     a24:	2b1070ef          	jal	ra,84d4 <putchar>
     a28:	36442583          	lw	a1,868(s0)
     a2c:	37040493          	addi	s1,s0,880
     a30:	8526                	mv	a0,s1
     a32:	c42e                	sw	a1,8(sp)
     a34:	0c2010ef          	jal	ra,1af6 <tos_mutex_pend>
     a38:	4632                	lw	a2,12(sp)
     a3a:	45a2                	lw	a1,8(sp)
     a3c:	66c1                	lui	a3,0x10
     a3e:	16fd                	addi	a3,a3,-1
     a40:	36840513          	addi	a0,s0,872
     a44:	361d                	jal	56a <tos_hal_uart_write>
     a46:	8526                	mv	a0,s1
     a48:	0b4010ef          	jal	ra,1afc <tos_mutex_post>
     a4c:	40f2                	lw	ra,28(sp)
     a4e:	4462                	lw	s0,24(sp)
     a50:	44d2                	lw	s1,20(sp)
     a52:	4501                	li	a0,0
     a54:	6105                	addi	sp,sp,32
     a56:	8082                	ret

00000a58 <tos_at_global_lock_pend>:
     a58:	1141                	addi	sp,sp,-16
     a5a:	34450513          	addi	a0,a0,836
     a5e:	c606                	sw	ra,12(sp)
     a60:	096010ef          	jal	ra,1af6 <tos_mutex_pend>
     a64:	40b2                	lw	ra,12(sp)
     a66:	00a03533          	snez	a0,a0
     a6a:	40a00533          	neg	a0,a0
     a6e:	0141                	addi	sp,sp,16
     a70:	8082                	ret

00000a72 <tos_at_global_lock_post>:
     a72:	1141                	addi	sp,sp,-16
     a74:	34450513          	addi	a0,a0,836
     a78:	c606                	sw	ra,12(sp)
     a7a:	082010ef          	jal	ra,1afc <tos_mutex_post>
     a7e:	40b2                	lw	ra,12(sp)
     a80:	00a03533          	snez	a0,a0
     a84:	40a00533          	neg	a0,a0
     a88:	0141                	addi	sp,sp,16
     a8a:	8082                	ret

00000a8c <tos_at_uart_read>:
     a8c:	7179                	addi	sp,sp,-48
     a8e:	d422                	sw	s0,40(sp)
     a90:	d226                	sw	s1,36(sp)
     a92:	d04a                	sw	s2,32(sp)
     a94:	ce4e                	sw	s3,28(sp)
     a96:	d606                	sw	ra,44(sp)
     a98:	89aa                	mv	s3,a0
     a9a:	892e                	mv	s2,a1
     a9c:	8432                	mv	s0,a2
     a9e:	4481                	li	s1,0
     aa0:	567d                	li	a2,-1
     aa2:	56fd                	li	a3,-1
     aa4:	00f10593          	addi	a1,sp,15
     aa8:	854e                	mv	a0,s3
     aaa:	395d                	jal	760 <at_uart_getchar>
     aac:	c909                	beqz	a0,abe <tos_at_uart_read+0x32>
     aae:	8526                	mv	a0,s1
     ab0:	50b2                	lw	ra,44(sp)
     ab2:	5422                	lw	s0,40(sp)
     ab4:	5492                	lw	s1,36(sp)
     ab6:	5902                	lw	s2,32(sp)
     ab8:	49f2                	lw	s3,28(sp)
     aba:	6145                	addi	sp,sp,48
     abc:	8082                	ret
     abe:	00f14703          	lbu	a4,15(sp)
     ac2:	009907b3          	add	a5,s2,s1
     ac6:	0485                	addi	s1,s1,1
     ac8:	00e78023          	sb	a4,0(a5)
     acc:	fc941ae3          	bne	s0,s1,aa0 <tos_at_uart_read+0x14>
     ad0:	8522                	mv	a0,s0
     ad2:	bff9                	j	ab0 <tos_at_uart_read+0x24>

00000ad4 <tos_at_echo_create>:
     ad4:	c529                	beqz	a0,b1e <tos_at_echo_create+0x4a>
     ad6:	1141                	addi	sp,sp,-16
     ad8:	c422                	sw	s0,8(sp)
     ada:	c226                	sw	s1,4(sp)
     adc:	c04a                	sw	s2,0(sp)
     ade:	c606                	sw	ra,12(sp)
     ae0:	8932                	mv	s2,a2
     ae2:	84b6                	mv	s1,a3
     ae4:	87ae                	mv	a5,a1
     ae6:	842a                	mv	s0,a0
     ae8:	c591                	beqz	a1,af4 <tos_at_echo_create+0x20>
     aea:	853e                	mv	a0,a5
     aec:	4581                	li	a1,0
     aee:	853ff0ef          	jal	ra,340 <memset>
     af2:	87aa                	mv	a5,a0
     af4:	01242223          	sw	s2,4(s0)
     af8:	c404                	sw	s1,8(s0)
     afa:	c01c                	sw	a5,0(s0)
     afc:	00042623          	sw	zero,12(s0)
     b00:	00042823          	sw	zero,16(s0)
     b04:	00042a23          	sw	zero,20(s0)
     b08:	00042c23          	sw	zero,24(s0)
     b0c:	02042e23          	sw	zero,60(s0)
     b10:	40b2                	lw	ra,12(sp)
     b12:	4422                	lw	s0,8(sp)
     b14:	4492                	lw	s1,4(sp)
     b16:	4902                	lw	s2,0(sp)
     b18:	4501                	li	a0,0
     b1a:	0141                	addi	sp,sp,16
     b1c:	8082                	ret
     b1e:	557d                	li	a0,-1
     b20:	8082                	ret

00000b22 <tos_at_raw_data_send_until>:
     b22:	1101                	addi	sp,sp,-32
     b24:	ce06                	sw	ra,28(sp)
     b26:	cc22                	sw	s0,24(sp)
     b28:	ca26                	sw	s1,20(sp)
     b2a:	c84a                	sw	s2,16(sp)
     b2c:	c64e                	sw	s3,12(sp)
     b2e:	c452                	sw	s4,8(sp)
     b30:	c256                	sw	s5,4(sp)
     b32:	c05a                	sw	s6,0(sp)
     b34:	ed89                	bnez	a1,b4e <tos_at_raw_data_send_until+0x2c>
     b36:	547d                	li	s0,-1
     b38:	8522                	mv	a0,s0
     b3a:	40f2                	lw	ra,28(sp)
     b3c:	4462                	lw	s0,24(sp)
     b3e:	44d2                	lw	s1,20(sp)
     b40:	4942                	lw	s2,16(sp)
     b42:	49b2                	lw	s3,12(sp)
     b44:	4a22                	lw	s4,8(sp)
     b46:	4a92                	lw	s5,4(sp)
     b48:	4b02                	lw	s6,0(sp)
     b4a:	6105                	addi	sp,sp,32
     b4c:	8082                	ret
     b4e:	459c                	lw	a5,8(a1)
     b50:	d3fd                	beqz	a5,b36 <tos_at_raw_data_send_until+0x14>
     b52:	84aa                	mv	s1,a0
     b54:	8aba                	mv	s5,a4
     b56:	8a36                	mv	s4,a3
     b58:	89b2                	mv	s3,a2
     b5a:	842e                	mv	s0,a1
     b5c:	3df5                	jal	a58 <tos_at_global_lock_pend>
     b5e:	fd61                	bnez	a0,b36 <tos_at_raw_data_send_until+0x14>
     b60:	01c40913          	addi	s2,s0,28
     b64:	4581                	li	a1,0
     b66:	854a                	mv	a0,s2
     b68:	5dc010ef          	jal	ra,2144 <tos_sem_create>
     b6c:	c501                	beqz	a0,b74 <tos_at_raw_data_send_until+0x52>
     b6e:	8526                	mv	a0,s1
     b70:	3709                	jal	a72 <tos_at_global_lock_post>
     b72:	b7d1                	j	b36 <tos_at_raw_data_send_until+0x14>
     b74:	4785                	li	a5,1
     b76:	cc1c                	sw	a5,24(s0)
     b78:	00042623          	sw	zero,12(s0)
     b7c:	00042823          	sw	zero,16(s0)
     b80:	00042a23          	sw	zero,20(s0)
     b84:	37048b13          	addi	s6,s1,880
     b88:	2a84a423          	sw	s0,680(s1)
     b8c:	855a                	mv	a0,s6
     b8e:	769000ef          	jal	ra,1af6 <tos_mutex_pend>
     b92:	66c1                	lui	a3,0x10
     b94:	8656                	mv	a2,s5
     b96:	16fd                	addi	a3,a3,-1
     b98:	85d2                	mv	a1,s4
     b9a:	36848513          	addi	a0,s1,872
     b9e:	32f1                	jal	56a <tos_hal_uart_write>
     ba0:	842a                	mv	s0,a0
     ba2:	855a                	mv	a0,s6
     ba4:	759000ef          	jal	ra,1afc <tos_mutex_post>
     ba8:	854e                	mv	a0,s3
     baa:	71f010ef          	jal	ra,2ac8 <tos_millisec2tick>
     bae:	862e                	mv	a2,a1
     bb0:	85aa                	mv	a1,a0
     bb2:	854a                	mv	a0,s2
     bb4:	5f0010ef          	jal	ra,21a4 <tos_sem_pend>
     bb8:	c111                	beqz	a0,bbc <tos_at_raw_data_send_until+0x9a>
     bba:	547d                	li	s0,-1
     bbc:	854a                	mv	a0,s2
     bbe:	58c010ef          	jal	ra,214a <tos_sem_destroy>
     bc2:	8526                	mv	a0,s1
     bc4:	2a04a423          	sw	zero,680(s1)
     bc8:	356d                	jal	a72 <tos_at_global_lock_post>
     bca:	b7bd                	j	b38 <tos_at_raw_data_send_until+0x16>

00000bcc <tos_at_cmd_exec>:
     bcc:	7139                	addi	sp,sp,-64
     bce:	d606                	sw	ra,44(sp)
     bd0:	d422                	sw	s0,40(sp)
     bd2:	d226                	sw	s1,36(sp)
     bd4:	d04a                	sw	s2,32(sp)
     bd6:	ce4e                	sw	s3,28(sp)
     bd8:	cc52                	sw	s4,24(sp)
     bda:	d83a                	sw	a4,48(sp)
     bdc:	da3e                	sw	a5,52(sp)
     bde:	dc42                	sw	a6,56(sp)
     be0:	de46                	sw	a7,60(sp)
     be2:	e999                	bnez	a1,bf8 <tos_at_cmd_exec+0x2c>
     be4:	54fd                	li	s1,-1
     be6:	50b2                	lw	ra,44(sp)
     be8:	5422                	lw	s0,40(sp)
     bea:	8526                	mv	a0,s1
     bec:	5902                	lw	s2,32(sp)
     bee:	5492                	lw	s1,36(sp)
     bf0:	49f2                	lw	s3,28(sp)
     bf2:	4a62                	lw	s4,24(sp)
     bf4:	6121                	addi	sp,sp,64
     bf6:	8082                	ret
     bf8:	842a                	mv	s0,a0
     bfa:	8a36                	mv	s4,a3
     bfc:	89b2                	mv	s3,a2
     bfe:	84ae                	mv	s1,a1
     c00:	3da1                	jal	a58 <tos_at_global_lock_pend>
     c02:	f16d                	bnez	a0,be4 <tos_at_cmd_exec+0x18>
     c04:	02c48913          	addi	s2,s1,44
     c08:	4581                	li	a1,0
     c0a:	854a                	mv	a0,s2
     c0c:	538010ef          	jal	ra,2144 <tos_sem_create>
     c10:	c501                	beqz	a0,c18 <tos_at_cmd_exec+0x4c>
     c12:	8522                	mv	a0,s0
     c14:	3db9                	jal	a72 <tos_at_global_lock_post>
     c16:	b7f9                	j	be4 <tos_at_cmd_exec+0x18>
     c18:	0004a623          	sw	zero,12(s1)
     c1c:	0004a823          	sw	zero,16(s1)
     c20:	0004aa23          	sw	zero,20(s1)
     c24:	1810                	addi	a2,sp,48
     c26:	2a942423          	sw	s1,680(s0)
     c2a:	85d2                	mv	a1,s4
     c2c:	8522                	mv	a0,s0
     c2e:	c632                	sw	a2,12(sp)
     c30:	33d9                	jal	9f6 <at_cmd_do_exec>
     c32:	c501                	beqz	a0,c3a <tos_at_cmd_exec+0x6e>
     c34:	2a042423          	sw	zero,680(s0)
     c38:	bfe9                	j	c12 <tos_at_cmd_exec+0x46>
     c3a:	854e                	mv	a0,s3
     c3c:	68d010ef          	jal	ra,2ac8 <tos_millisec2tick>
     c40:	862e                	mv	a2,a1
     c42:	85aa                	mv	a1,a0
     c44:	854a                	mv	a0,s2
     c46:	55e010ef          	jal	ra,21a4 <tos_sem_pend>
     c4a:	00a03533          	snez	a0,a0
     c4e:	40a004b3          	neg	s1,a0
     c52:	854a                	mv	a0,s2
     c54:	4f6010ef          	jal	ra,214a <tos_sem_destroy>
     c58:	8522                	mv	a0,s0
     c5a:	2a042423          	sw	zero,680(s0)
     c5e:	3d11                	jal	a72 <tos_at_global_lock_post>
     c60:	b759                	j	be6 <tos_at_cmd_exec+0x1a>

00000c62 <tos_at_cmd_exec_until>:
     c62:	7139                	addi	sp,sp,-64
     c64:	d606                	sw	ra,44(sp)
     c66:	d422                	sw	s0,40(sp)
     c68:	d226                	sw	s1,36(sp)
     c6a:	d04a                	sw	s2,32(sp)
     c6c:	ce4e                	sw	s3,28(sp)
     c6e:	cc52                	sw	s4,24(sp)
     c70:	d83a                	sw	a4,48(sp)
     c72:	da3e                	sw	a5,52(sp)
     c74:	dc42                	sw	a6,56(sp)
     c76:	de46                	sw	a7,60(sp)
     c78:	e999                	bnez	a1,c8e <tos_at_cmd_exec_until+0x2c>
     c7a:	547d                	li	s0,-1
     c7c:	8522                	mv	a0,s0
     c7e:	50b2                	lw	ra,44(sp)
     c80:	5422                	lw	s0,40(sp)
     c82:	5492                	lw	s1,36(sp)
     c84:	5902                	lw	s2,32(sp)
     c86:	49f2                	lw	s3,28(sp)
     c88:	4a62                	lw	s4,24(sp)
     c8a:	6121                	addi	sp,sp,64
     c8c:	8082                	ret
     c8e:	459c                	lw	a5,8(a1)
     c90:	d7ed                	beqz	a5,c7a <tos_at_cmd_exec_until+0x18>
     c92:	84aa                	mv	s1,a0
     c94:	8a36                	mv	s4,a3
     c96:	89b2                	mv	s3,a2
     c98:	842e                	mv	s0,a1
     c9a:	3b7d                	jal	a58 <tos_at_global_lock_pend>
     c9c:	fd79                	bnez	a0,c7a <tos_at_cmd_exec_until+0x18>
     c9e:	01c40913          	addi	s2,s0,28
     ca2:	4581                	li	a1,0
     ca4:	854a                	mv	a0,s2
     ca6:	49e010ef          	jal	ra,2144 <tos_sem_create>
     caa:	c501                	beqz	a0,cb2 <tos_at_cmd_exec_until+0x50>
     cac:	8526                	mv	a0,s1
     cae:	33d1                	jal	a72 <tos_at_global_lock_post>
     cb0:	b7e9                	j	c7a <tos_at_cmd_exec_until+0x18>
     cb2:	4785                	li	a5,1
     cb4:	cc1c                	sw	a5,24(s0)
     cb6:	00042623          	sw	zero,12(s0)
     cba:	00042823          	sw	zero,16(s0)
     cbe:	00042a23          	sw	zero,20(s0)
     cc2:	1810                	addi	a2,sp,48
     cc4:	2a84a423          	sw	s0,680(s1)
     cc8:	85d2                	mv	a1,s4
     cca:	8526                	mv	a0,s1
     ccc:	c632                	sw	a2,12(sp)
     cce:	3325                	jal	9f6 <at_cmd_do_exec>
     cd0:	c501                	beqz	a0,cd8 <tos_at_cmd_exec_until+0x76>
     cd2:	2a04a423          	sw	zero,680(s1)
     cd6:	bfd9                	j	cac <tos_at_cmd_exec_until+0x4a>
     cd8:	854e                	mv	a0,s3
     cda:	5ef010ef          	jal	ra,2ac8 <tos_millisec2tick>
     cde:	862e                	mv	a2,a1
     ce0:	85aa                	mv	a1,a0
     ce2:	854a                	mv	a0,s2
     ce4:	4c0010ef          	jal	ra,21a4 <tos_sem_pend>
     ce8:	00a03533          	snez	a0,a0
     cec:	40a00433          	neg	s0,a0
     cf0:	854a                	mv	a0,s2
     cf2:	458010ef          	jal	ra,214a <tos_sem_destroy>
     cf6:	8526                	mv	a0,s1
     cf8:	2a04a423          	sw	zero,680(s1)
     cfc:	3b9d                	jal	a72 <tos_at_global_lock_post>
     cfe:	bfbd                	j	c7c <tos_at_cmd_exec_until+0x1a>

00000d00 <tos_at_init>:
     d00:	7139                	addi	sp,sp,-64
     d02:	d05a                	sw	s6,32(sp)
     d04:	ce5e                	sw	s7,28(sp)
     d06:	8b2e                	mv	s6,a1
     d08:	8bb2                	mv	s7,a2
     d0a:	4581                	li	a1,0
     d0c:	3c000613          	li	a2,960
     d10:	dc22                	sw	s0,56(sp)
     d12:	da26                	sw	s1,52(sp)
     d14:	842a                	mv	s0,a0
     d16:	d84a                	sw	s2,48(sp)
     d18:	d64e                	sw	s3,44(sp)
     d1a:	cc62                	sw	s8,24(sp)
     d1c:	c63a                	sw	a4,12(sp)
     d1e:	c43e                	sw	a5,8(sp)
     d20:	de06                	sw	ra,60(sp)
     d22:	d452                	sw	s4,40(sp)
     d24:	d256                	sw	s5,36(sp)
     d26:	ca66                	sw	s9,20(sp)
     d28:	c86a                	sw	s10,16(sp)
     d2a:	8c36                	mv	s8,a3
     d2c:	e14ff0ef          	jal	ra,340 <memset>
     d30:	47a2                	lw	a5,8(sp)
     d32:	4732                	lw	a4,12(sp)
     d34:	2a040493          	addi	s1,s0,672
     d38:	2af42223          	sw	a5,676(s0)
     d3c:	2ae42023          	sw	a4,672(s0)
     d40:	87a2                	mv	a5,s0
     d42:	4985                	li	s3,1
     d44:	4905                	li	s2,1
     d46:	853e                	mv	a0,a5
     d48:	07000613          	li	a2,112
     d4c:	4581                	li	a1,0
     d4e:	df2ff0ef          	jal	ra,340 <memset>
     d52:	01350023          	sb	s3,0(a0)
     d56:	05252a23          	sw	s2,84(a0)
     d5a:	07050793          	addi	a5,a0,112
     d5e:	fe9794e3          	bne	a5,s1,d46 <tos_at_init+0x46>
     d62:	6485                	lui	s1,0x1
     d64:	c0048513          	addi	a0,s1,-1024 # c00 <tos_at_cmd_exec+0x34>
     d68:	23b000ef          	jal	ra,17a2 <tos_mmheap_alloc>
     d6c:	85aa                	mv	a1,a0
     d6e:	597d                	li	s2,-1
     d70:	c531                	beqz	a0,dbc <tos_at_init+0xbc>
     d72:	3a040993          	addi	s3,s0,928
     d76:	3aa42e23          	sw	a0,956(s0)
     d7a:	c0048613          	addi	a2,s1,-1024
     d7e:	854e                	mv	a0,s3
     d80:	2a11                	jal	e94 <tos_chr_fifo_create>
     d82:	20000513          	li	a0,512
     d86:	21d000ef          	jal	ra,17a2 <tos_mmheap_alloc>
     d8a:	c105                	beqz	a0,daa <tos_at_init+0xaa>
     d8c:	36a42223          	sw	a0,868(s0)
     d90:	80048513          	addi	a0,s1,-2048
     d94:	20f000ef          	jal	ra,17a2 <tos_mmheap_alloc>
     d98:	e129                	bnez	a0,dda <tos_at_init+0xda>
     d9a:	32042c23          	sw	zero,824(s0)
     d9e:	36442503          	lw	a0,868(s0)
     da2:	22b000ef          	jal	ra,17cc <tos_mmheap_free>
     da6:	36042223          	sw	zero,868(s0)
     daa:	3bc42503          	lw	a0,956(s0)
     dae:	597d                	li	s2,-1
     db0:	21d000ef          	jal	ra,17cc <tos_mmheap_free>
     db4:	854e                	mv	a0,s3
     db6:	3a042e23          	sw	zero,956(s0)
     dba:	2221                	jal	ec2 <tos_chr_fifo_destroy>
     dbc:	50f2                	lw	ra,60(sp)
     dbe:	5462                	lw	s0,56(sp)
     dc0:	854a                	mv	a0,s2
     dc2:	54d2                	lw	s1,52(sp)
     dc4:	5942                	lw	s2,48(sp)
     dc6:	59b2                	lw	s3,44(sp)
     dc8:	5a22                	lw	s4,40(sp)
     dca:	5a92                	lw	s5,36(sp)
     dcc:	5b02                	lw	s6,32(sp)
     dce:	4bf2                	lw	s7,28(sp)
     dd0:	4c62                	lw	s8,24(sp)
     dd2:	4cd2                	lw	s9,20(sp)
     dd4:	4d42                	lw	s10,16(sp)
     dd6:	6121                	addi	sp,sp,64
     dd8:	8082                	ret
     dda:	80048493          	addi	s1,s1,-2048
     dde:	39040a13          	addi	s4,s0,912
     de2:	32a42c23          	sw	a0,824(s0)
     de6:	32942e23          	sw	s1,828(s0)
     dea:	34042023          	sw	zero,832(s0)
     dee:	4581                	li	a1,0
     df0:	8552                	mv	a0,s4
     df2:	352010ef          	jal	ra,2144 <tos_sem_create>
     df6:	e125                	bnez	a0,e56 <tos_at_init+0x156>
     df8:	37040a93          	addi	s5,s0,880
     dfc:	8556                	mv	a0,s5
     dfe:	345000ef          	jal	ra,1942 <tos_mutex_create>
     e02:	e539                	bnez	a0,e50 <tos_at_init+0x150>
     e04:	34440c93          	addi	s9,s0,836
     e08:	8566                	mv	a0,s9
     e0a:	339000ef          	jal	ra,1942 <tos_mutex_create>
     e0e:	ed15                	bnez	a0,e4a <tos_at_init+0x14a>
     e10:	36840d13          	addi	s10,s0,872
     e14:	85e2                	mv	a1,s8
     e16:	856a                	mv	a0,s10
     e18:	eeeff0ef          	jal	ra,506 <tos_hal_uart_init>
     e1c:	892a                	mv	s2,a0
     e1e:	e11d                	bnez	a0,e44 <tos_at_init+0x144>
     e20:	00001637          	lui	a2,0x1
     e24:	4881                	li	a7,0
     e26:	8826                	mv	a6,s1
     e28:	87de                	mv	a5,s7
     e2a:	4709                	li	a4,2
     e2c:	86a2                	mv	a3,s0
     e2e:	81a60613          	addi	a2,a2,-2022 # 81a <at_parser>
     e32:	85da                	mv	a1,s6
     e34:	2b040513          	addi	a0,s0,688
     e38:	734010ef          	jal	ra,256c <tos_task_create>
     e3c:	d141                	beqz	a0,dbc <tos_at_init+0xbc>
     e3e:	856a                	mv	a0,s10
     e40:	f82ff0ef          	jal	ra,5c2 <tos_hal_uart_deinit>
     e44:	8566                	mv	a0,s9
     e46:	341000ef          	jal	ra,1986 <tos_mutex_destroy>
     e4a:	8556                	mv	a0,s5
     e4c:	33b000ef          	jal	ra,1986 <tos_mutex_destroy>
     e50:	8552                	mv	a0,s4
     e52:	2f8010ef          	jal	ra,214a <tos_sem_destroy>
     e56:	33842503          	lw	a0,824(s0)
     e5a:	c119                	beqz	a0,e60 <tos_at_init+0x160>
     e5c:	171000ef          	jal	ra,17cc <tos_mmheap_free>
     e60:	32042c23          	sw	zero,824(s0)
     e64:	32042e23          	sw	zero,828(s0)
     e68:	34042023          	sw	zero,832(s0)
     e6c:	bf0d                	j	d9e <tos_at_init+0x9e>

00000e6e <tos_at_uart_input_byte>:
     e6e:	1141                	addi	sp,sp,-16
     e70:	c422                	sw	s0,8(sp)
     e72:	842a                	mv	s0,a0
     e74:	3a050513          	addi	a0,a0,928
     e78:	c606                	sw	ra,12(sp)
     e7a:	28ad                	jal	ef4 <tos_chr_fifo_push>
     e7c:	e901                	bnez	a0,e8c <tos_at_uart_input_byte+0x1e>
     e7e:	39040513          	addi	a0,s0,912
     e82:	4422                	lw	s0,8(sp)
     e84:	40b2                	lw	ra,12(sp)
     e86:	0141                	addi	sp,sp,16
     e88:	3180106f          	j	21a0 <tos_sem_post>
     e8c:	40b2                	lw	ra,12(sp)
     e8e:	4422                	lw	s0,8(sp)
     e90:	0141                	addi	sp,sp,16
     e92:	8082                	ret

00000e94 <tos_chr_fifo_create>:
     e94:	c505                	beqz	a0,ebc <tos_chr_fifo_create+0x28>
     e96:	1141                	addi	sp,sp,-16
     e98:	c422                	sw	s0,8(sp)
     e9a:	c606                	sw	ra,12(sp)
     e9c:	842a                	mv	s0,a0
     e9e:	44c00513          	li	a0,1100
     ea2:	c989                	beqz	a1,eb4 <tos_chr_fifo_create+0x20>
     ea4:	4685                	li	a3,1
     ea6:	00440513          	addi	a0,s0,4
     eaa:	6b1000ef          	jal	ra,1d5a <tos_ring_q_create>
     eae:	e119                	bnez	a0,eb4 <tos_chr_fifo_create+0x20>
     eb0:	4785                	li	a5,1
     eb2:	c01c                	sw	a5,0(s0)
     eb4:	40b2                	lw	ra,12(sp)
     eb6:	4422                	lw	s0,8(sp)
     eb8:	0141                	addi	sp,sp,16
     eba:	8082                	ret
     ebc:	44c00513          	li	a0,1100
     ec0:	8082                	ret

00000ec2 <tos_chr_fifo_destroy>:
     ec2:	c515                	beqz	a0,eee <tos_chr_fifo_destroy+0x2c>
     ec4:	4114                	lw	a3,0(a0)
     ec6:	1141                	addi	sp,sp,-16
     ec8:	c422                	sw	s0,8(sp)
     eca:	c606                	sw	ra,12(sp)
     ecc:	4705                	li	a4,1
     ece:	842a                	mv	s0,a0
     ed0:	44e00513          	li	a0,1102
     ed4:	00e69963          	bne	a3,a4,ee6 <tos_chr_fifo_destroy+0x24>
     ed8:	00440513          	addi	a0,s0,4
     edc:	6a1000ef          	jal	ra,1d7c <tos_ring_q_destroy>
     ee0:	e119                	bnez	a0,ee6 <tos_chr_fifo_destroy+0x24>
     ee2:	00042023          	sw	zero,0(s0)
     ee6:	40b2                	lw	ra,12(sp)
     ee8:	4422                	lw	s0,8(sp)
     eea:	0141                	addi	sp,sp,16
     eec:	8082                	ret
     eee:	44c00513          	li	a0,1100
     ef2:	8082                	ret

00000ef4 <tos_chr_fifo_push>:
     ef4:	1101                	addi	sp,sp,-32
     ef6:	ce06                	sw	ra,28(sp)
     ef8:	00b107a3          	sb	a1,15(sp)
     efc:	c911                	beqz	a0,f10 <tos_chr_fifo_push+0x1c>
     efe:	4605                	li	a2,1
     f00:	00f10593          	addi	a1,sp,15
     f04:	0511                	addi	a0,a0,4
     f06:	777000ef          	jal	ra,1e7c <tos_ring_q_enqueue>
     f0a:	40f2                	lw	ra,28(sp)
     f0c:	6105                	addi	sp,sp,32
     f0e:	8082                	ret
     f10:	44c00513          	li	a0,1100
     f14:	bfdd                	j	f0a <tos_chr_fifo_push+0x16>

00000f16 <tos_chr_fifo_push_stream>:
     f16:	1101                	addi	sp,sp,-32
     f18:	cc22                	sw	s0,24(sp)
     f1a:	ce06                	sw	ra,28(sp)
     f1c:	ca26                	sw	s1,20(sp)
     f1e:	c84a                	sw	s2,16(sp)
     f20:	c64e                	sw	s3,12(sp)
     f22:	c452                	sw	s4,8(sp)
     f24:	4401                	li	s0,0
     f26:	c50d                	beqz	a0,f50 <tos_chr_fifo_push_stream+0x3a>
     f28:	84aa                	mv	s1,a0
     f2a:	8932                	mv	s2,a2
     f2c:	89ae                	mv	s3,a1
     f2e:	305020ef          	jal	ra,3a32 <tos_cpu_cpsr_save>
     f32:	8a2a                	mv	s4,a0
     f34:	4401                	li	s0,0
     f36:	0491                	addi	s1,s1,4
     f38:	00890963          	beq	s2,s0,f4a <tos_chr_fifo_push_stream+0x34>
     f3c:	4605                	li	a2,1
     f3e:	008985b3          	add	a1,s3,s0
     f42:	8526                	mv	a0,s1
     f44:	739000ef          	jal	ra,1e7c <tos_ring_q_enqueue>
     f48:	cd09                	beqz	a0,f62 <tos_chr_fifo_push_stream+0x4c>
     f4a:	8552                	mv	a0,s4
     f4c:	2eb020ef          	jal	ra,3a36 <tos_cpu_cpsr_restore>
     f50:	8522                	mv	a0,s0
     f52:	40f2                	lw	ra,28(sp)
     f54:	4462                	lw	s0,24(sp)
     f56:	44d2                	lw	s1,20(sp)
     f58:	4942                	lw	s2,16(sp)
     f5a:	49b2                	lw	s3,12(sp)
     f5c:	4a22                	lw	s4,8(sp)
     f5e:	6105                	addi	sp,sp,32
     f60:	8082                	ret
     f62:	0405                	addi	s0,s0,1
     f64:	bfd1                	j	f38 <tos_chr_fifo_push_stream+0x22>

00000f66 <tos_chr_fifo_pop>:
     f66:	c509                	beqz	a0,f70 <tos_chr_fifo_pop+0xa>
     f68:	4601                	li	a2,0
     f6a:	0511                	addi	a0,a0,4
     f6c:	6670006f          	j	1dd2 <tos_ring_q_dequeue>
     f70:	44c00513          	li	a0,1100
     f74:	8082                	ret

00000f76 <tos_chr_fifo_pop_stream>:
     f76:	7179                	addi	sp,sp,-48
     f78:	d04a                	sw	s2,32(sp)
     f7a:	d606                	sw	ra,44(sp)
     f7c:	d422                	sw	s0,40(sp)
     f7e:	d226                	sw	s1,36(sp)
     f80:	ce4e                	sw	s3,28(sp)
     f82:	cc52                	sw	s4,24(sp)
     f84:	ca56                	sw	s5,20(sp)
     f86:	4901                	li	s2,0
     f88:	c515                	beqz	a0,fb4 <tos_chr_fifo_pop_stream+0x3e>
     f8a:	842a                	mv	s0,a0
     f8c:	89b2                	mv	s3,a2
     f8e:	8a2e                	mv	s4,a1
     f90:	2a3020ef          	jal	ra,3a32 <tos_cpu_cpsr_save>
     f94:	8aaa                	mv	s5,a0
     f96:	4481                	li	s1,0
     f98:	0411                	addi	s0,s0,4
     f9a:	8926                	mv	s2,s1
     f9c:	01348963          	beq	s1,s3,fae <tos_chr_fifo_pop_stream+0x38>
     fa0:	4601                	li	a2,0
     fa2:	00f10593          	addi	a1,sp,15
     fa6:	8522                	mv	a0,s0
     fa8:	62b000ef          	jal	ra,1dd2 <tos_ring_q_dequeue>
     fac:	cd11                	beqz	a0,fc8 <tos_chr_fifo_pop_stream+0x52>
     fae:	8556                	mv	a0,s5
     fb0:	287020ef          	jal	ra,3a36 <tos_cpu_cpsr_restore>
     fb4:	50b2                	lw	ra,44(sp)
     fb6:	5422                	lw	s0,40(sp)
     fb8:	854a                	mv	a0,s2
     fba:	5492                	lw	s1,36(sp)
     fbc:	5902                	lw	s2,32(sp)
     fbe:	49f2                	lw	s3,28(sp)
     fc0:	4a62                	lw	s4,24(sp)
     fc2:	4ad2                	lw	s5,20(sp)
     fc4:	6145                	addi	sp,sp,48
     fc6:	8082                	ret
     fc8:	00f14703          	lbu	a4,15(sp)
     fcc:	009a07b3          	add	a5,s4,s1
     fd0:	0485                	addi	s1,s1,1
     fd2:	00e78023          	sb	a4,0(a5)
     fd6:	b7d1                	j	f9a <tos_chr_fifo_pop_stream+0x24>

00000fd8 <event_do_post>:
     fd8:	cd51                	beqz	a0,1074 <event_do_post+0x9c>
     fda:	1101                	addi	sp,sp,-32
     fdc:	ca26                	sw	s1,20(sp)
     fde:	ce06                	sw	ra,28(sp)
     fe0:	cc22                	sw	s0,24(sp)
     fe2:	c84a                	sw	s2,16(sp)
     fe4:	c64e                	sw	s3,12(sp)
     fe6:	c452                	sw	s4,8(sp)
     fe8:	84aa                	mv	s1,a0
     fea:	e219                	bnez	a2,ff0 <event_do_post+0x18>
     fec:	455c                	lw	a5,12(a0)
     fee:	8ddd                	or	a1,a1,a5
     ff0:	c4cc                	sw	a1,12(s1)
     ff2:	241020ef          	jal	ra,3a32 <tos_cpu_cpsr_save>
     ff6:	40dc                	lw	a5,4(s1)
     ff8:	89aa                	mv	s3,a0
     ffa:	00448a13          	addi	s4,s1,4
     ffe:	0007a903          	lw	s2,0(a5)
    1002:	fb078413          	addi	s0,a5,-80
    1006:	fb090913          	addi	s2,s2,-80
    100a:	05040793          	addi	a5,s0,80
    100e:	03478963          	beq	a5,s4,1040 <event_do_post+0x68>
    1012:	07845683          	lhu	a3,120(s0)
    1016:	44dc                	lw	a5,12(s1)
    1018:	5c78                	lw	a4,124(s0)
    101a:	0026f593          	andi	a1,a3,2
    101e:	08042603          	lw	a2,128(s0)
    1022:	cd8d                	beqz	a1,105c <event_do_post+0x84>
    1024:	8ff9                	and	a5,a5,a4
    1026:	04f71163          	bne	a4,a5,1068 <event_do_post+0x90>
    102a:	c218                	sw	a4,0(a2)
    102c:	4585                	li	a1,1
    102e:	8522                	mv	a0,s0
    1030:	461000ef          	jal	ra,1c90 <pend_task_wakeup>
    1034:	07845783          	lhu	a5,120(s0)
    1038:	8b91                	andi	a5,a5,4
    103a:	c79d                	beqz	a5,1068 <event_do_post+0x90>
    103c:	0004a623          	sw	zero,12(s1)
    1040:	854e                	mv	a0,s3
    1042:	1f5020ef          	jal	ra,3a36 <tos_cpu_cpsr_restore>
    1046:	342010ef          	jal	ra,2388 <knl_sched>
    104a:	40f2                	lw	ra,28(sp)
    104c:	4462                	lw	s0,24(sp)
    104e:	44d2                	lw	s1,20(sp)
    1050:	4942                	lw	s2,16(sp)
    1052:	49b2                	lw	s3,12(sp)
    1054:	4a22                	lw	s4,8(sp)
    1056:	4501                	li	a0,0
    1058:	6105                	addi	sp,sp,32
    105a:	8082                	ret
    105c:	8a85                	andi	a3,a3,1
    105e:	c689                	beqz	a3,1068 <event_do_post+0x90>
    1060:	8ff9                	and	a5,a5,a4
    1062:	c399                	beqz	a5,1068 <event_do_post+0x90>
    1064:	c21c                	sw	a5,0(a2)
    1066:	b7d9                	j	102c <event_do_post+0x54>
    1068:	05092783          	lw	a5,80(s2)
    106c:	844a                	mv	s0,s2
    106e:	fb078913          	addi	s2,a5,-80
    1072:	bf61                	j	100a <event_do_post+0x32>
    1074:	44c00513          	li	a0,1100
    1078:	8082                	ret

0000107a <tos_event_create>:
    107a:	c105                	beqz	a0,109a <tos_event_create+0x20>
    107c:	1141                	addi	sp,sp,-16
    107e:	c422                	sw	s0,8(sp)
    1080:	c606                	sw	ra,12(sp)
    1082:	842a                	mv	s0,a0
    1084:	c54c                	sw	a1,12(a0)
    1086:	0511                	addi	a0,a0,4
    1088:	3b5000ef          	jal	ra,1c3c <pend_object_init>
    108c:	4785                	li	a5,1
    108e:	c01c                	sw	a5,0(s0)
    1090:	40b2                	lw	ra,12(sp)
    1092:	4422                	lw	s0,8(sp)
    1094:	4501                	li	a0,0
    1096:	0141                	addi	sp,sp,16
    1098:	8082                	ret
    109a:	44c00513          	li	a0,1100
    109e:	8082                	ret

000010a0 <tos_event_pend>:
    10a0:	7179                	addi	sp,sp,-48
    10a2:	d422                	sw	s0,40(sp)
    10a4:	d226                	sw	s1,36(sp)
    10a6:	ce4e                	sw	s3,28(sp)
    10a8:	cc52                	sw	s4,24(sp)
    10aa:	c85a                	sw	s6,16(sp)
    10ac:	c65e                	sw	s7,12(sp)
    10ae:	d606                	sw	ra,44(sp)
    10b0:	d04a                	sw	s2,32(sp)
    10b2:	ca56                	sw	s5,20(sp)
    10b4:	89aa                	mv	s3,a0
    10b6:	84ae                	mv	s1,a1
    10b8:	8a32                	mv	s4,a2
    10ba:	8bb6                	mv	s7,a3
    10bc:	8b3a                	mv	s6,a4
    10be:	843e                	mv	s0,a5
    10c0:	360010ef          	jal	ra,2420 <knl_is_inirq>
    10c4:	0c051d63          	bnez	a0,119e <tos_event_pend+0xfe>
    10c8:	0c098e63          	beqz	s3,11a4 <tos_event_pend+0x104>
    10cc:	0c0a0c63          	beqz	s4,11a4 <tos_event_pend+0x104>
    10d0:	00347793          	andi	a5,s0,3
    10d4:	cbf9                	beqz	a5,11aa <tos_event_pend+0x10a>
    10d6:	470d                	li	a4,3
    10d8:	0ce78963          	beq	a5,a4,11aa <tos_event_pend+0x10a>
    10dc:	157020ef          	jal	ra,3a32 <tos_cpu_cpsr_save>
    10e0:	00247713          	andi	a4,s0,2
    10e4:	892a                	mv	s2,a0
    10e6:	00c9a783          	lw	a5,12(s3)
    10ea:	cb0d                	beqz	a4,111c <tos_event_pend+0x7c>
    10ec:	8fe5                	and	a5,a5,s1
    10ee:	02f49f63          	bne	s1,a5,112c <tos_event_pend+0x8c>
    10f2:	009a2023          	sw	s1,0(s4)
    10f6:	8811                	andi	s0,s0,4
    10f8:	c019                	beqz	s0,10fe <tos_event_pend+0x5e>
    10fa:	0009a623          	sw	zero,12(s3)
    10fe:	854a                	mv	a0,s2
    1100:	137020ef          	jal	ra,3a36 <tos_cpu_cpsr_restore>
    1104:	4501                	li	a0,0
    1106:	50b2                	lw	ra,44(sp)
    1108:	5422                	lw	s0,40(sp)
    110a:	5492                	lw	s1,36(sp)
    110c:	5902                	lw	s2,32(sp)
    110e:	49f2                	lw	s3,28(sp)
    1110:	4a62                	lw	s4,24(sp)
    1112:	4ad2                	lw	s5,20(sp)
    1114:	4b42                	lw	s6,16(sp)
    1116:	4bb2                	lw	s7,12(sp)
    1118:	6145                	addi	sp,sp,48
    111a:	8082                	ret
    111c:	00147713          	andi	a4,s0,1
    1120:	c711                	beqz	a4,112c <tos_event_pend+0x8c>
    1122:	8fe5                	and	a5,a5,s1
    1124:	c781                	beqz	a5,112c <tos_event_pend+0x8c>
    1126:	00fa2023          	sw	a5,0(s4)
    112a:	b7f1                	j	10f6 <tos_event_pend+0x56>
    112c:	016be7b3          	or	a5,s7,s6
    1130:	e799                	bnez	a5,113e <tos_event_pend+0x9e>
    1132:	854a                	mv	a0,s2
    1134:	103020ef          	jal	ra,3a36 <tos_cpu_cpsr_restore>
    1138:	4b000513          	li	a0,1200
    113c:	b7e9                	j	1106 <tos_event_pend+0x66>
    113e:	2d8010ef          	jal	ra,2416 <knl_is_sched_locked>
    1142:	c519                	beqz	a0,1150 <tos_event_pend+0xb0>
    1144:	854a                	mv	a0,s2
    1146:	0f1020ef          	jal	ra,3a36 <tos_cpu_cpsr_restore>
    114a:	4b100513          	li	a0,1201
    114e:	bf65                	j	1106 <tos_event_pend+0x66>
    1150:	8481a503          	lw	a0,-1976(gp) # 20000298 <k_curr_task>
    1154:	865e                	mv	a2,s7
    1156:	86da                	mv	a3,s6
    1158:	00498593          	addi	a1,s3,4
    115c:	dd64                	sw	s1,124(a0)
    115e:	09452023          	sw	s4,128(a0)
    1162:	06851c23          	sh	s0,120(a0)
    1166:	367000ef          	jal	ra,1ccc <pend_task_block>
    116a:	854a                	mv	a0,s2
    116c:	0cb020ef          	jal	ra,3a36 <tos_cpu_cpsr_restore>
    1170:	218010ef          	jal	ra,2388 <knl_sched>
    1174:	8481a783          	lw	a5,-1976(gp) # 20000298 <k_curr_task>
    1178:	5422                	lw	s0,40(sp)
    117a:	50b2                	lw	ra,44(sp)
    117c:	5492                	lw	s1,36(sp)
    117e:	5902                	lw	s2,32(sp)
    1180:	49f2                	lw	s3,28(sp)
    1182:	4a62                	lw	s4,24(sp)
    1184:	4ad2                	lw	s5,20(sp)
    1186:	4b42                	lw	s6,16(sp)
    1188:	4bb2                	lw	s7,12(sp)
    118a:	57a8                	lw	a0,104(a5)
    118c:	0607ae23          	sw	zero,124(a5)
    1190:	0807a023          	sw	zero,128(a5)
    1194:	06079c23          	sh	zero,120(a5)
    1198:	6145                	addi	sp,sp,48
    119a:	2c70006f          	j	1c60 <pend_state2errno>
    119e:	19000513          	li	a0,400
    11a2:	b795                	j	1106 <tos_event_pend+0x66>
    11a4:	44c00513          	li	a0,1100
    11a8:	bfb9                	j	1106 <tos_event_pend+0x66>
    11aa:	0c800513          	li	a0,200
    11ae:	bfa1                	j	1106 <tos_event_pend+0x66>

000011b0 <tos_event_post>:
    11b0:	4605                	li	a2,1
    11b2:	b51d                	j	fd8 <event_do_post>

000011b4 <mail_q_do_post>:
    11b4:	1101                	addi	sp,sp,-32
    11b6:	ca26                	sw	s1,20(sp)
    11b8:	ce06                	sw	ra,28(sp)
    11ba:	cc22                	sw	s0,24(sp)
    11bc:	c84a                	sw	s2,16(sp)
    11be:	c64e                	sw	s3,12(sp)
    11c0:	c452                	sw	s4,8(sp)
    11c2:	c256                	sw	s5,4(sp)
    11c4:	c05a                	sw	s6,0(sp)
    11c6:	44c00493          	li	s1,1100
    11ca:	c90d                	beqz	a0,11fc <mail_q_do_post+0x48>
    11cc:	c985                	beqz	a1,11fc <mail_q_do_post+0x48>
    11ce:	84aa                	mv	s1,a0
    11d0:	8ab6                	mv	s5,a3
    11d2:	8432                	mv	s0,a2
    11d4:	892e                	mv	s2,a1
    11d6:	00448b13          	addi	s6,s1,4
    11da:	059020ef          	jal	ra,3a32 <tos_cpu_cpsr_save>
    11de:	8a2a                	mv	s4,a0
    11e0:	855a                	mv	a0,s6
    11e2:	267000ef          	jal	ra,1c48 <pend_is_nopending>
    11e6:	c515                	beqz	a0,1212 <mail_q_do_post+0x5e>
    11e8:	00c48513          	addi	a0,s1,12
    11ec:	8622                	mv	a2,s0
    11ee:	85ca                	mv	a1,s2
    11f0:	48d000ef          	jal	ra,1e7c <tos_ring_q_enqueue>
    11f4:	84aa                	mv	s1,a0
    11f6:	8552                	mv	a0,s4
    11f8:	03f020ef          	jal	ra,3a36 <tos_cpu_cpsr_restore>
    11fc:	40f2                	lw	ra,28(sp)
    11fe:	4462                	lw	s0,24(sp)
    1200:	8526                	mv	a0,s1
    1202:	4942                	lw	s2,16(sp)
    1204:	44d2                	lw	s1,20(sp)
    1206:	49b2                	lw	s3,12(sp)
    1208:	4a22                	lw	s4,8(sp)
    120a:	4a92                	lw	s5,4(sp)
    120c:	4b02                	lw	s6,0(sp)
    120e:	6105                	addi	sp,sp,32
    1210:	8082                	ret
    1212:	0044a983          	lw	s3,4(s1)
    1216:	fb098493          	addi	s1,s3,-80
    121a:	020a9563          	bnez	s5,1244 <mail_q_do_post+0x90>
    121e:	0209a503          	lw	a0,32(s3)
    1222:	85ca                	mv	a1,s2
    1224:	8622                	mv	a2,s0
    1226:	123060ef          	jal	ra,7b48 <memcpy>
    122a:	4585                	li	a1,1
    122c:	0289a223          	sw	s0,36(s3)
    1230:	8526                	mv	a0,s1
    1232:	25f000ef          	jal	ra,1c90 <pend_task_wakeup>
    1236:	8552                	mv	a0,s4
    1238:	7fe020ef          	jal	ra,3a36 <tos_cpu_cpsr_restore>
    123c:	4481                	li	s1,0
    123e:	14a010ef          	jal	ra,2388 <knl_sched>
    1242:	bf6d                	j	11fc <mail_q_do_post+0x48>
    1244:	0009a983          	lw	s3,0(s3)
    1248:	fb098993          	addi	s3,s3,-80
    124c:	05048793          	addi	a5,s1,80
    1250:	fefb03e3          	beq	s6,a5,1236 <mail_q_do_post+0x82>
    1254:	58a8                	lw	a0,112(s1)
    1256:	8622                	mv	a2,s0
    1258:	85ca                	mv	a1,s2
    125a:	0ef060ef          	jal	ra,7b48 <memcpy>
    125e:	8526                	mv	a0,s1
    1260:	d8e0                	sw	s0,116(s1)
    1262:	4585                	li	a1,1
    1264:	22d000ef          	jal	ra,1c90 <pend_task_wakeup>
    1268:	0509a783          	lw	a5,80(s3)
    126c:	84ce                	mv	s1,s3
    126e:	fb078993          	addi	s3,a5,-80
    1272:	bfe9                	j	124c <mail_q_do_post+0x98>

00001274 <tos_mail_q_create>:
    1274:	1141                	addi	sp,sp,-16
    1276:	c226                	sw	s1,4(sp)
    1278:	c606                	sw	ra,12(sp)
    127a:	c422                	sw	s0,8(sp)
    127c:	44c00493          	li	s1,1100
    1280:	cd09                	beqz	a0,129a <tos_mail_q_create+0x26>
    1282:	842a                	mv	s0,a0
    1284:	0531                	addi	a0,a0,12
    1286:	2d5000ef          	jal	ra,1d5a <tos_ring_q_create>
    128a:	84aa                	mv	s1,a0
    128c:	e519                	bnez	a0,129a <tos_mail_q_create+0x26>
    128e:	00440513          	addi	a0,s0,4
    1292:	1ab000ef          	jal	ra,1c3c <pend_object_init>
    1296:	4785                	li	a5,1
    1298:	c01c                	sw	a5,0(s0)
    129a:	40b2                	lw	ra,12(sp)
    129c:	4422                	lw	s0,8(sp)
    129e:	8526                	mv	a0,s1
    12a0:	4492                	lw	s1,4(sp)
    12a2:	0141                	addi	sp,sp,16
    12a4:	8082                	ret

000012a6 <tos_mail_q_pend>:
    12a6:	7179                	addi	sp,sp,-48
    12a8:	d422                	sw	s0,40(sp)
    12aa:	d04a                	sw	s2,32(sp)
    12ac:	cc52                	sw	s4,24(sp)
    12ae:	ca56                	sw	s5,20(sp)
    12b0:	c85a                	sw	s6,16(sp)
    12b2:	c65e                	sw	s7,12(sp)
    12b4:	d606                	sw	ra,44(sp)
    12b6:	d226                	sw	s1,36(sp)
    12b8:	ce4e                	sw	s3,28(sp)
    12ba:	8a2a                	mv	s4,a0
    12bc:	8aae                	mv	s5,a1
    12be:	8932                	mv	s2,a2
    12c0:	8bb6                	mv	s7,a3
    12c2:	8b3a                	mv	s6,a4
    12c4:	15c010ef          	jal	ra,2420 <knl_is_inirq>
    12c8:	19000413          	li	s0,400
    12cc:	e50d                	bnez	a0,12f6 <tos_mail_q_pend+0x50>
    12ce:	44c00413          	li	s0,1100
    12d2:	020a0263          	beqz	s4,12f6 <tos_mail_q_pend+0x50>
    12d6:	020a8063          	beqz	s5,12f6 <tos_mail_q_pend+0x50>
    12da:	758020ef          	jal	ra,3a32 <tos_cpu_cpsr_save>
    12de:	84aa                	mv	s1,a0
    12e0:	864a                	mv	a2,s2
    12e2:	85d6                	mv	a1,s5
    12e4:	00ca0513          	addi	a0,s4,12
    12e8:	2eb000ef          	jal	ra,1dd2 <tos_ring_q_dequeue>
    12ec:	842a                	mv	s0,a0
    12ee:	e105                	bnez	a0,130e <tos_mail_q_pend+0x68>
    12f0:	8526                	mv	a0,s1
    12f2:	744020ef          	jal	ra,3a36 <tos_cpu_cpsr_restore>
    12f6:	8522                	mv	a0,s0
    12f8:	50b2                	lw	ra,44(sp)
    12fa:	5422                	lw	s0,40(sp)
    12fc:	5492                	lw	s1,36(sp)
    12fe:	5902                	lw	s2,32(sp)
    1300:	49f2                	lw	s3,28(sp)
    1302:	4a62                	lw	s4,24(sp)
    1304:	4ad2                	lw	s5,20(sp)
    1306:	4b42                	lw	s6,16(sp)
    1308:	4bb2                	lw	s7,12(sp)
    130a:	6145                	addi	sp,sp,48
    130c:	8082                	ret
    130e:	016be7b3          	or	a5,s7,s6
    1312:	eb89                	bnez	a5,1324 <tos_mail_q_pend+0x7e>
    1314:	00092023          	sw	zero,0(s2)
    1318:	8526                	mv	a0,s1
    131a:	71c020ef          	jal	ra,3a36 <tos_cpu_cpsr_restore>
    131e:	4b000413          	li	s0,1200
    1322:	bfd1                	j	12f6 <tos_mail_q_pend+0x50>
    1324:	0f2010ef          	jal	ra,2416 <knl_is_sched_locked>
    1328:	c519                	beqz	a0,1336 <tos_mail_q_pend+0x90>
    132a:	8526                	mv	a0,s1
    132c:	70a020ef          	jal	ra,3a36 <tos_cpu_cpsr_restore>
    1330:	4b100413          	li	s0,1201
    1334:	b7c9                	j	12f6 <tos_mail_q_pend+0x50>
    1336:	8481a503          	lw	a0,-1976(gp) # 20000298 <k_curr_task>
    133a:	865e                	mv	a2,s7
    133c:	86da                	mv	a3,s6
    133e:	004a0593          	addi	a1,s4,4
    1342:	07552823          	sw	s5,112(a0)
    1346:	187000ef          	jal	ra,1ccc <pend_task_block>
    134a:	8526                	mv	a0,s1
    134c:	6ea020ef          	jal	ra,3a36 <tos_cpu_cpsr_restore>
    1350:	038010ef          	jal	ra,2388 <knl_sched>
    1354:	8481a783          	lw	a5,-1976(gp) # 20000298 <k_curr_task>
    1358:	57a8                	lw	a0,104(a5)
    135a:	107000ef          	jal	ra,1c60 <pend_state2errno>
    135e:	842a                	mv	s0,a0
    1360:	f959                	bnez	a0,12f6 <tos_mail_q_pend+0x50>
    1362:	8481a783          	lw	a5,-1976(gp) # 20000298 <k_curr_task>
    1366:	5bf8                	lw	a4,116(a5)
    1368:	00e92023          	sw	a4,0(s2)
    136c:	0607a823          	sw	zero,112(a5)
    1370:	0607aa23          	sw	zero,116(a5)
    1374:	b749                	j	12f6 <tos_mail_q_pend+0x50>

00001376 <tos_mail_q_post>:
    1376:	4681                	li	a3,0
    1378:	bd35                	j	11b4 <mail_q_do_post>

0000137a <tos_mmblk_pool_create>:
    137a:	1101                	addi	sp,sp,-32
    137c:	cc22                	sw	s0,24(sp)
    137e:	ce06                	sw	ra,28(sp)
    1380:	842a                	mv	s0,a0
    1382:	c62e                	sw	a1,12(sp)
    1384:	c432                	sw	a2,8(sp)
    1386:	c236                	sw	a3,4(sp)
    1388:	098010ef          	jal	ra,2420 <knl_is_inirq>
    138c:	ed21                	bnez	a0,13e4 <tos_mmblk_pool_create+0x6a>
    138e:	45b2                	lw	a1,12(sp)
    1390:	44c00513          	li	a0,1100
    1394:	cd9d                	beqz	a1,13d2 <tos_mmblk_pool_create+0x58>
    1396:	0035f793          	andi	a5,a1,3
    139a:	2bf00513          	li	a0,703
    139e:	eb95                	bnez	a5,13d2 <tos_mmblk_pool_create+0x58>
    13a0:	4692                	lw	a3,4(sp)
    13a2:	2be00513          	li	a0,702
    13a6:	0036f793          	andi	a5,a3,3
    13aa:	e785                	bnez	a5,13d2 <tos_mmblk_pool_create+0x58>
    13ac:	4622                	lw	a2,8(sp)
    13ae:	00d587b3          	add	a5,a1,a3
    13b2:	872e                	mv	a4,a1
    13b4:	4501                	li	a0,0
    13b6:	fff60813          	addi	a6,a2,-1
    13ba:	03056063          	bltu	a0,a6,13da <tos_mmblk_pool_create+0x60>
    13be:	00072023          	sw	zero,0(a4)
    13c2:	4785                	li	a5,1
    13c4:	c04c                	sw	a1,4(s0)
    13c6:	c40c                	sw	a1,8(s0)
    13c8:	c850                	sw	a2,20(s0)
    13ca:	c810                	sw	a2,16(s0)
    13cc:	c454                	sw	a3,12(s0)
    13ce:	c01c                	sw	a5,0(s0)
    13d0:	4501                	li	a0,0
    13d2:	40f2                	lw	ra,28(sp)
    13d4:	4462                	lw	s0,24(sp)
    13d6:	6105                	addi	sp,sp,32
    13d8:	8082                	ret
    13da:	c31c                	sw	a5,0(a4)
    13dc:	0505                	addi	a0,a0,1
    13de:	873e                	mv	a4,a5
    13e0:	97b6                	add	a5,a5,a3
    13e2:	bfe1                	j	13ba <tos_mmblk_pool_create+0x40>
    13e4:	19000513          	li	a0,400
    13e8:	b7ed                	j	13d2 <tos_mmblk_pool_create+0x58>

000013ea <tos_mmblk_alloc>:
    13ea:	c121                	beqz	a0,142a <tos_mmblk_alloc+0x40>
    13ec:	1141                	addi	sp,sp,-16
    13ee:	c422                	sw	s0,8(sp)
    13f0:	c226                	sw	s1,4(sp)
    13f2:	842a                	mv	s0,a0
    13f4:	c606                	sw	ra,12(sp)
    13f6:	84ae                	mv	s1,a1
    13f8:	63a020ef          	jal	ra,3a32 <tos_cpu_cpsr_save>
    13fc:	485c                	lw	a5,20(s0)
    13fe:	ef81                	bnez	a5,1416 <tos_mmblk_alloc+0x2c>
    1400:	636020ef          	jal	ra,3a36 <tos_cpu_cpsr_restore>
    1404:	2bd00513          	li	a0,701
    1408:	0004a023          	sw	zero,0(s1)
    140c:	40b2                	lw	ra,12(sp)
    140e:	4422                	lw	s0,8(sp)
    1410:	4492                	lw	s1,4(sp)
    1412:	0141                	addi	sp,sp,16
    1414:	8082                	ret
    1416:	4418                	lw	a4,8(s0)
    1418:	17fd                	addi	a5,a5,-1
    141a:	c098                	sw	a4,0(s1)
    141c:	4318                	lw	a4,0(a4)
    141e:	c85c                	sw	a5,20(s0)
    1420:	c418                	sw	a4,8(s0)
    1422:	614020ef          	jal	ra,3a36 <tos_cpu_cpsr_restore>
    1426:	4501                	li	a0,0
    1428:	b7d5                	j	140c <tos_mmblk_alloc+0x22>
    142a:	44c00513          	li	a0,1100
    142e:	8082                	ret

00001430 <blk_next>:
    1430:	415c                	lw	a5,4(a0)
    1432:	0511                	addi	a0,a0,4
    1434:	9bf1                	andi	a5,a5,-4
    1436:	953e                	add	a0,a0,a5
    1438:	8082                	ret

0000143a <blk_link_next>:
    143a:	1141                	addi	sp,sp,-16
    143c:	c422                	sw	s0,8(sp)
    143e:	c606                	sw	ra,12(sp)
    1440:	842a                	mv	s0,a0
    1442:	37fd                	jal	1430 <blk_next>
    1444:	c100                	sw	s0,0(a0)
    1446:	40b2                	lw	ra,12(sp)
    1448:	4422                	lw	s0,8(sp)
    144a:	0141                	addi	sp,sp,16
    144c:	8082                	ret

0000144e <mmheap_ctl_init>:
    144e:	2000a7b7          	lui	a5,0x2000a
    1452:	2000a6b7          	lui	a3,0x2000a
    1456:	4c078713          	addi	a4,a5,1216 # 2000a4c0 <k_mmheap_ctl>
    145a:	4d068613          	addi	a2,a3,1232 # 2000a4d0 <k_mmheap_ctl+0x10>
    145e:	4c07a023          	sw	zero,1216(a5)
    1462:	00072223          	sw	zero,4(a4)
    1466:	00072423          	sw	zero,8(a4)
    146a:	00072623          	sw	zero,12(a4)
    146e:	cf10                	sw	a2,24(a4)
    1470:	cf50                	sw	a2,28(a4)
    1472:	02072023          	sw	zero,32(a4)
    1476:	06070513          	addi	a0,a4,96
    147a:	4c078793          	addi	a5,a5,1216
    147e:	4d068693          	addi	a3,a3,1232
    1482:	02000813          	li	a6,32
    1486:	02072223          	sw	zero,36(a4)
    148a:	85be                	mv	a1,a5
    148c:	4601                	li	a2,0
    148e:	08d5a223          	sw	a3,132(a1)
    1492:	0605                	addi	a2,a2,1
    1494:	0591                	addi	a1,a1,4
    1496:	ff061ce3          	bne	a2,a6,148e <mmheap_ctl_init+0x40>
    149a:	0711                	addi	a4,a4,4
    149c:	08078793          	addi	a5,a5,128
    14a0:	fea713e3          	bne	a4,a0,1486 <mmheap_ctl_init+0x38>
    14a4:	8082                	ret

000014a6 <generic_fls.part.0>:
    14a6:	7741                	lui	a4,0xffff0
    14a8:	8f69                	and	a4,a4,a0
    14aa:	87aa                	mv	a5,a0
    14ac:	02000513          	li	a0,32
    14b0:	e319                	bnez	a4,14b6 <generic_fls.part.0+0x10>
    14b2:	07c2                	slli	a5,a5,0x10
    14b4:	4541                	li	a0,16
    14b6:	ff000737          	lui	a4,0xff000
    14ba:	8f7d                	and	a4,a4,a5
    14bc:	e319                	bnez	a4,14c2 <generic_fls.part.0+0x1c>
    14be:	07a2                	slli	a5,a5,0x8
    14c0:	1561                	addi	a0,a0,-8
    14c2:	f0000737          	lui	a4,0xf0000
    14c6:	8f7d                	and	a4,a4,a5
    14c8:	e319                	bnez	a4,14ce <generic_fls.part.0+0x28>
    14ca:	0792                	slli	a5,a5,0x4
    14cc:	1571                	addi	a0,a0,-4
    14ce:	c0000737          	lui	a4,0xc0000
    14d2:	8f7d                	and	a4,a4,a5
    14d4:	e319                	bnez	a4,14da <generic_fls.part.0+0x34>
    14d6:	078a                	slli	a5,a5,0x2
    14d8:	1579                	addi	a0,a0,-2
    14da:	0007c363          	bltz	a5,14e0 <generic_fls.part.0+0x3a>
    14de:	157d                	addi	a0,a0,-1
    14e0:	8082                	ret

000014e2 <remove_free_block>:
    14e2:	455c                	lw	a5,12(a0)
    14e4:	4514                	lw	a3,8(a0)
    14e6:	2000a737          	lui	a4,0x2000a
    14ea:	4c070713          	addi	a4,a4,1216 # 2000a4c0 <k_mmheap_ctl>
    14ee:	c6dc                	sw	a5,12(a3)
    14f0:	c794                	sw	a3,8(a5)
    14f2:	00559793          	slli	a5,a1,0x5
    14f6:	97b2                	add	a5,a5,a2
    14f8:	02078793          	addi	a5,a5,32
    14fc:	078a                	slli	a5,a5,0x2
    14fe:	97ba                	add	a5,a5,a4
    1500:	0047a803          	lw	a6,4(a5)
    1504:	02a81d63          	bne	a6,a0,153e <remove_free_block+0x5c>
    1508:	c3d4                	sw	a3,4(a5)
    150a:	2000a7b7          	lui	a5,0x2000a
    150e:	4d078793          	addi	a5,a5,1232 # 2000a4d0 <k_mmheap_ctl+0x10>
    1512:	02f69663          	bne	a3,a5,153e <remove_free_block+0x5c>
    1516:	00858693          	addi	a3,a1,8
    151a:	068a                	slli	a3,a3,0x2
    151c:	96ba                	add	a3,a3,a4
    151e:	42c8                	lw	a0,4(a3)
    1520:	4785                	li	a5,1
    1522:	00c79633          	sll	a2,a5,a2
    1526:	fff64613          	not	a2,a2
    152a:	8e69                	and	a2,a2,a0
    152c:	c2d0                	sw	a2,4(a3)
    152e:	ea01                	bnez	a2,153e <remove_free_block+0x5c>
    1530:	00b797b3          	sll	a5,a5,a1
    1534:	530c                	lw	a1,32(a4)
    1536:	fff7c793          	not	a5,a5
    153a:	8fed                	and	a5,a5,a1
    153c:	d31c                	sw	a5,32(a4)
    153e:	8082                	ret

00001540 <adjust_request_size>:
    1540:	c11d                	beqz	a0,1566 <adjust_request_size+0x26>
    1542:	fff58793          	addi	a5,a1,-1
    1546:	953e                	add	a0,a0,a5
    1548:	40b005b3          	neg	a1,a1
    154c:	8de9                	and	a1,a1,a0
    154e:	fff58713          	addi	a4,a1,-1
    1552:	400007b7          	lui	a5,0x40000
    1556:	4501                	li	a0,0
    1558:	00f77763          	bgeu	a4,a5,1566 <adjust_request_size+0x26>
    155c:	47b1                	li	a5,12
    155e:	852e                	mv	a0,a1
    1560:	00f5f363          	bgeu	a1,a5,1566 <adjust_request_size+0x26>
    1564:	4531                	li	a0,12
    1566:	8082                	ret

00001568 <mapping_insert>:
    1568:	1101                	addi	sp,sp,-32
    156a:	cc22                	sw	s0,24(sp)
    156c:	ce06                	sw	ra,28(sp)
    156e:	07f00793          	li	a5,127
    1572:	842a                	mv	s0,a0
    1574:	00a7eb63          	bltu	a5,a0,158a <mapping_insert+0x22>
    1578:	40255413          	srai	s0,a0,0x2
    157c:	4501                	li	a0,0
    157e:	c188                	sw	a0,0(a1)
    1580:	c200                	sw	s0,0(a2)
    1582:	40f2                	lw	ra,28(sp)
    1584:	4462                	lw	s0,24(sp)
    1586:	6105                	addi	sp,sp,32
    1588:	8082                	ret
    158a:	c632                	sw	a2,12(sp)
    158c:	c42e                	sw	a1,8(sp)
    158e:	3f21                	jal	14a6 <generic_fls.part.0>
    1590:	ffa50793          	addi	a5,a0,-6
    1594:	40f45433          	sra	s0,s0,a5
    1598:	02044413          	xori	s0,s0,32
    159c:	1565                	addi	a0,a0,-7
    159e:	4632                	lw	a2,12(sp)
    15a0:	45a2                	lw	a1,8(sp)
    15a2:	bff1                	j	157e <mapping_insert+0x16>

000015a4 <blk_remove>:
    15a4:	1101                	addi	sp,sp,-32
    15a6:	cc22                	sw	s0,24(sp)
    15a8:	842a                	mv	s0,a0
    15aa:	4148                	lw	a0,4(a0)
    15ac:	0070                	addi	a2,sp,12
    15ae:	002c                	addi	a1,sp,8
    15b0:	9971                	andi	a0,a0,-4
    15b2:	ce06                	sw	ra,28(sp)
    15b4:	3f55                	jal	1568 <mapping_insert>
    15b6:	4632                	lw	a2,12(sp)
    15b8:	45a2                	lw	a1,8(sp)
    15ba:	8522                	mv	a0,s0
    15bc:	371d                	jal	14e2 <remove_free_block>
    15be:	40f2                	lw	ra,28(sp)
    15c0:	4462                	lw	s0,24(sp)
    15c2:	6105                	addi	sp,sp,32
    15c4:	8082                	ret

000015c6 <blk_merge_next>:
    15c6:	1141                	addi	sp,sp,-16
    15c8:	c422                	sw	s0,8(sp)
    15ca:	c606                	sw	ra,12(sp)
    15cc:	c226                	sw	s1,4(sp)
    15ce:	842a                	mv	s0,a0
    15d0:	3585                	jal	1430 <blk_next>
    15d2:	415c                	lw	a5,4(a0)
    15d4:	8b85                	andi	a5,a5,1
    15d6:	cb99                	beqz	a5,15ec <blk_merge_next+0x26>
    15d8:	84aa                	mv	s1,a0
    15da:	37e9                	jal	15a4 <blk_remove>
    15dc:	40dc                	lw	a5,4(s1)
    15de:	4058                	lw	a4,4(s0)
    15e0:	8522                	mv	a0,s0
    15e2:	9bf1                	andi	a5,a5,-4
    15e4:	0711                	addi	a4,a4,4
    15e6:	97ba                	add	a5,a5,a4
    15e8:	c05c                	sw	a5,4(s0)
    15ea:	3d81                	jal	143a <blk_link_next>
    15ec:	8522                	mv	a0,s0
    15ee:	40b2                	lw	ra,12(sp)
    15f0:	4422                	lw	s0,8(sp)
    15f2:	4492                	lw	s1,4(sp)
    15f4:	0141                	addi	sp,sp,16
    15f6:	8082                	ret

000015f8 <blk_insert>:
    15f8:	1101                	addi	sp,sp,-32
    15fa:	cc22                	sw	s0,24(sp)
    15fc:	842a                	mv	s0,a0
    15fe:	4148                	lw	a0,4(a0)
    1600:	0070                	addi	a2,sp,12
    1602:	002c                	addi	a1,sp,8
    1604:	9971                	andi	a0,a0,-4
    1606:	ce06                	sw	ra,28(sp)
    1608:	3785                	jal	1568 <mapping_insert>
    160a:	46a2                	lw	a3,8(sp)
    160c:	45b2                	lw	a1,12(sp)
    160e:	2000a737          	lui	a4,0x2000a
    1612:	00569793          	slli	a5,a3,0x5
    1616:	97ae                	add	a5,a5,a1
    1618:	02078793          	addi	a5,a5,32 # 40000020 <_eusrstack+0x1fff0020>
    161c:	4c070713          	addi	a4,a4,1216 # 2000a4c0 <k_mmheap_ctl>
    1620:	078a                	slli	a5,a5,0x2
    1622:	97ba                	add	a5,a5,a4
    1624:	43c8                	lw	a0,4(a5)
    1626:	2000a637          	lui	a2,0x2000a
    162a:	4d060613          	addi	a2,a2,1232 # 2000a4d0 <k_mmheap_ctl+0x10>
    162e:	c408                	sw	a0,8(s0)
    1630:	c450                	sw	a2,12(s0)
    1632:	c540                	sw	s0,12(a0)
    1634:	5310                	lw	a2,32(a4)
    1636:	c3c0                	sw	s0,4(a5)
    1638:	4785                	li	a5,1
    163a:	00d79533          	sll	a0,a5,a3
    163e:	06a1                	addi	a3,a3,8
    1640:	068a                	slli	a3,a3,0x2
    1642:	8e49                	or	a2,a2,a0
    1644:	d310                	sw	a2,32(a4)
    1646:	9736                	add	a4,a4,a3
    1648:	4354                	lw	a3,4(a4)
    164a:	40f2                	lw	ra,28(sp)
    164c:	4462                	lw	s0,24(sp)
    164e:	00b797b3          	sll	a5,a5,a1
    1652:	8fd5                	or	a5,a5,a3
    1654:	c35c                	sw	a5,4(a4)
    1656:	6105                	addi	sp,sp,32
    1658:	8082                	ret

0000165a <blk_locate_free>:
    165a:	1101                	addi	sp,sp,-32
    165c:	ce06                	sw	ra,28(sp)
    165e:	cc22                	sw	s0,24(sp)
    1660:	ca26                	sw	s1,20(sp)
    1662:	c402                	sw	zero,8(sp)
    1664:	c602                	sw	zero,12(sp)
    1666:	e901                	bnez	a0,1676 <blk_locate_free+0x1c>
    1668:	4401                	li	s0,0
    166a:	8522                	mv	a0,s0
    166c:	40f2                	lw	ra,28(sp)
    166e:	4462                	lw	s0,24(sp)
    1670:	44d2                	lw	s1,20(sp)
    1672:	6105                	addi	sp,sp,32
    1674:	8082                	ret
    1676:	07f00793          	li	a5,127
    167a:	842a                	mv	s0,a0
    167c:	00a7f963          	bgeu	a5,a0,168e <blk_locate_free+0x34>
    1680:	351d                	jal	14a6 <generic_fls.part.0>
    1682:	1569                	addi	a0,a0,-6
    1684:	4785                	li	a5,1
    1686:	00a797b3          	sll	a5,a5,a0
    168a:	17fd                	addi	a5,a5,-1
    168c:	943e                	add	s0,s0,a5
    168e:	8522                	mv	a0,s0
    1690:	0070                	addi	a2,sp,12
    1692:	002c                	addi	a1,sp,8
    1694:	3dd1                	jal	1568 <mapping_insert>
    1696:	4422                	lw	s0,8(sp)
    1698:	47dd                	li	a5,23
    169a:	fc87c7e3          	blt	a5,s0,1668 <blk_locate_free+0xe>
    169e:	2000a4b7          	lui	s1,0x2000a
    16a2:	00840713          	addi	a4,s0,8
    16a6:	4c048693          	addi	a3,s1,1216 # 2000a4c0 <k_mmheap_ctl>
    16aa:	070a                	slli	a4,a4,0x2
    16ac:	4532                	lw	a0,12(sp)
    16ae:	9736                	add	a4,a4,a3
    16b0:	4358                	lw	a4,4(a4)
    16b2:	57fd                	li	a5,-1
    16b4:	00a79533          	sll	a0,a5,a0
    16b8:	8d79                	and	a0,a0,a4
    16ba:	4c048493          	addi	s1,s1,1216
    16be:	e50d                	bnez	a0,16e8 <blk_locate_free+0x8e>
    16c0:	5088                	lw	a0,32(s1)
    16c2:	0405                	addi	s0,s0,1
    16c4:	00879433          	sll	s0,a5,s0
    16c8:	8c69                	and	s0,s0,a0
    16ca:	dc59                	beqz	s0,1668 <blk_locate_free+0xe>
    16cc:	40800533          	neg	a0,s0
    16d0:	8d61                	and	a0,a0,s0
    16d2:	4781                	li	a5,0
    16d4:	c119                	beqz	a0,16da <blk_locate_free+0x80>
    16d6:	3bc1                	jal	14a6 <generic_fls.part.0>
    16d8:	87aa                	mv	a5,a0
    16da:	fff78413          	addi	s0,a5,-1
    16de:	079d                	addi	a5,a5,7
    16e0:	078a                	slli	a5,a5,0x2
    16e2:	97a6                	add	a5,a5,s1
    16e4:	43c8                	lw	a0,4(a5)
    16e6:	c422                	sw	s0,8(sp)
    16e8:	40a007b3          	neg	a5,a0
    16ec:	8d7d                	and	a0,a0,a5
    16ee:	4601                	li	a2,0
    16f0:	c119                	beqz	a0,16f6 <blk_locate_free+0x9c>
    16f2:	3b55                	jal	14a6 <generic_fls.part.0>
    16f4:	862a                	mv	a2,a0
    16f6:	167d                	addi	a2,a2,-1
    16f8:	0416                	slli	s0,s0,0x5
    16fa:	9432                	add	s0,s0,a2
    16fc:	02040413          	addi	s0,s0,32
    1700:	040a                	slli	s0,s0,0x2
    1702:	9426                	add	s0,s0,s1
    1704:	4040                	lw	s0,4(s0)
    1706:	c632                	sw	a2,12(sp)
    1708:	d02d                	beqz	s0,166a <blk_locate_free+0x10>
    170a:	45a2                	lw	a1,8(sp)
    170c:	8522                	mv	a0,s0
    170e:	3bd1                	jal	14e2 <remove_free_block>
    1710:	bfa9                	j	166a <blk_locate_free+0x10>

00001712 <blk_split>:
    1712:	1141                	addi	sp,sp,-16
    1714:	c422                	sw	s0,8(sp)
    1716:	415c                	lw	a5,4(a0)
    1718:	00458413          	addi	s0,a1,4
    171c:	942a                	add	s0,s0,a0
    171e:	4058                	lw	a4,4(s0)
    1720:	9bf1                	andi	a5,a5,-4
    1722:	8f8d                	sub	a5,a5,a1
    1724:	8b0d                	andi	a4,a4,3
    1726:	17f1                	addi	a5,a5,-4
    1728:	c606                	sw	ra,12(sp)
    172a:	8fd9                	or	a5,a5,a4
    172c:	c05c                	sw	a5,4(s0)
    172e:	415c                	lw	a5,4(a0)
    1730:	8b8d                	andi	a5,a5,3
    1732:	8fcd                	or	a5,a5,a1
    1734:	c15c                	sw	a5,4(a0)
    1736:	8522                	mv	a0,s0
    1738:	3309                	jal	143a <blk_link_next>
    173a:	415c                	lw	a5,4(a0)
    173c:	40b2                	lw	ra,12(sp)
    173e:	0027e793          	ori	a5,a5,2
    1742:	c15c                	sw	a5,4(a0)
    1744:	405c                	lw	a5,4(s0)
    1746:	8522                	mv	a0,s0
    1748:	0017e793          	ori	a5,a5,1
    174c:	c05c                	sw	a5,4(s0)
    174e:	4422                	lw	s0,8(sp)
    1750:	0141                	addi	sp,sp,16
    1752:	8082                	ret

00001754 <blk_prepare_used>:
    1754:	c529                	beqz	a0,179e <blk_prepare_used+0x4a>
    1756:	4158                	lw	a4,4(a0)
    1758:	1141                	addi	sp,sp,-16
    175a:	c422                	sw	s0,8(sp)
    175c:	c606                	sw	ra,12(sp)
    175e:	c226                	sw	s1,4(sp)
    1760:	9b71                	andi	a4,a4,-4
    1762:	01058793          	addi	a5,a1,16
    1766:	842a                	mv	s0,a0
    1768:	00f76c63          	bltu	a4,a5,1780 <blk_prepare_used+0x2c>
    176c:	375d                	jal	1712 <blk_split>
    176e:	84aa                	mv	s1,a0
    1770:	8522                	mv	a0,s0
    1772:	31e1                	jal	143a <blk_link_next>
    1774:	40dc                	lw	a5,4(s1)
    1776:	8526                	mv	a0,s1
    1778:	0027e793          	ori	a5,a5,2
    177c:	c0dc                	sw	a5,4(s1)
    177e:	3dad                	jal	15f8 <blk_insert>
    1780:	8522                	mv	a0,s0
    1782:	317d                	jal	1430 <blk_next>
    1784:	415c                	lw	a5,4(a0)
    1786:	40b2                	lw	ra,12(sp)
    1788:	4492                	lw	s1,4(sp)
    178a:	9bf5                	andi	a5,a5,-3
    178c:	c15c                	sw	a5,4(a0)
    178e:	405c                	lw	a5,4(s0)
    1790:	00840513          	addi	a0,s0,8
    1794:	9bf9                	andi	a5,a5,-2
    1796:	c05c                	sw	a5,4(s0)
    1798:	4422                	lw	s0,8(sp)
    179a:	0141                	addi	sp,sp,16
    179c:	8082                	ret
    179e:	4501                	li	a0,0
    17a0:	8082                	ret

000017a2 <tos_mmheap_alloc>:
    17a2:	400007b7          	lui	a5,0x40000
    17a6:	02a7e163          	bltu	a5,a0,17c8 <tos_mmheap_alloc+0x26>
    17aa:	1101                	addi	sp,sp,-32
    17ac:	4591                	li	a1,4
    17ae:	ce06                	sw	ra,28(sp)
    17b0:	3b41                	jal	1540 <adjust_request_size>
    17b2:	c62a                	sw	a0,12(sp)
    17b4:	355d                	jal	165a <blk_locate_free>
    17b6:	c509                	beqz	a0,17c0 <tos_mmheap_alloc+0x1e>
    17b8:	45b2                	lw	a1,12(sp)
    17ba:	40f2                	lw	ra,28(sp)
    17bc:	6105                	addi	sp,sp,32
    17be:	bf59                	j	1754 <blk_prepare_used>
    17c0:	40f2                	lw	ra,28(sp)
    17c2:	4501                	li	a0,0
    17c4:	6105                	addi	sp,sp,32
    17c6:	8082                	ret
    17c8:	4501                	li	a0,0
    17ca:	8082                	ret

000017cc <tos_mmheap_free>:
    17cc:	c921                	beqz	a0,181c <tos_mmheap_free+0x50>
    17ce:	1141                	addi	sp,sp,-16
    17d0:	c422                	sw	s0,8(sp)
    17d2:	ff850413          	addi	s0,a0,-8
    17d6:	c226                	sw	s1,4(sp)
    17d8:	84aa                	mv	s1,a0
    17da:	8522                	mv	a0,s0
    17dc:	c606                	sw	ra,12(sp)
    17de:	39b1                	jal	143a <blk_link_next>
    17e0:	415c                	lw	a5,4(a0)
    17e2:	0027e793          	ori	a5,a5,2
    17e6:	c15c                	sw	a5,4(a0)
    17e8:	405c                	lw	a5,4(s0)
    17ea:	0017e793          	ori	a5,a5,1
    17ee:	c05c                	sw	a5,4(s0)
    17f0:	8b89                	andi	a5,a5,2
    17f2:	cf91                	beqz	a5,180e <tos_mmheap_free+0x42>
    17f4:	ff84a483          	lw	s1,-8(s1)
    17f8:	8526                	mv	a0,s1
    17fa:	336d                	jal	15a4 <blk_remove>
    17fc:	405c                	lw	a5,4(s0)
    17fe:	40d8                	lw	a4,4(s1)
    1800:	8526                	mv	a0,s1
    1802:	9bf1                	andi	a5,a5,-4
    1804:	97ba                	add	a5,a5,a4
    1806:	0791                	addi	a5,a5,4
    1808:	c0dc                	sw	a5,4(s1)
    180a:	3905                	jal	143a <blk_link_next>
    180c:	8426                	mv	s0,s1
    180e:	8522                	mv	a0,s0
    1810:	3b5d                	jal	15c6 <blk_merge_next>
    1812:	4422                	lw	s0,8(sp)
    1814:	40b2                	lw	ra,12(sp)
    1816:	4492                	lw	s1,4(sp)
    1818:	0141                	addi	sp,sp,16
    181a:	bbf9                	j	15f8 <blk_insert>
    181c:	8082                	ret

0000181e <tos_mmheap_pool_add>:
    181e:	1101                	addi	sp,sp,-32
    1820:	cc22                	sw	s0,24(sp)
    1822:	2000a437          	lui	s0,0x2000a
    1826:	4c042683          	lw	a3,1216(s0) # 2000a4c0 <k_mmheap_ctl>
    182a:	ce06                	sw	ra,28(sp)
    182c:	ca26                	sw	s1,20(sp)
    182e:	c84a                	sw	s2,16(sp)
    1830:	c64e                	sw	s3,12(sp)
    1832:	478d                	li	a5,3
    1834:	06f68d63          	beq	a3,a5,18ae <tos_mmheap_pool_add+0x90>
    1838:	4c040713          	addi	a4,s0,1216
    183c:	4781                	li	a5,0
    183e:	4c040913          	addi	s2,s0,1216
    1842:	06d7c063          	blt	a5,a3,18a2 <tos_mmheap_pool_add+0x84>
    1846:	15e1                	addi	a1,a1,-8
    1848:	00357713          	andi	a4,a0,3
    184c:	99f1                	andi	a1,a1,-4
    184e:	32000793          	li	a5,800
    1852:	e321                	bnez	a4,1892 <tos_mmheap_pool_add+0x74>
    1854:	40000737          	lui	a4,0x40000
    1858:	ff458693          	addi	a3,a1,-12
    185c:	1751                	addi	a4,a4,-12
    185e:	32100793          	li	a5,801
    1862:	02d76863          	bltu	a4,a3,1892 <tos_mmheap_pool_add+0x74>
    1866:	0015e593          	ori	a1,a1,1
    186a:	ffc50993          	addi	s3,a0,-4
    186e:	c10c                	sw	a1,0(a0)
    1870:	84aa                	mv	s1,a0
    1872:	854e                	mv	a0,s3
    1874:	3351                	jal	15f8 <blk_insert>
    1876:	854e                	mv	a0,s3
    1878:	36c9                	jal	143a <blk_link_next>
    187a:	4789                	li	a5,2
    187c:	c15c                	sw	a5,4(a0)
    187e:	4c042783          	lw	a5,1216(s0)
    1882:	00178713          	addi	a4,a5,1 # 40000001 <_eusrstack+0x1fff0001>
    1886:	078a                	slli	a5,a5,0x2
    1888:	97ca                	add	a5,a5,s2
    188a:	c3c4                	sw	s1,4(a5)
    188c:	4ce42023          	sw	a4,1216(s0)
    1890:	4781                	li	a5,0
    1892:	40f2                	lw	ra,28(sp)
    1894:	4462                	lw	s0,24(sp)
    1896:	44d2                	lw	s1,20(sp)
    1898:	4942                	lw	s2,16(sp)
    189a:	49b2                	lw	s3,12(sp)
    189c:	853e                	mv	a0,a5
    189e:	6105                	addi	sp,sp,32
    18a0:	8082                	ret
    18a2:	0711                	addi	a4,a4,4
    18a4:	4310                	lw	a2,0(a4)
    18a6:	00c50763          	beq	a0,a2,18b4 <tos_mmheap_pool_add+0x96>
    18aa:	0785                	addi	a5,a5,1
    18ac:	bf59                	j	1842 <tos_mmheap_pool_add+0x24>
    18ae:	32200793          	li	a5,802
    18b2:	b7c5                	j	1892 <tos_mmheap_pool_add+0x74>
    18b4:	32300793          	li	a5,803
    18b8:	bfe9                	j	1892 <tos_mmheap_pool_add+0x74>

000018ba <mmheap_init_with_pool>:
    18ba:	1101                	addi	sp,sp,-32
    18bc:	ce06                	sw	ra,28(sp)
    18be:	c62a                	sw	a0,12(sp)
    18c0:	c42e                	sw	a1,8(sp)
    18c2:	3671                	jal	144e <mmheap_ctl_init>
    18c4:	45a2                	lw	a1,8(sp)
    18c6:	4532                	lw	a0,12(sp)
    18c8:	40f2                	lw	ra,28(sp)
    18ca:	6105                	addi	sp,sp,32
    18cc:	bf89                	j	181e <tos_mmheap_pool_add>

000018ce <mutex_old_owner_release>:
    18ce:	4d5c                	lw	a5,28(a0)
    18d0:	4d18                	lw	a4,24(a0)
    18d2:	1101                	addi	sp,sp,-32
    18d4:	ca26                	sw	s1,20(sp)
    18d6:	c64e                	sw	s3,12(sp)
    18d8:	ce06                	sw	ra,28(sp)
    18da:	cc22                	sw	s0,24(sp)
    18dc:	c84a                	sw	s2,16(sp)
    18de:	4904                	lw	s1,16(a0)
    18e0:	c35c                	sw	a5,4(a4)
    18e2:	c398                	sw	a4,0(a5)
    18e4:	00052823          	sw	zero,16(a0)
    18e8:	00050623          	sb	zero,12(a0)
    18ec:	0604c903          	lbu	s2,96(s1)
    18f0:	49a9                	li	s3,10
    18f2:	01390f63          	beq	s2,s3,1910 <mutex_old_owner_release+0x42>
    18f6:	85ca                	mv	a1,s2
    18f8:	8526                	mv	a0,s1
    18fa:	633000ef          	jal	ra,272c <tos_task_prio_change>
    18fe:	07348023          	sb	s3,96(s1)
    1902:	40f2                	lw	ra,28(sp)
    1904:	4462                	lw	s0,24(sp)
    1906:	44d2                	lw	s1,20(sp)
    1908:	4942                	lw	s2,16(sp)
    190a:	49b2                	lw	s3,12(sp)
    190c:	6105                	addi	sp,sp,32
    190e:	8082                	ret
    1910:	01454583          	lbu	a1,20(a0)
    1914:	0214c783          	lbu	a5,33(s1)
    1918:	842a                	mv	s0,a0
    191a:	feb784e3          	beq	a5,a1,1902 <mutex_old_owner_release+0x34>
    191e:	8526                	mv	a0,s1
    1920:	60d000ef          	jal	ra,272c <tos_task_prio_change>
    1924:	01240a23          	sb	s2,20(s0)
    1928:	bfe9                	j	1902 <mutex_old_owner_release+0x34>

0000192a <mutex_release>:
    192a:	1141                	addi	sp,sp,-16
    192c:	c422                	sw	s0,8(sp)
    192e:	c606                	sw	ra,12(sp)
    1930:	842a                	mv	s0,a0
    1932:	3f71                	jal	18ce <mutex_old_owner_release>
    1934:	00440513          	addi	a0,s0,4
    1938:	4422                	lw	s0,8(sp)
    193a:	40b2                	lw	ra,12(sp)
    193c:	4591                	li	a1,4
    193e:	0141                	addi	sp,sp,16
    1940:	aee1                	j	1d18 <pend_wakeup_all>

00001942 <tos_mutex_create>:
    1942:	1141                	addi	sp,sp,-16
    1944:	c422                	sw	s0,8(sp)
    1946:	c606                	sw	ra,12(sp)
    1948:	842a                	mv	s0,a0
    194a:	2d7000ef          	jal	ra,2420 <knl_is_inirq>
    194e:	e90d                	bnez	a0,1980 <tos_mutex_create+0x3e>
    1950:	44c00513          	li	a0,1100
    1954:	c015                	beqz	s0,1978 <tos_mutex_create+0x36>
    1956:	00440513          	addi	a0,s0,4
    195a:	24cd                	jal	1c3c <pend_object_init>
    195c:	47a9                	li	a5,10
    195e:	00f40a23          	sb	a5,20(s0)
    1962:	01840793          	addi	a5,s0,24
    1966:	cc1c                	sw	a5,24(s0)
    1968:	cc5c                	sw	a5,28(s0)
    196a:	4785                	li	a5,1
    196c:	00040623          	sb	zero,12(s0)
    1970:	00042823          	sw	zero,16(s0)
    1974:	c01c                	sw	a5,0(s0)
    1976:	4501                	li	a0,0
    1978:	40b2                	lw	ra,12(sp)
    197a:	4422                	lw	s0,8(sp)
    197c:	0141                	addi	sp,sp,16
    197e:	8082                	ret
    1980:	19000513          	li	a0,400
    1984:	bfd5                	j	1978 <tos_mutex_create+0x36>

00001986 <tos_mutex_destroy>:
    1986:	1141                	addi	sp,sp,-16
    1988:	c422                	sw	s0,8(sp)
    198a:	c606                	sw	ra,12(sp)
    198c:	c226                	sw	s1,4(sp)
    198e:	c04a                	sw	s2,0(sp)
    1990:	842a                	mv	s0,a0
    1992:	28f000ef          	jal	ra,2420 <knl_is_inirq>
    1996:	e531                	bnez	a0,19e2 <tos_mutex_destroy+0x5c>
    1998:	44c00513          	li	a0,1100
    199c:	cc0d                	beqz	s0,19d6 <tos_mutex_destroy+0x50>
    199e:	4018                	lw	a4,0(s0)
    19a0:	4785                	li	a5,1
    19a2:	44e00513          	li	a0,1102
    19a6:	02f71863          	bne	a4,a5,19d6 <tos_mutex_destroy+0x50>
    19aa:	088020ef          	jal	ra,3a32 <tos_cpu_cpsr_save>
    19ae:	00440493          	addi	s1,s0,4
    19b2:	892a                	mv	s2,a0
    19b4:	458d                	li	a1,3
    19b6:	8526                	mv	a0,s1
    19b8:	2685                	jal	1d18 <pend_wakeup_all>
    19ba:	481c                	lw	a5,16(s0)
    19bc:	c399                	beqz	a5,19c2 <tos_mutex_destroy+0x3c>
    19be:	8522                	mv	a0,s0
    19c0:	3739                	jal	18ce <mutex_old_owner_release>
    19c2:	8526                	mv	a0,s1
    19c4:	2cbd                	jal	1c42 <pend_object_deinit>
    19c6:	854a                	mv	a0,s2
    19c8:	00042023          	sw	zero,0(s0)
    19cc:	06a020ef          	jal	ra,3a36 <tos_cpu_cpsr_restore>
    19d0:	1b9000ef          	jal	ra,2388 <knl_sched>
    19d4:	4501                	li	a0,0
    19d6:	40b2                	lw	ra,12(sp)
    19d8:	4422                	lw	s0,8(sp)
    19da:	4492                	lw	s1,4(sp)
    19dc:	4902                	lw	s2,0(sp)
    19de:	0141                	addi	sp,sp,16
    19e0:	8082                	ret
    19e2:	19000513          	li	a0,400
    19e6:	bfc5                	j	19d6 <tos_mutex_destroy+0x50>

000019e8 <tos_mutex_pend_timed>:
    19e8:	1101                	addi	sp,sp,-32
    19ea:	cc22                	sw	s0,24(sp)
    19ec:	c64e                	sw	s3,12(sp)
    19ee:	c452                	sw	s4,8(sp)
    19f0:	ce06                	sw	ra,28(sp)
    19f2:	ca26                	sw	s1,20(sp)
    19f4:	c84a                	sw	s2,16(sp)
    19f6:	842a                	mv	s0,a0
    19f8:	8a2e                	mv	s4,a1
    19fa:	89b2                	mv	s3,a2
    19fc:	225000ef          	jal	ra,2420 <knl_is_inirq>
    1a00:	0e051563          	bnez	a0,1aea <tos_mutex_pend_timed+0x102>
    1a04:	0e040663          	beqz	s0,1af0 <tos_mutex_pend_timed+0x108>
    1a08:	02a020ef          	jal	ra,3a32 <tos_cpu_cpsr_save>
    1a0c:	00c44783          	lbu	a5,12(s0)
    1a10:	892a                	mv	s2,a0
    1a12:	ef9d                	bnez	a5,1a50 <tos_mutex_pend_timed+0x68>
    1a14:	8481a783          	lw	a5,-1976(gp) # 20000298 <k_curr_task>
    1a18:	c81c                	sw	a5,16(s0)
    1a1a:	0217c703          	lbu	a4,33(a5)
    1a1e:	00e40a23          	sb	a4,20(s0)
    1a22:	4705                	li	a4,1
    1a24:	00e40623          	sb	a4,12(s0)
    1a28:	4fb4                	lw	a3,88(a5)
    1a2a:	01840713          	addi	a4,s0,24
    1a2e:	c2d8                	sw	a4,4(a3)
    1a30:	cc14                	sw	a3,24(s0)
    1a32:	05878693          	addi	a3,a5,88
    1a36:	cc54                	sw	a3,28(s0)
    1a38:	cfb8                	sw	a4,88(a5)
    1a3a:	7fd010ef          	jal	ra,3a36 <tos_cpu_cpsr_restore>
    1a3e:	4501                	li	a0,0
    1a40:	40f2                	lw	ra,28(sp)
    1a42:	4462                	lw	s0,24(sp)
    1a44:	44d2                	lw	s1,20(sp)
    1a46:	4942                	lw	s2,16(sp)
    1a48:	49b2                	lw	s3,12(sp)
    1a4a:	4a22                	lw	s4,8(sp)
    1a4c:	6105                	addi	sp,sp,32
    1a4e:	8082                	ret
    1a50:	4808                	lw	a0,16(s0)
    1a52:	1e9000ef          	jal	ra,243a <knl_is_self>
    1a56:	c515                	beqz	a0,1a82 <tos_mutex_pend_timed+0x9a>
    1a58:	00c44783          	lbu	a5,12(s0)
    1a5c:	0ff00713          	li	a4,255
    1a60:	00e79863          	bne	a5,a4,1a70 <tos_mutex_pend_timed+0x88>
    1a64:	854a                	mv	a0,s2
    1a66:	7d1010ef          	jal	ra,3a36 <tos_cpu_cpsr_restore>
    1a6a:	3ea00513          	li	a0,1002
    1a6e:	bfc9                	j	1a40 <tos_mutex_pend_timed+0x58>
    1a70:	0785                	addi	a5,a5,1
    1a72:	854a                	mv	a0,s2
    1a74:	00f40623          	sb	a5,12(s0)
    1a78:	7bf010ef          	jal	ra,3a36 <tos_cpu_cpsr_restore>
    1a7c:	3e900513          	li	a0,1001
    1a80:	b7c1                	j	1a40 <tos_mutex_pend_timed+0x58>
    1a82:	013a67b3          	or	a5,s4,s3
    1a86:	e799                	bnez	a5,1a94 <tos_mutex_pend_timed+0xac>
    1a88:	854a                	mv	a0,s2
    1a8a:	7ad010ef          	jal	ra,3a36 <tos_cpu_cpsr_restore>
    1a8e:	4b000513          	li	a0,1200
    1a92:	b77d                	j	1a40 <tos_mutex_pend_timed+0x58>
    1a94:	183000ef          	jal	ra,2416 <knl_is_sched_locked>
    1a98:	c519                	beqz	a0,1aa6 <tos_mutex_pend_timed+0xbe>
    1a9a:	854a                	mv	a0,s2
    1a9c:	79b010ef          	jal	ra,3a36 <tos_cpu_cpsr_restore>
    1aa0:	4b100513          	li	a0,1201
    1aa4:	bf71                	j	1a40 <tos_mutex_pend_timed+0x58>
    1aa6:	8481a783          	lw	a5,-1976(gp) # 20000298 <k_curr_task>
    1aaa:	4808                	lw	a0,16(s0)
    1aac:	0217c583          	lbu	a1,33(a5)
    1ab0:	02154783          	lbu	a5,33(a0)
    1ab4:	00f5f463          	bgeu	a1,a5,1abc <tos_mutex_pend_timed+0xd4>
    1ab8:	475000ef          	jal	ra,272c <tos_task_prio_change>
    1abc:	8481a503          	lw	a0,-1976(gp) # 20000298 <k_curr_task>
    1ac0:	8652                	mv	a2,s4
    1ac2:	86ce                	mv	a3,s3
    1ac4:	00440593          	addi	a1,s0,4
    1ac8:	2411                	jal	1ccc <pend_task_block>
    1aca:	854a                	mv	a0,s2
    1acc:	76b010ef          	jal	ra,3a36 <tos_cpu_cpsr_restore>
    1ad0:	0b9000ef          	jal	ra,2388 <knl_sched>
    1ad4:	8481a783          	lw	a5,-1976(gp) # 20000298 <k_curr_task>
    1ad8:	4462                	lw	s0,24(sp)
    1ada:	40f2                	lw	ra,28(sp)
    1adc:	44d2                	lw	s1,20(sp)
    1ade:	4942                	lw	s2,16(sp)
    1ae0:	49b2                	lw	s3,12(sp)
    1ae2:	4a22                	lw	s4,8(sp)
    1ae4:	57a8                	lw	a0,104(a5)
    1ae6:	6105                	addi	sp,sp,32
    1ae8:	aaa5                	j	1c60 <pend_state2errno>
    1aea:	19000513          	li	a0,400
    1aee:	bf89                	j	1a40 <tos_mutex_pend_timed+0x58>
    1af0:	44c00513          	li	a0,1100
    1af4:	b7b1                	j	1a40 <tos_mutex_pend_timed+0x58>

00001af6 <tos_mutex_pend>:
    1af6:	55fd                	li	a1,-1
    1af8:	567d                	li	a2,-1
    1afa:	b5fd                	j	19e8 <tos_mutex_pend_timed>

00001afc <tos_mutex_post>:
    1afc:	1101                	addi	sp,sp,-32
    1afe:	cc22                	sw	s0,24(sp)
    1b00:	ce06                	sw	ra,28(sp)
    1b02:	ca26                	sw	s1,20(sp)
    1b04:	c84a                	sw	s2,16(sp)
    1b06:	c64e                	sw	s3,12(sp)
    1b08:	842a                	mv	s0,a0
    1b0a:	117000ef          	jal	ra,2420 <knl_is_inirq>
    1b0e:	e945                	bnez	a0,1bbe <tos_mutex_post+0xc2>
    1b10:	44c00513          	li	a0,1100
    1b14:	cc09                	beqz	s0,1b2e <tos_mutex_post+0x32>
    1b16:	71d010ef          	jal	ra,3a32 <tos_cpu_cpsr_save>
    1b1a:	892a                	mv	s2,a0
    1b1c:	4808                	lw	a0,16(s0)
    1b1e:	11d000ef          	jal	ra,243a <knl_is_self>
    1b22:	ed09                	bnez	a0,1b3c <tos_mutex_post+0x40>
    1b24:	854a                	mv	a0,s2
    1b26:	711010ef          	jal	ra,3a36 <tos_cpu_cpsr_restore>
    1b2a:	3e800513          	li	a0,1000
    1b2e:	40f2                	lw	ra,28(sp)
    1b30:	4462                	lw	s0,24(sp)
    1b32:	44d2                	lw	s1,20(sp)
    1b34:	4942                	lw	s2,16(sp)
    1b36:	49b2                	lw	s3,12(sp)
    1b38:	6105                	addi	sp,sp,32
    1b3a:	8082                	ret
    1b3c:	00c44783          	lbu	a5,12(s0)
    1b40:	17fd                	addi	a5,a5,-1
    1b42:	0ff7f793          	andi	a5,a5,255
    1b46:	00f40623          	sb	a5,12(s0)
    1b4a:	c799                	beqz	a5,1b58 <tos_mutex_post+0x5c>
    1b4c:	854a                	mv	a0,s2
    1b4e:	6e9010ef          	jal	ra,3a36 <tos_cpu_cpsr_restore>
    1b52:	3e900513          	li	a0,1001
    1b56:	bfe1                	j	1b2e <tos_mutex_post+0x32>
    1b58:	8522                	mv	a0,s0
    1b5a:	3b95                	jal	18ce <mutex_old_owner_release>
    1b5c:	00440993          	addi	s3,s0,4
    1b60:	854e                	mv	a0,s3
    1b62:	20dd                	jal	1c48 <pend_is_nopending>
    1b64:	c511                	beqz	a0,1b70 <tos_mutex_post+0x74>
    1b66:	854a                	mv	a0,s2
    1b68:	6cf010ef          	jal	ra,3a36 <tos_cpu_cpsr_restore>
    1b6c:	4501                	li	a0,0
    1b6e:	b7c1                	j	1b2e <tos_mutex_post+0x32>
    1b70:	854e                	mv	a0,s3
    1b72:	206d                	jal	1c1c <pend_highest_pending_task_get>
    1b74:	c808                	sw	a0,16(s0)
    1b76:	02154783          	lbu	a5,33(a0)
    1b7a:	84aa                	mv	s1,a0
    1b7c:	00f40a23          	sb	a5,20(s0)
    1b80:	4785                	li	a5,1
    1b82:	00f40623          	sb	a5,12(s0)
    1b86:	4d38                	lw	a4,88(a0)
    1b88:	01840793          	addi	a5,s0,24
    1b8c:	c35c                	sw	a5,4(a4)
    1b8e:	cc18                	sw	a4,24(s0)
    1b90:	05850713          	addi	a4,a0,88
    1b94:	cc58                	sw	a4,28(s0)
    1b96:	cd3c                	sw	a5,88(a0)
    1b98:	854e                	mv	a0,s3
    1b9a:	20ad                	jal	1c04 <pend_highest_pending_prio_get>
    1b9c:	0214c783          	lbu	a5,33(s1)
    1ba0:	85aa                	mv	a1,a0
    1ba2:	00f57563          	bgeu	a0,a5,1bac <tos_mutex_post+0xb0>
    1ba6:	8526                	mv	a0,s1
    1ba8:	385000ef          	jal	ra,272c <tos_task_prio_change>
    1bac:	4585                	li	a1,1
    1bae:	854e                	mv	a0,s3
    1bb0:	2285                	jal	1d10 <pend_wakeup_one>
    1bb2:	854a                	mv	a0,s2
    1bb4:	683010ef          	jal	ra,3a36 <tos_cpu_cpsr_restore>
    1bb8:	7d0000ef          	jal	ra,2388 <knl_sched>
    1bbc:	bf45                	j	1b6c <tos_mutex_post+0x70>
    1bbe:	19000513          	li	a0,400
    1bc2:	b7b5                	j	1b2e <tos_mutex_post+0x32>

00001bc4 <pend_list_add>:
    1bc4:	419c                	lw	a5,0(a1)
    1bc6:	fb078793          	addi	a5,a5,-80
    1bca:	05078713          	addi	a4,a5,80
    1bce:	00b71463          	bne	a4,a1,1bd6 <pend_list_add+0x12>
    1bd2:	872e                	mv	a4,a1
    1bd4:	a039                	j	1be2 <pend_list_add+0x1e>
    1bd6:	02154603          	lbu	a2,33(a0)
    1bda:	0217c683          	lbu	a3,33(a5)
    1bde:	02d67163          	bgeu	a2,a3,1c00 <pend_list_add+0x3c>
    1be2:	4bf4                	lw	a3,84(a5)
    1be4:	05050613          	addi	a2,a0,80
    1be8:	cbf0                	sw	a2,84(a5)
    1bea:	c938                	sw	a4,80(a0)
    1bec:	c974                	sw	a3,84(a0)
    1bee:	c290                	sw	a2,0(a3)
    1bf0:	02054783          	lbu	a5,32(a0)
    1bf4:	d16c                	sw	a1,100(a0)
    1bf6:	0027e793          	ori	a5,a5,2
    1bfa:	02f50023          	sb	a5,32(a0)
    1bfe:	8082                	ret
    1c00:	4bbc                	lw	a5,80(a5)
    1c02:	b7d1                	j	1bc6 <pend_list_add+0x2>

00001c04 <pend_highest_pending_prio_get>:
    1c04:	411c                	lw	a5,0(a0)
    1c06:	00f50963          	beq	a0,a5,1c18 <pend_highest_pending_prio_get+0x14>
    1c0a:	fb078713          	addi	a4,a5,-80
    1c0e:	4529                	li	a0,10
    1c10:	c709                	beqz	a4,1c1a <pend_highest_pending_prio_get+0x16>
    1c12:	fd17c503          	lbu	a0,-47(a5)
    1c16:	8082                	ret
    1c18:	4529                	li	a0,10
    1c1a:	8082                	ret

00001c1c <pend_highest_pending_task_get>:
    1c1c:	4108                	lw	a0,0(a0)
    1c1e:	fb050513          	addi	a0,a0,-80
    1c22:	8082                	ret

00001c24 <pend_list_remove>:
    1c24:	497c                	lw	a5,84(a0)
    1c26:	4938                	lw	a4,80(a0)
    1c28:	c35c                	sw	a5,4(a4)
    1c2a:	c398                	sw	a4,0(a5)
    1c2c:	02054783          	lbu	a5,32(a0)
    1c30:	06052223          	sw	zero,100(a0)
    1c34:	9bf5                	andi	a5,a5,-3
    1c36:	02f50023          	sb	a5,32(a0)
    1c3a:	8082                	ret

00001c3c <pend_object_init>:
    1c3c:	c108                	sw	a0,0(a0)
    1c3e:	c148                	sw	a0,4(a0)
    1c40:	8082                	ret

00001c42 <pend_object_deinit>:
    1c42:	c108                	sw	a0,0(a0)
    1c44:	c148                	sw	a0,4(a0)
    1c46:	8082                	ret

00001c48 <pend_is_nopending>:
    1c48:	411c                	lw	a5,0(a0)
    1c4a:	40a78533          	sub	a0,a5,a0
    1c4e:	00153513          	seqz	a0,a0
    1c52:	8082                	ret

00001c54 <pend_list_adjust>:
    1c54:	4978                	lw	a4,84(a0)
    1c56:	4934                	lw	a3,80(a0)
    1c58:	516c                	lw	a1,100(a0)
    1c5a:	c2d8                	sw	a4,4(a3)
    1c5c:	c314                	sw	a3,0(a4)
    1c5e:	b79d                	j	1bc4 <pend_list_add>

00001c60 <pend_state2errno>:
    1c60:	4785                	li	a5,1
    1c62:	02f50563          	beq	a0,a5,1c8c <pend_state2errno+0x2c>
    1c66:	4709                	li	a4,2
    1c68:	4b300793          	li	a5,1203
    1c6c:	00e50e63          	beq	a0,a4,1c88 <pend_state2errno+0x28>
    1c70:	470d                	li	a4,3
    1c72:	4b400793          	li	a5,1204
    1c76:	00e50963          	beq	a0,a4,1c88 <pend_state2errno+0x28>
    1c7a:	4711                	li	a4,4
    1c7c:	4b500793          	li	a5,1205
    1c80:	00e50463          	beq	a0,a4,1c88 <pend_state2errno+0x28>
    1c84:	4b200793          	li	a5,1202
    1c88:	853e                	mv	a0,a5
    1c8a:	8082                	ret
    1c8c:	4781                	li	a5,0
    1c8e:	bfed                	j	1c88 <pend_state2errno+0x28>

00001c90 <pend_task_wakeup>:
    1c90:	1141                	addi	sp,sp,-16
    1c92:	c422                	sw	s0,8(sp)
    1c94:	c606                	sw	ra,12(sp)
    1c96:	02054783          	lbu	a5,32(a0)
    1c9a:	842a                	mv	s0,a0
    1c9c:	8b89                	andi	a5,a5,2
    1c9e:	c399                	beqz	a5,1ca4 <pend_task_wakeup+0x14>
    1ca0:	d52c                	sw	a1,104(a0)
    1ca2:	3749                	jal	1c24 <pend_list_remove>
    1ca4:	02044783          	lbu	a5,32(s0)
    1ca8:	8b85                	andi	a5,a5,1
    1caa:	c781                	beqz	a5,1cb2 <pend_task_wakeup+0x22>
    1cac:	8522                	mv	a0,s0
    1cae:	49f000ef          	jal	ra,294c <tick_list_remove>
    1cb2:	02044783          	lbu	a5,32(s0)
    1cb6:	8b91                	andi	a5,a5,4
    1cb8:	e791                	bnez	a5,1cc4 <pend_task_wakeup+0x34>
    1cba:	8522                	mv	a0,s0
    1cbc:	4422                	lw	s0,8(sp)
    1cbe:	40b2                	lw	ra,12(sp)
    1cc0:	0141                	addi	sp,sp,16
    1cc2:	a681                	j	2002 <readyqueue_add>
    1cc4:	40b2                	lw	ra,12(sp)
    1cc6:	4422                	lw	s0,8(sp)
    1cc8:	0141                	addi	sp,sp,16
    1cca:	8082                	ret

00001ccc <pend_task_block>:
    1ccc:	1101                	addi	sp,sp,-32
    1cce:	c436                	sw	a3,8(sp)
    1cd0:	ce06                	sw	ra,28(sp)
    1cd2:	cc22                	sw	s0,24(sp)
    1cd4:	ca26                	sw	s1,20(sp)
    1cd6:	842a                	mv	s0,a0
    1cd8:	c62e                	sw	a1,12(sp)
    1cda:	84b2                	mv	s1,a2
    1cdc:	2e2d                	jal	2016 <readyqueue_remove>
    1cde:	45b2                	lw	a1,12(sp)
    1ce0:	06042423          	sw	zero,104(s0)
    1ce4:	8522                	mv	a0,s0
    1ce6:	3df9                	jal	1bc4 <pend_list_add>
    1ce8:	57fd                	li	a5,-1
    1cea:	46a2                	lw	a3,8(sp)
    1cec:	00f49463          	bne	s1,a5,1cf4 <pend_task_block+0x28>
    1cf0:	00968b63          	beq	a3,s1,1d06 <pend_task_block+0x3a>
    1cf4:	8522                	mv	a0,s0
    1cf6:	4462                	lw	s0,24(sp)
    1cf8:	40f2                	lw	ra,28(sp)
    1cfa:	85a6                	mv	a1,s1
    1cfc:	44d2                	lw	s1,20(sp)
    1cfe:	8636                	mv	a2,a3
    1d00:	6105                	addi	sp,sp,32
    1d02:	37b0006f          	j	287c <tick_list_add>
    1d06:	40f2                	lw	ra,28(sp)
    1d08:	4462                	lw	s0,24(sp)
    1d0a:	44d2                	lw	s1,20(sp)
    1d0c:	6105                	addi	sp,sp,32
    1d0e:	8082                	ret

00001d10 <pend_wakeup_one>:
    1d10:	4108                	lw	a0,0(a0)
    1d12:	fb050513          	addi	a0,a0,-80
    1d16:	bfad                	j	1c90 <pend_task_wakeup>

00001d18 <pend_wakeup_all>:
    1d18:	411c                	lw	a5,0(a0)
    1d1a:	1141                	addi	sp,sp,-16
    1d1c:	c422                	sw	s0,8(sp)
    1d1e:	4380                	lw	s0,0(a5)
    1d20:	c226                	sw	s1,4(sp)
    1d22:	c04a                	sw	s2,0(sp)
    1d24:	84aa                	mv	s1,a0
    1d26:	c606                	sw	ra,12(sp)
    1d28:	892e                	mv	s2,a1
    1d2a:	fb078513          	addi	a0,a5,-80
    1d2e:	fb040413          	addi	s0,s0,-80
    1d32:	05050793          	addi	a5,a0,80
    1d36:	00f49863          	bne	s1,a5,1d46 <pend_wakeup_all+0x2e>
    1d3a:	40b2                	lw	ra,12(sp)
    1d3c:	4422                	lw	s0,8(sp)
    1d3e:	4492                	lw	s1,4(sp)
    1d40:	4902                	lw	s2,0(sp)
    1d42:	0141                	addi	sp,sp,16
    1d44:	8082                	ret
    1d46:	85ca                	mv	a1,s2
    1d48:	37a1                	jal	1c90 <pend_task_wakeup>
    1d4a:	483c                	lw	a5,80(s0)
    1d4c:	8522                	mv	a0,s0
    1d4e:	fb078413          	addi	s0,a5,-80
    1d52:	b7c5                	j	1d32 <pend_wakeup_all+0x1a>

00001d54 <pend_wakeup>:
    1d54:	e211                	bnez	a2,1d58 <pend_wakeup+0x4>
    1d56:	bf6d                	j	1d10 <pend_wakeup_one>
    1d58:	b7c1                	j	1d18 <pend_wakeup_all>

00001d5a <tos_ring_q_create>:
    1d5a:	87aa                	mv	a5,a0
    1d5c:	44c00513          	li	a0,1100
    1d60:	cf89                	beqz	a5,1d7a <tos_ring_q_create+0x20>
    1d62:	cd81                	beqz	a1,1d7a <tos_ring_q_create+0x20>
    1d64:	4705                	li	a4,1
    1d66:	c7cc                	sw	a1,12(a5)
    1d68:	cb94                	sw	a3,16(a5)
    1d6a:	cbd0                	sw	a2,20(a5)
    1d6c:	c398                	sw	a4,0(a5)
    1d6e:	0007a223          	sw	zero,4(a5)
    1d72:	0007a423          	sw	zero,8(a5)
    1d76:	4501                	li	a0,0
    1d78:	8082                	ret
    1d7a:	8082                	ret

00001d7c <tos_ring_q_destroy>:
    1d7c:	87aa                	mv	a5,a0
    1d7e:	c50d                	beqz	a0,1da8 <tos_ring_q_destroy+0x2c>
    1d80:	4114                	lw	a3,0(a0)
    1d82:	4705                	li	a4,1
    1d84:	44e00513          	li	a0,1102
    1d88:	02e69263          	bne	a3,a4,1dac <tos_ring_q_destroy+0x30>
    1d8c:	0007a023          	sw	zero,0(a5)
    1d90:	0007a223          	sw	zero,4(a5)
    1d94:	0007a423          	sw	zero,8(a5)
    1d98:	0007a623          	sw	zero,12(a5)
    1d9c:	0007a823          	sw	zero,16(a5)
    1da0:	0007aa23          	sw	zero,20(a5)
    1da4:	4501                	li	a0,0
    1da6:	8082                	ret
    1da8:	44c00513          	li	a0,1100
    1dac:	8082                	ret

00001dae <tos_ring_q_is_empty>:
    1dae:	1141                	addi	sp,sp,-16
    1db0:	c422                	sw	s0,8(sp)
    1db2:	c606                	sw	ra,12(sp)
    1db4:	4401                	li	s0,0
    1db6:	c909                	beqz	a0,1dc8 <tos_ring_q_is_empty+0x1a>
    1db8:	842a                	mv	s0,a0
    1dba:	479010ef          	jal	ra,3a32 <tos_cpu_cpsr_save>
    1dbe:	4400                	lw	s0,8(s0)
    1dc0:	00143413          	seqz	s0,s0
    1dc4:	473010ef          	jal	ra,3a36 <tos_cpu_cpsr_restore>
    1dc8:	8522                	mv	a0,s0
    1dca:	40b2                	lw	ra,12(sp)
    1dcc:	4422                	lw	s0,8(sp)
    1dce:	0141                	addi	sp,sp,16
    1dd0:	8082                	ret

00001dd2 <tos_ring_q_dequeue>:
    1dd2:	cd25                	beqz	a0,1e4a <tos_ring_q_dequeue+0x78>
    1dd4:	1101                	addi	sp,sp,-32
    1dd6:	cc22                	sw	s0,24(sp)
    1dd8:	ce06                	sw	ra,28(sp)
    1dda:	ca26                	sw	s1,20(sp)
    1ddc:	c84a                	sw	s2,16(sp)
    1dde:	c64e                	sw	s3,12(sp)
    1de0:	842a                	mv	s0,a0
    1de2:	44c00513          	li	a0,1100
    1de6:	cd91                	beqz	a1,1e02 <tos_ring_q_dequeue+0x30>
    1de8:	84b2                	mv	s1,a2
    1dea:	892e                	mv	s2,a1
    1dec:	447010ef          	jal	ra,3a32 <tos_cpu_cpsr_save>
    1df0:	89aa                	mv	s3,a0
    1df2:	8522                	mv	a0,s0
    1df4:	3f6d                	jal	1dae <tos_ring_q_is_empty>
    1df6:	cd09                	beqz	a0,1e10 <tos_ring_q_dequeue+0x3e>
    1df8:	854e                	mv	a0,s3
    1dfa:	43d010ef          	jal	ra,3a36 <tos_cpu_cpsr_restore>
    1dfe:	5dd00513          	li	a0,1501
    1e02:	40f2                	lw	ra,28(sp)
    1e04:	4462                	lw	s0,24(sp)
    1e06:	44d2                	lw	s1,20(sp)
    1e08:	4942                	lw	s2,16(sp)
    1e0a:	49b2                	lw	s3,12(sp)
    1e0c:	6105                	addi	sp,sp,32
    1e0e:	8082                	ret
    1e10:	4810                	lw	a2,16(s0)
    1e12:	00445783          	lhu	a5,4(s0)
    1e16:	444c                	lw	a1,12(s0)
    1e18:	854a                	mv	a0,s2
    1e1a:	02c787b3          	mul	a5,a5,a2
    1e1e:	95be                	add	a1,a1,a5
    1e20:	529050ef          	jal	ra,7b48 <memcpy>
    1e24:	c099                	beqz	s1,1e2a <tos_ring_q_dequeue+0x58>
    1e26:	481c                	lw	a5,16(s0)
    1e28:	c09c                	sw	a5,0(s1)
    1e2a:	00445783          	lhu	a5,4(s0)
    1e2e:	4858                	lw	a4,20(s0)
    1e30:	854e                	mv	a0,s3
    1e32:	0785                	addi	a5,a5,1
    1e34:	02e7f7b3          	remu	a5,a5,a4
    1e38:	00f41223          	sh	a5,4(s0)
    1e3c:	441c                	lw	a5,8(s0)
    1e3e:	17fd                	addi	a5,a5,-1
    1e40:	c41c                	sw	a5,8(s0)
    1e42:	3f5010ef          	jal	ra,3a36 <tos_cpu_cpsr_restore>
    1e46:	4501                	li	a0,0
    1e48:	bf6d                	j	1e02 <tos_ring_q_dequeue+0x30>
    1e4a:	44c00513          	li	a0,1100
    1e4e:	8082                	ret

00001e50 <tos_ring_q_is_full>:
    1e50:	1141                	addi	sp,sp,-16
    1e52:	c422                	sw	s0,8(sp)
    1e54:	c606                	sw	ra,12(sp)
    1e56:	c226                	sw	s1,4(sp)
    1e58:	4401                	li	s0,0
    1e5a:	c919                	beqz	a0,1e70 <tos_ring_q_is_full+0x20>
    1e5c:	84aa                	mv	s1,a0
    1e5e:	3d5010ef          	jal	ra,3a32 <tos_cpu_cpsr_save>
    1e62:	48dc                	lw	a5,20(s1)
    1e64:	4480                	lw	s0,8(s1)
    1e66:	8c1d                	sub	s0,s0,a5
    1e68:	00143413          	seqz	s0,s0
    1e6c:	3cb010ef          	jal	ra,3a36 <tos_cpu_cpsr_restore>
    1e70:	8522                	mv	a0,s0
    1e72:	40b2                	lw	ra,12(sp)
    1e74:	4422                	lw	s0,8(sp)
    1e76:	4492                	lw	s1,4(sp)
    1e78:	0141                	addi	sp,sp,16
    1e7a:	8082                	ret

00001e7c <tos_ring_q_enqueue>:
    1e7c:	c92d                	beqz	a0,1eee <tos_ring_q_enqueue+0x72>
    1e7e:	1101                	addi	sp,sp,-32
    1e80:	cc22                	sw	s0,24(sp)
    1e82:	ce06                	sw	ra,28(sp)
    1e84:	ca26                	sw	s1,20(sp)
    1e86:	842a                	mv	s0,a0
    1e88:	44c00513          	li	a0,1100
    1e8c:	c19d                	beqz	a1,1eb2 <tos_ring_q_enqueue+0x36>
    1e8e:	481c                	lw	a5,16(s0)
    1e90:	5de00513          	li	a0,1502
    1e94:	00c79f63          	bne	a5,a2,1eb2 <tos_ring_q_enqueue+0x36>
    1e98:	c62e                	sw	a1,12(sp)
    1e9a:	399010ef          	jal	ra,3a32 <tos_cpu_cpsr_save>
    1e9e:	84aa                	mv	s1,a0
    1ea0:	8522                	mv	a0,s0
    1ea2:	377d                	jal	1e50 <tos_ring_q_is_full>
    1ea4:	45b2                	lw	a1,12(sp)
    1ea6:	c919                	beqz	a0,1ebc <tos_ring_q_enqueue+0x40>
    1ea8:	8526                	mv	a0,s1
    1eaa:	38d010ef          	jal	ra,3a36 <tos_cpu_cpsr_restore>
    1eae:	5dc00513          	li	a0,1500
    1eb2:	40f2                	lw	ra,28(sp)
    1eb4:	4462                	lw	s0,24(sp)
    1eb6:	44d2                	lw	s1,20(sp)
    1eb8:	6105                	addi	sp,sp,32
    1eba:	8082                	ret
    1ebc:	4810                	lw	a2,16(s0)
    1ebe:	00645783          	lhu	a5,6(s0)
    1ec2:	4448                	lw	a0,12(s0)
    1ec4:	02c787b3          	mul	a5,a5,a2
    1ec8:	953e                	add	a0,a0,a5
    1eca:	47f050ef          	jal	ra,7b48 <memcpy>
    1ece:	00645783          	lhu	a5,6(s0)
    1ed2:	4858                	lw	a4,20(s0)
    1ed4:	8526                	mv	a0,s1
    1ed6:	0785                	addi	a5,a5,1
    1ed8:	02e7f7b3          	remu	a5,a5,a4
    1edc:	00f41323          	sh	a5,6(s0)
    1ee0:	441c                	lw	a5,8(s0)
    1ee2:	0785                	addi	a5,a5,1
    1ee4:	c41c                	sw	a5,8(s0)
    1ee6:	351010ef          	jal	ra,3a36 <tos_cpu_cpsr_restore>
    1eea:	4501                	li	a0,0
    1eec:	b7d9                	j	1eb2 <tos_ring_q_enqueue+0x36>
    1eee:	44c00513          	li	a0,1100
    1ef2:	8082                	ret

00001ef4 <readyqueue_prio_mark>:
    1ef4:	00555793          	srli	a5,a0,0x5
    1ef8:	07d1                	addi	a5,a5,20
    1efa:	20002737          	lui	a4,0x20002
    1efe:	46870713          	addi	a4,a4,1128 # 20002468 <k_rdyq>
    1f02:	078a                	slli	a5,a5,0x2
    1f04:	97ba                	add	a5,a5,a4
    1f06:	fff54613          	not	a2,a0
    1f0a:	4685                	li	a3,1
    1f0c:	00c696b3          	sll	a3,a3,a2
    1f10:	4390                	lw	a2,0(a5)
    1f12:	8ed1                	or	a3,a3,a2
    1f14:	c394                	sw	a3,0(a5)
    1f16:	05474783          	lbu	a5,84(a4)
    1f1a:	00f57463          	bgeu	a0,a5,1f22 <readyqueue_prio_mark+0x2e>
    1f1e:	04a70a23          	sb	a0,84(a4)
    1f22:	8082                	ret

00001f24 <readyqueue_highest_ready_task_get>:
    1f24:	200027b7          	lui	a5,0x20002
    1f28:	46878713          	addi	a4,a5,1128 # 20002468 <k_rdyq>
    1f2c:	05474783          	lbu	a5,84(a4)
    1f30:	078e                	slli	a5,a5,0x3
    1f32:	97ba                	add	a5,a5,a4
    1f34:	4388                	lw	a0,0(a5)
    1f36:	fb050513          	addi	a0,a0,-80
    1f3a:	8082                	ret

00001f3c <readyqueue_init>:
    1f3c:	20002737          	lui	a4,0x20002
    1f40:	46870793          	addi	a5,a4,1128 # 20002468 <k_rdyq>
    1f44:	46a9                	li	a3,10
    1f46:	04d78a23          	sb	a3,84(a5)
    1f4a:	46870713          	addi	a4,a4,1128
    1f4e:	05078693          	addi	a3,a5,80
    1f52:	c39c                	sw	a5,0(a5)
    1f54:	c3dc                	sw	a5,4(a5)
    1f56:	07a1                	addi	a5,a5,8
    1f58:	fef69de3          	bne	a3,a5,1f52 <readyqueue_init+0x16>
    1f5c:	04072823          	sw	zero,80(a4)
    1f60:	8082                	ret

00001f62 <readyqueue_add_head>:
    1f62:	1101                	addi	sp,sp,-32
    1f64:	cc22                	sw	s0,24(sp)
    1f66:	ca26                	sw	s1,20(sp)
    1f68:	c84a                	sw	s2,16(sp)
    1f6a:	c64e                	sw	s3,12(sp)
    1f6c:	ce06                	sw	ra,28(sp)
    1f6e:	892a                	mv	s2,a0
    1f70:	02154503          	lbu	a0,33(a0)
    1f74:	200027b7          	lui	a5,0x20002
    1f78:	46878493          	addi	s1,a5,1128 # 20002468 <k_rdyq>
    1f7c:	00351993          	slli	s3,a0,0x3
    1f80:	94ce                	add	s1,s1,s3
    1f82:	4098                	lw	a4,0(s1)
    1f84:	46878413          	addi	s0,a5,1128
    1f88:	00e49363          	bne	s1,a4,1f8e <readyqueue_add_head+0x2c>
    1f8c:	37a5                	jal	1ef4 <readyqueue_prio_mark>
    1f8e:	013407b3          	add	a5,s0,s3
    1f92:	4394                	lw	a3,0(a5)
    1f94:	05090713          	addi	a4,s2,80
    1f98:	40f2                	lw	ra,28(sp)
    1f9a:	4462                	lw	s0,24(sp)
    1f9c:	c2d8                	sw	a4,4(a3)
    1f9e:	04992a23          	sw	s1,84(s2)
    1fa2:	04d92823          	sw	a3,80(s2)
    1fa6:	c398                	sw	a4,0(a5)
    1fa8:	44d2                	lw	s1,20(sp)
    1faa:	4942                	lw	s2,16(sp)
    1fac:	49b2                	lw	s3,12(sp)
    1fae:	6105                	addi	sp,sp,32
    1fb0:	8082                	ret

00001fb2 <readyqueue_add_tail>:
    1fb2:	1101                	addi	sp,sp,-32
    1fb4:	cc22                	sw	s0,24(sp)
    1fb6:	ca26                	sw	s1,20(sp)
    1fb8:	c84a                	sw	s2,16(sp)
    1fba:	c64e                	sw	s3,12(sp)
    1fbc:	ce06                	sw	ra,28(sp)
    1fbe:	892a                	mv	s2,a0
    1fc0:	02154503          	lbu	a0,33(a0)
    1fc4:	200027b7          	lui	a5,0x20002
    1fc8:	46878493          	addi	s1,a5,1128 # 20002468 <k_rdyq>
    1fcc:	00351993          	slli	s3,a0,0x3
    1fd0:	94ce                	add	s1,s1,s3
    1fd2:	4098                	lw	a4,0(s1)
    1fd4:	46878413          	addi	s0,a5,1128
    1fd8:	00e49363          	bne	s1,a4,1fde <readyqueue_add_tail+0x2c>
    1fdc:	3f21                	jal	1ef4 <readyqueue_prio_mark>
    1fde:	013407b3          	add	a5,s0,s3
    1fe2:	43d8                	lw	a4,4(a5)
    1fe4:	05090693          	addi	a3,s2,80
    1fe8:	40f2                	lw	ra,28(sp)
    1fea:	4462                	lw	s0,24(sp)
    1fec:	04992823          	sw	s1,80(s2)
    1ff0:	04e92a23          	sw	a4,84(s2)
    1ff4:	c3d4                	sw	a3,4(a5)
    1ff6:	c314                	sw	a3,0(a4)
    1ff8:	44d2                	lw	s1,20(sp)
    1ffa:	4942                	lw	s2,16(sp)
    1ffc:	49b2                	lw	s3,12(sp)
    1ffe:	6105                	addi	sp,sp,32
    2000:	8082                	ret

00002002 <readyqueue_add>:
    2002:	8481a783          	lw	a5,-1976(gp) # 20000298 <k_curr_task>
    2006:	02154703          	lbu	a4,33(a0)
    200a:	0217c783          	lbu	a5,33(a5)
    200e:	00f71363          	bne	a4,a5,2014 <readyqueue_add+0x12>
    2012:	b745                	j	1fb2 <readyqueue_add_tail>
    2014:	b7b9                	j	1f62 <readyqueue_add_head>

00002016 <readyqueue_remove>:
    2016:	1141                	addi	sp,sp,-16
    2018:	c422                	sw	s0,8(sp)
    201a:	c606                	sw	ra,12(sp)
    201c:	c226                	sw	s1,4(sp)
    201e:	842a                	mv	s0,a0
    2020:	2129                	jal	242a <knl_is_idle>
    2022:	e925                	bnez	a0,2092 <readyqueue_remove+0x7c>
    2024:	487c                	lw	a5,84(s0)
    2026:	4838                	lw	a4,80(s0)
    2028:	02144603          	lbu	a2,33(s0)
    202c:	200024b7          	lui	s1,0x20002
    2030:	c35c                	sw	a5,4(a4)
    2032:	c398                	sw	a4,0(a5)
    2034:	46848713          	addi	a4,s1,1128 # 20002468 <k_rdyq>
    2038:	00361793          	slli	a5,a2,0x3
    203c:	97ba                	add	a5,a5,a4
    203e:	4398                	lw	a4,0(a5)
    2040:	46848493          	addi	s1,s1,1128
    2044:	02f71163          	bne	a4,a5,2066 <readyqueue_remove+0x50>
    2048:	00565793          	srli	a5,a2,0x5
    204c:	07d1                	addi	a5,a5,20
    204e:	078a                	slli	a5,a5,0x2
    2050:	97a6                	add	a5,a5,s1
    2052:	4685                	li	a3,1
    2054:	fff64713          	not	a4,a2
    2058:	00e69733          	sll	a4,a3,a4
    205c:	4394                	lw	a3,0(a5)
    205e:	fff74713          	not	a4,a4
    2062:	8f75                	and	a4,a4,a3
    2064:	c398                	sw	a4,0(a5)
    2066:	0544c783          	lbu	a5,84(s1)
    206a:	02c79463          	bne	a5,a2,2092 <readyqueue_remove+0x7c>
    206e:	200027b7          	lui	a5,0x20002
    2072:	4401                	li	s0,0
    2074:	4b878793          	addi	a5,a5,1208 # 200024b8 <k_rdyq+0x50>
    2078:	a031                	j	2084 <readyqueue_remove+0x6e>
    207a:	02040413          	addi	s0,s0,32
    207e:	0ff47413          	andi	s0,s0,255
    2082:	0791                	addi	a5,a5,4
    2084:	4388                	lw	a0,0(a5)
    2086:	d975                	beqz	a0,207a <readyqueue_remove+0x64>
    2088:	26f010ef          	jal	ra,3af6 <tos_cpu_clz>
    208c:	9522                	add	a0,a0,s0
    208e:	04a48a23          	sb	a0,84(s1)
    2092:	40b2                	lw	ra,12(sp)
    2094:	4422                	lw	s0,8(sp)
    2096:	4492                	lw	s1,4(sp)
    2098:	0141                	addi	sp,sp,16
    209a:	8082                	ret

0000209c <sem_do_post>:
    209c:	c53d                	beqz	a0,210a <sem_do_post+0x6e>
    209e:	1101                	addi	sp,sp,-32
    20a0:	cc22                	sw	s0,24(sp)
    20a2:	ca26                	sw	s1,20(sp)
    20a4:	842a                	mv	s0,a0
    20a6:	c84a                	sw	s2,16(sp)
    20a8:	ce06                	sw	ra,28(sp)
    20aa:	c64e                	sw	s3,12(sp)
    20ac:	84ae                	mv	s1,a1
    20ae:	185010ef          	jal	ra,3a32 <tos_cpu_cpsr_save>
    20b2:	00c45703          	lhu	a4,12(s0)
    20b6:	00e45783          	lhu	a5,14(s0)
    20ba:	892a                	mv	s2,a0
    20bc:	00f71d63          	bne	a4,a5,20d6 <sem_do_post+0x3a>
    20c0:	177010ef          	jal	ra,3a36 <tos_cpu_cpsr_restore>
    20c4:	70800513          	li	a0,1800
    20c8:	40f2                	lw	ra,28(sp)
    20ca:	4462                	lw	s0,24(sp)
    20cc:	44d2                	lw	s1,20(sp)
    20ce:	4942                	lw	s2,16(sp)
    20d0:	49b2                	lw	s3,12(sp)
    20d2:	6105                	addi	sp,sp,32
    20d4:	8082                	ret
    20d6:	00440993          	addi	s3,s0,4
    20da:	854e                	mv	a0,s3
    20dc:	b6dff0ef          	jal	ra,1c48 <pend_is_nopending>
    20e0:	c919                	beqz	a0,20f6 <sem_do_post+0x5a>
    20e2:	00c45783          	lhu	a5,12(s0)
    20e6:	854a                	mv	a0,s2
    20e8:	0785                	addi	a5,a5,1
    20ea:	00f41623          	sh	a5,12(s0)
    20ee:	149010ef          	jal	ra,3a36 <tos_cpu_cpsr_restore>
    20f2:	4501                	li	a0,0
    20f4:	bfd1                	j	20c8 <sem_do_post+0x2c>
    20f6:	8626                	mv	a2,s1
    20f8:	4585                	li	a1,1
    20fa:	854e                	mv	a0,s3
    20fc:	c59ff0ef          	jal	ra,1d54 <pend_wakeup>
    2100:	854a                	mv	a0,s2
    2102:	135010ef          	jal	ra,3a36 <tos_cpu_cpsr_restore>
    2106:	2449                	jal	2388 <knl_sched>
    2108:	b7ed                	j	20f2 <sem_do_post+0x56>
    210a:	44c00513          	li	a0,1100
    210e:	8082                	ret

00002110 <tos_sem_create_max>:
    2110:	c51d                	beqz	a0,213e <tos_sem_create_max+0x2e>
    2112:	1141                	addi	sp,sp,-16
    2114:	c606                	sw	ra,12(sp)
    2116:	c422                	sw	s0,8(sp)
    2118:	87ae                	mv	a5,a1
    211a:	00b67363          	bgeu	a2,a1,2120 <tos_sem_create_max+0x10>
    211e:	87b2                	mv	a5,a2
    2120:	00f51623          	sh	a5,12(a0)
    2124:	842a                	mv	s0,a0
    2126:	00c51723          	sh	a2,14(a0)
    212a:	0511                	addi	a0,a0,4
    212c:	b11ff0ef          	jal	ra,1c3c <pend_object_init>
    2130:	4785                	li	a5,1
    2132:	c01c                	sw	a5,0(s0)
    2134:	40b2                	lw	ra,12(sp)
    2136:	4422                	lw	s0,8(sp)
    2138:	4501                	li	a0,0
    213a:	0141                	addi	sp,sp,16
    213c:	8082                	ret
    213e:	44c00513          	li	a0,1100
    2142:	8082                	ret

00002144 <tos_sem_create>:
    2144:	6641                	lui	a2,0x10
    2146:	167d                	addi	a2,a2,-1
    2148:	b7e1                	j	2110 <tos_sem_create_max>

0000214a <tos_sem_destroy>:
    214a:	c539                	beqz	a0,2198 <tos_sem_destroy+0x4e>
    214c:	4114                	lw	a3,0(a0)
    214e:	4705                	li	a4,1
    2150:	44e00793          	li	a5,1102
    2154:	04e69463          	bne	a3,a4,219c <tos_sem_destroy+0x52>
    2158:	1141                	addi	sp,sp,-16
    215a:	c422                	sw	s0,8(sp)
    215c:	842a                	mv	s0,a0
    215e:	c606                	sw	ra,12(sp)
    2160:	c226                	sw	s1,4(sp)
    2162:	c04a                	sw	s2,0(sp)
    2164:	00440493          	addi	s1,s0,4
    2168:	0cb010ef          	jal	ra,3a32 <tos_cpu_cpsr_save>
    216c:	458d                	li	a1,3
    216e:	892a                	mv	s2,a0
    2170:	8526                	mv	a0,s1
    2172:	ba7ff0ef          	jal	ra,1d18 <pend_wakeup_all>
    2176:	8526                	mv	a0,s1
    2178:	acbff0ef          	jal	ra,1c42 <pend_object_deinit>
    217c:	854a                	mv	a0,s2
    217e:	00042023          	sw	zero,0(s0)
    2182:	0b5010ef          	jal	ra,3a36 <tos_cpu_cpsr_restore>
    2186:	2409                	jal	2388 <knl_sched>
    2188:	40b2                	lw	ra,12(sp)
    218a:	4422                	lw	s0,8(sp)
    218c:	4781                	li	a5,0
    218e:	4492                	lw	s1,4(sp)
    2190:	4902                	lw	s2,0(sp)
    2192:	853e                	mv	a0,a5
    2194:	0141                	addi	sp,sp,16
    2196:	8082                	ret
    2198:	44c00793          	li	a5,1100
    219c:	853e                	mv	a0,a5
    219e:	8082                	ret

000021a0 <tos_sem_post>:
    21a0:	4581                	li	a1,0
    21a2:	bded                	j	209c <sem_do_post>

000021a4 <tos_sem_pend>:
    21a4:	1101                	addi	sp,sp,-32
    21a6:	cc22                	sw	s0,24(sp)
    21a8:	c64e                	sw	s3,12(sp)
    21aa:	c452                	sw	s4,8(sp)
    21ac:	ce06                	sw	ra,28(sp)
    21ae:	ca26                	sw	s1,20(sp)
    21b0:	c84a                	sw	s2,16(sp)
    21b2:	842a                	mv	s0,a0
    21b4:	8a2e                	mv	s4,a1
    21b6:	89b2                	mv	s3,a2
    21b8:	24a5                	jal	2420 <knl_is_inirq>
    21ba:	ed35                	bnez	a0,2236 <tos_sem_pend+0x92>
    21bc:	c041                	beqz	s0,223c <tos_sem_pend+0x98>
    21be:	075010ef          	jal	ra,3a32 <tos_cpu_cpsr_save>
    21c2:	00c45783          	lhu	a5,12(s0)
    21c6:	892a                	mv	s2,a0
    21c8:	cf99                	beqz	a5,21e6 <tos_sem_pend+0x42>
    21ca:	17fd                	addi	a5,a5,-1
    21cc:	00f41623          	sh	a5,12(s0)
    21d0:	067010ef          	jal	ra,3a36 <tos_cpu_cpsr_restore>
    21d4:	4501                	li	a0,0
    21d6:	40f2                	lw	ra,28(sp)
    21d8:	4462                	lw	s0,24(sp)
    21da:	44d2                	lw	s1,20(sp)
    21dc:	4942                	lw	s2,16(sp)
    21de:	49b2                	lw	s3,12(sp)
    21e0:	4a22                	lw	s4,8(sp)
    21e2:	6105                	addi	sp,sp,32
    21e4:	8082                	ret
    21e6:	013a67b3          	or	a5,s4,s3
    21ea:	e791                	bnez	a5,21f6 <tos_sem_pend+0x52>
    21ec:	04b010ef          	jal	ra,3a36 <tos_cpu_cpsr_restore>
    21f0:	4b000513          	li	a0,1200
    21f4:	b7cd                	j	21d6 <tos_sem_pend+0x32>
    21f6:	2405                	jal	2416 <knl_is_sched_locked>
    21f8:	c519                	beqz	a0,2206 <tos_sem_pend+0x62>
    21fa:	854a                	mv	a0,s2
    21fc:	03b010ef          	jal	ra,3a36 <tos_cpu_cpsr_restore>
    2200:	4b100513          	li	a0,1201
    2204:	bfc9                	j	21d6 <tos_sem_pend+0x32>
    2206:	8481a503          	lw	a0,-1976(gp) # 20000298 <k_curr_task>
    220a:	8652                	mv	a2,s4
    220c:	86ce                	mv	a3,s3
    220e:	00440593          	addi	a1,s0,4
    2212:	abbff0ef          	jal	ra,1ccc <pend_task_block>
    2216:	854a                	mv	a0,s2
    2218:	01f010ef          	jal	ra,3a36 <tos_cpu_cpsr_restore>
    221c:	22b5                	jal	2388 <knl_sched>
    221e:	8481a783          	lw	a5,-1976(gp) # 20000298 <k_curr_task>
    2222:	4462                	lw	s0,24(sp)
    2224:	40f2                	lw	ra,28(sp)
    2226:	44d2                	lw	s1,20(sp)
    2228:	4942                	lw	s2,16(sp)
    222a:	49b2                	lw	s3,12(sp)
    222c:	4a22                	lw	s4,8(sp)
    222e:	57a8                	lw	a0,104(a5)
    2230:	6105                	addi	sp,sp,32
    2232:	a2fff06f          	j	1c60 <pend_state2errno>
    2236:	19000513          	li	a0,400
    223a:	bf71                	j	21d6 <tos_sem_pend+0x32>
    223c:	44c00513          	li	a0,1100
    2240:	bf59                	j	21d6 <tos_sem_pend+0x32>

00002242 <tos_stopwatch_delay>:
    2242:	1101                	addi	sp,sp,-32
    2244:	cc22                	sw	s0,24(sp)
    2246:	ca26                	sw	s1,20(sp)
    2248:	c84a                	sw	s2,16(sp)
    224a:	c64e                	sw	s3,12(sp)
    224c:	ce06                	sw	ra,28(sp)
    224e:	84aa                	mv	s1,a0
    2250:	842e                	mv	s0,a1
    2252:	051000ef          	jal	ra,2aa2 <tos_systick_get>
    2256:	892a                	mv	s2,a0
    2258:	89ae                	mv	s3,a1
    225a:	049000ef          	jal	ra,2aa2 <tos_systick_get>
    225e:	412507b3          	sub	a5,a0,s2
    2262:	00f53533          	sltu	a0,a0,a5
    2266:	413585b3          	sub	a1,a1,s3
    226a:	8d89                	sub	a1,a1,a0
    226c:	fe85e7e3          	bltu	a1,s0,225a <tos_stopwatch_delay+0x18>
    2270:	00b41463          	bne	s0,a1,2278 <tos_stopwatch_delay+0x36>
    2274:	fe97e3e3          	bltu	a5,s1,225a <tos_stopwatch_delay+0x18>
    2278:	40f2                	lw	ra,28(sp)
    227a:	4462                	lw	s0,24(sp)
    227c:	44d2                	lw	s1,20(sp)
    227e:	4942                	lw	s2,16(sp)
    2280:	49b2                	lw	s3,12(sp)
    2282:	6105                	addi	sp,sp,32
    2284:	8082                	ret

00002286 <knl_idle_entry>:
    2286:	a001                	j	2286 <knl_idle_entry>

00002288 <tos_knl_irq_enter>:
    2288:	8501a703          	lw	a4,-1968(gp) # 200002a0 <k_knl_state>
    228c:	4785                	li	a5,1
    228e:	00f71b63          	bne	a4,a5,22a4 <tos_knl_irq_enter+0x1c>
    2292:	84c1c783          	lbu	a5,-1972(gp) # 2000029c <k_irq_nest_cnt>
    2296:	0f900693          	li	a3,249
    229a:	00f6e563          	bltu	a3,a5,22a4 <tos_knl_irq_enter+0x1c>
    229e:	0785                	addi	a5,a5,1
    22a0:	84f18623          	sb	a5,-1972(gp) # 2000029c <k_irq_nest_cnt>
    22a4:	8082                	ret

000022a6 <tos_knl_irq_leave>:
    22a6:	8501a703          	lw	a4,-1968(gp) # 200002a0 <k_knl_state>
    22aa:	4785                	li	a5,1
    22ac:	04f71663          	bne	a4,a5,22f8 <tos_knl_irq_leave+0x52>
    22b0:	1141                	addi	sp,sp,-16
    22b2:	c422                	sw	s0,8(sp)
    22b4:	c606                	sw	ra,12(sp)
    22b6:	77c010ef          	jal	ra,3a32 <tos_cpu_cpsr_save>
    22ba:	84c1c783          	lbu	a5,-1972(gp) # 2000029c <k_irq_nest_cnt>
    22be:	842a                	mv	s0,a0
    22c0:	e791                	bnez	a5,22cc <tos_knl_irq_leave+0x26>
    22c2:	4422                	lw	s0,8(sp)
    22c4:	40b2                	lw	ra,12(sp)
    22c6:	0141                	addi	sp,sp,16
    22c8:	76e0106f          	j	3a36 <tos_cpu_cpsr_restore>
    22cc:	17fd                	addi	a5,a5,-1
    22ce:	0ff7f793          	andi	a5,a5,255
    22d2:	84f18623          	sb	a5,-1972(gp) # 2000029c <k_irq_nest_cnt>
    22d6:	f7f5                	bnez	a5,22c2 <tos_knl_irq_leave+0x1c>
    22d8:	8581c783          	lbu	a5,-1960(gp) # 200002a8 <k_sched_lock_nest_cnt>
    22dc:	f3fd                	bnez	a5,22c2 <tos_knl_irq_leave+0x1c>
    22de:	c47ff0ef          	jal	ra,1f24 <readyqueue_highest_ready_task_get>
    22e2:	84a1aa23          	sw	a0,-1964(gp) # 200002a4 <k_next_task>
    22e6:	8481a783          	lw	a5,-1976(gp) # 20000298 <k_curr_task>
    22ea:	00f51463          	bne	a0,a5,22f2 <tos_knl_irq_leave+0x4c>
    22ee:	8522                	mv	a0,s0
    22f0:	bfc9                	j	22c2 <tos_knl_irq_leave+0x1c>
    22f2:	74c010ef          	jal	ra,3a3e <cpu_irq_context_switch>
    22f6:	bfe5                	j	22ee <tos_knl_irq_leave+0x48>
    22f8:	8082                	ret

000022fa <tos_knl_sched_lock>:
    22fa:	84c1c783          	lbu	a5,-1972(gp) # 2000029c <k_irq_nest_cnt>
    22fe:	19000513          	li	a0,400
    2302:	e3a9                	bnez	a5,2344 <tos_knl_sched_lock+0x4a>
    2304:	8501a703          	lw	a4,-1968(gp) # 200002a0 <k_knl_state>
    2308:	4785                	li	a5,1
    230a:	1f400513          	li	a0,500
    230e:	02f71b63          	bne	a4,a5,2344 <tos_knl_sched_lock+0x4a>
    2312:	1141                	addi	sp,sp,-16
    2314:	c422                	sw	s0,8(sp)
    2316:	8581c703          	lbu	a4,-1960(gp) # 200002a8 <k_sched_lock_nest_cnt>
    231a:	c606                	sw	ra,12(sp)
    231c:	0f900793          	li	a5,249
    2320:	25800513          	li	a0,600
    2324:	00e7ec63          	bltu	a5,a4,233c <tos_knl_sched_lock+0x42>
    2328:	70a010ef          	jal	ra,3a32 <tos_cpu_cpsr_save>
    232c:	8581c783          	lbu	a5,-1960(gp) # 200002a8 <k_sched_lock_nest_cnt>
    2330:	0785                	addi	a5,a5,1
    2332:	84f18c23          	sb	a5,-1960(gp) # 200002a8 <k_sched_lock_nest_cnt>
    2336:	700010ef          	jal	ra,3a36 <tos_cpu_cpsr_restore>
    233a:	4501                	li	a0,0
    233c:	40b2                	lw	ra,12(sp)
    233e:	4422                	lw	s0,8(sp)
    2340:	0141                	addi	sp,sp,16
    2342:	8082                	ret
    2344:	8082                	ret

00002346 <tos_knl_start>:
    2346:	1141                	addi	sp,sp,-16
    2348:	c422                	sw	s0,8(sp)
    234a:	8501a783          	lw	a5,-1968(gp) # 200002a0 <k_knl_state>
    234e:	c226                	sw	s1,4(sp)
    2350:	c606                	sw	ra,12(sp)
    2352:	4485                	li	s1,1
    2354:	1f500513          	li	a0,501
    2358:	00978d63          	beq	a5,s1,2372 <tos_knl_start+0x2c>
    235c:	bc9ff0ef          	jal	ra,1f24 <readyqueue_highest_ready_task_get>
    2360:	84a1aa23          	sw	a0,-1964(gp) # 200002a4 <k_next_task>
    2364:	84a1a423          	sw	a0,-1976(gp) # 20000298 <k_curr_task>
    2368:	8491a823          	sw	s1,-1968(gp) # 200002a0 <k_knl_state>
    236c:	6d6010ef          	jal	ra,3a42 <cpu_sched_start>
    2370:	4501                	li	a0,0
    2372:	40b2                	lw	ra,12(sp)
    2374:	4422                	lw	s0,8(sp)
    2376:	4492                	lw	s1,4(sp)
    2378:	0141                	addi	sp,sp,16
    237a:	8082                	ret

0000237c <tos_knl_is_running>:
    237c:	8501a503          	lw	a0,-1968(gp) # 200002a0 <k_knl_state>
    2380:	157d                	addi	a0,a0,-1
    2382:	00153513          	seqz	a0,a0
    2386:	8082                	ret

00002388 <knl_sched>:
    2388:	8501a703          	lw	a4,-1968(gp) # 200002a0 <k_knl_state>
    238c:	4785                	li	a5,1
    238e:	02f71f63          	bne	a4,a5,23cc <knl_sched+0x44>
    2392:	84c1c783          	lbu	a5,-1972(gp) # 2000029c <k_irq_nest_cnt>
    2396:	8581c703          	lbu	a4,-1960(gp) # 200002a8 <k_sched_lock_nest_cnt>
    239a:	8fd9                	or	a5,a5,a4
    239c:	eb85                	bnez	a5,23cc <knl_sched+0x44>
    239e:	1141                	addi	sp,sp,-16
    23a0:	c606                	sw	ra,12(sp)
    23a2:	c422                	sw	s0,8(sp)
    23a4:	68e010ef          	jal	ra,3a32 <tos_cpu_cpsr_save>
    23a8:	842a                	mv	s0,a0
    23aa:	b7bff0ef          	jal	ra,1f24 <readyqueue_highest_ready_task_get>
    23ae:	84a1aa23          	sw	a0,-1964(gp) # 200002a4 <k_next_task>
    23b2:	8481a783          	lw	a5,-1976(gp) # 20000298 <k_curr_task>
    23b6:	00f51863          	bne	a0,a5,23c6 <knl_sched+0x3e>
    23ba:	8522                	mv	a0,s0
    23bc:	4422                	lw	s0,8(sp)
    23be:	40b2                	lw	ra,12(sp)
    23c0:	0141                	addi	sp,sp,16
    23c2:	6740106f          	j	3a36 <tos_cpu_cpsr_restore>
    23c6:	674010ef          	jal	ra,3a3a <cpu_context_switch>
    23ca:	bfc5                	j	23ba <knl_sched+0x32>
    23cc:	8082                	ret

000023ce <tos_knl_sched_unlock>:
    23ce:	84c1c783          	lbu	a5,-1972(gp) # 2000029c <k_irq_nest_cnt>
    23d2:	19000513          	li	a0,400
    23d6:	ef9d                	bnez	a5,2414 <tos_knl_sched_unlock+0x46>
    23d8:	8501a703          	lw	a4,-1968(gp) # 200002a0 <k_knl_state>
    23dc:	4785                	li	a5,1
    23de:	1f400513          	li	a0,500
    23e2:	02f71963          	bne	a4,a5,2414 <tos_knl_sched_unlock+0x46>
    23e6:	1141                	addi	sp,sp,-16
    23e8:	c422                	sw	s0,8(sp)
    23ea:	8581c783          	lbu	a5,-1960(gp) # 200002a8 <k_sched_lock_nest_cnt>
    23ee:	c606                	sw	ra,12(sp)
    23f0:	6a500513          	li	a0,1701
    23f4:	cf81                	beqz	a5,240c <tos_knl_sched_unlock+0x3e>
    23f6:	63c010ef          	jal	ra,3a32 <tos_cpu_cpsr_save>
    23fa:	8581c783          	lbu	a5,-1960(gp) # 200002a8 <k_sched_lock_nest_cnt>
    23fe:	17fd                	addi	a5,a5,-1
    2400:	84f18c23          	sb	a5,-1960(gp) # 200002a8 <k_sched_lock_nest_cnt>
    2404:	632010ef          	jal	ra,3a36 <tos_cpu_cpsr_restore>
    2408:	3741                	jal	2388 <knl_sched>
    240a:	4501                	li	a0,0
    240c:	40b2                	lw	ra,12(sp)
    240e:	4422                	lw	s0,8(sp)
    2410:	0141                	addi	sp,sp,16
    2412:	8082                	ret
    2414:	8082                	ret

00002416 <knl_is_sched_locked>:
    2416:	8581c503          	lbu	a0,-1960(gp) # 200002a8 <k_sched_lock_nest_cnt>
    241a:	00a03533          	snez	a0,a0
    241e:	8082                	ret

00002420 <knl_is_inirq>:
    2420:	84c1c503          	lbu	a0,-1972(gp) # 2000029c <k_irq_nest_cnt>
    2424:	00a03533          	snez	a0,a0
    2428:	8082                	ret

0000242a <knl_is_idle>:
    242a:	2000b7b7          	lui	a5,0x2000b
    242e:	34878793          	addi	a5,a5,840 # 2000b348 <k_idle_task>
    2432:	8d1d                	sub	a0,a0,a5
    2434:	00153513          	seqz	a0,a0
    2438:	8082                	ret

0000243a <knl_is_self>:
    243a:	8481a783          	lw	a5,-1976(gp) # 20000298 <k_curr_task>
    243e:	40a78533          	sub	a0,a5,a0
    2442:	00153513          	seqz	a0,a0
    2446:	8082                	ret

00002448 <knl_idle_init>:
    2448:	82c1a803          	lw	a6,-2004(gp) # 2000027c <k_idle_task_stk_size>
    244c:	8281a783          	lw	a5,-2008(gp) # 20000278 <k_idle_task_stk_addr>
    2450:	00002637          	lui	a2,0x2
    2454:	0000a5b7          	lui	a1,0xa
    2458:	2000b537          	lui	a0,0x2000b
    245c:	4881                	li	a7,0
    245e:	4725                	li	a4,9
    2460:	4681                	li	a3,0
    2462:	28660613          	addi	a2,a2,646 # 2286 <knl_idle_entry>
    2466:	e4458593          	addi	a1,a1,-444 # 9e44 <_sbrk+0x80>
    246a:	34850513          	addi	a0,a0,840 # 2000b348 <k_idle_task>
    246e:	a8fd                	j	256c <tos_task_create>

00002470 <tos_knl_init>:
    2470:	1141                	addi	sp,sp,-16
    2472:	c606                	sw	ra,12(sp)
    2474:	5f2010ef          	jal	ra,3a66 <cpu_init>
    2478:	ac5ff0ef          	jal	ra,1f3c <readyqueue_init>
    247c:	20002537          	lui	a0,0x20002
    2480:	65a1                	lui	a1,0x8
    2482:	4c050513          	addi	a0,a0,1216 # 200024c0 <k_mmheap_default_pool>
    2486:	c34ff0ef          	jal	ra,18ba <mmheap_init_with_pool>
    248a:	e519                	bnez	a0,2498 <tos_knl_init+0x28>
    248c:	3f75                	jal	2448 <knl_idle_init>
    248e:	e509                	bnez	a0,2498 <tos_knl_init+0x28>
    2490:	40b2                	lw	ra,12(sp)
    2492:	0141                	addi	sp,sp,16
    2494:	7f00006f          	j	2c84 <soft_timer_init>
    2498:	40b2                	lw	ra,12(sp)
    249a:	0141                	addi	sp,sp,16
    249c:	8082                	ret

0000249e <task_do_destroy.part.13>:
    249e:	1101                	addi	sp,sp,-32
    24a0:	cc22                	sw	s0,24(sp)
    24a2:	c84a                	sw	s2,16(sp)
    24a4:	842a                	mv	s0,a0
    24a6:	c64e                	sw	s3,12(sp)
    24a8:	ce06                	sw	ra,28(sp)
    24aa:	ca26                	sw	s1,20(sp)
    24ac:	586010ef          	jal	ra,3a32 <tos_cpu_cpsr_save>
    24b0:	4c3c                	lw	a5,88(s0)
    24b2:	05840913          	addi	s2,s0,88
    24b6:	89aa                	mv	s3,a0
    24b8:	08f91b63          	bne	s2,a5,254e <task_do_destroy.part.13+0xb0>
    24bc:	02044783          	lbu	a5,32(s0)
    24c0:	e781                	bnez	a5,24c8 <task_do_destroy.part.13+0x2a>
    24c2:	8522                	mv	a0,s0
    24c4:	b53ff0ef          	jal	ra,2016 <readyqueue_remove>
    24c8:	02044783          	lbu	a5,32(s0)
    24cc:	8b85                	andi	a5,a5,1
    24ce:	c399                	beqz	a5,24d4 <task_do_destroy.part.13+0x36>
    24d0:	8522                	mv	a0,s0
    24d2:	29ad                	jal	294c <tick_list_remove>
    24d4:	02044783          	lbu	a5,32(s0)
    24d8:	8b89                	andi	a5,a5,2
    24da:	c781                	beqz	a5,24e2 <task_do_destroy.part.13+0x44>
    24dc:	8522                	mv	a0,s0
    24de:	f46ff0ef          	jal	ra,1c24 <pend_list_remove>
    24e2:	5c1c                	lw	a5,56(s0)
    24e4:	5858                	lw	a4,52(s0)
    24e6:	854e                	mv	a0,s3
    24e8:	c35c                	sw	a5,4(a4)
    24ea:	c398                	sw	a4,0(a5)
    24ec:	02c40793          	addi	a5,s0,44
    24f0:	d45c                	sw	a5,44(s0)
    24f2:	d81c                	sw	a5,48(s0)
    24f4:	03440793          	addi	a5,s0,52
    24f8:	d85c                	sw	a5,52(s0)
    24fa:	dc1c                	sw	a5,56(s0)
    24fc:	04840793          	addi	a5,s0,72
    2500:	c43c                	sw	a5,72(s0)
    2502:	c47c                	sw	a5,76(s0)
    2504:	05040793          	addi	a5,s0,80
    2508:	c83c                	sw	a5,80(s0)
    250a:	c87c                	sw	a5,84(s0)
    250c:	47a9                	li	a5,10
    250e:	06f40023          	sb	a5,96(s0)
    2512:	47a1                	li	a5,8
    2514:	05242c23          	sw	s2,88(s0)
    2518:	05242e23          	sw	s2,92(s0)
    251c:	02f40023          	sb	a5,32(s0)
    2520:	00042223          	sw	zero,4(s0)
    2524:	06042423          	sw	zero,104(s0)
    2528:	06042223          	sw	zero,100(s0)
    252c:	06042623          	sw	zero,108(s0)
    2530:	06042823          	sw	zero,112(s0)
    2534:	06042a23          	sw	zero,116(s0)
    2538:	4fe010ef          	jal	ra,3a36 <tos_cpu_cpsr_restore>
    253c:	35b1                	jal	2388 <knl_sched>
    253e:	40f2                	lw	ra,28(sp)
    2540:	4462                	lw	s0,24(sp)
    2542:	44d2                	lw	s1,20(sp)
    2544:	4942                	lw	s2,16(sp)
    2546:	49b2                	lw	s3,12(sp)
    2548:	4501                	li	a0,0
    254a:	6105                	addi	sp,sp,32
    254c:	8082                	ret
    254e:	4384                	lw	s1,0(a5)
    2550:	fe878513          	addi	a0,a5,-24
    2554:	14a1                	addi	s1,s1,-24
    2556:	01850793          	addi	a5,a0,24
    255a:	f6f901e3          	beq	s2,a5,24bc <task_do_destroy.part.13+0x1e>
    255e:	bccff0ef          	jal	ra,192a <mutex_release>
    2562:	4c9c                	lw	a5,24(s1)
    2564:	8526                	mv	a0,s1
    2566:	fe878493          	addi	s1,a5,-24
    256a:	b7f5                	j	2556 <task_do_destroy.part.13+0xb8>

0000256c <tos_task_create>:
    256c:	1101                	addi	sp,sp,-32
    256e:	cc22                	sw	s0,24(sp)
    2570:	ca26                	sw	s1,20(sp)
    2572:	c84a                	sw	s2,16(sp)
    2574:	c64e                	sw	s3,12(sp)
    2576:	c452                	sw	s4,8(sp)
    2578:	c256                	sw	s5,4(sp)
    257a:	c05a                	sw	s6,0(sp)
    257c:	ce06                	sw	ra,28(sp)
    257e:	842a                	mv	s0,a0
    2580:	8b2e                	mv	s6,a1
    2582:	8932                	mv	s2,a2
    2584:	8ab6                	mv	s5,a3
    2586:	84ba                	mv	s1,a4
    2588:	89be                	mv	s3,a5
    258a:	8a42                	mv	s4,a6
    258c:	3d51                	jal	2420 <knl_is_inirq>
    258e:	0e051d63          	bnez	a0,2688 <tos_task_create+0x11c>
    2592:	44c00513          	li	a0,1100
    2596:	c471                	beqz	s0,2662 <tos_task_create+0xf6>
    2598:	0c090563          	beqz	s2,2662 <tos_task_create+0xf6>
    259c:	0c098363          	beqz	s3,2662 <tos_task_create+0xf6>
    25a0:	07f00793          	li	a5,127
    25a4:	77400513          	li	a0,1908
    25a8:	0b47fd63          	bgeu	a5,s4,2662 <tos_task_create+0xf6>
    25ac:	47a5                	li	a5,9
    25ae:	0cf49463          	bne	s1,a5,2676 <tos_task_create+0x10a>
    25b2:	8522                	mv	a0,s0
    25b4:	3d9d                	jal	242a <knl_is_idle>
    25b6:	c171                	beqz	a0,267a <tos_task_create+0x10e>
    25b8:	02c40793          	addi	a5,s0,44
    25bc:	d45c                	sw	a5,44(s0)
    25be:	d81c                	sw	a5,48(s0)
    25c0:	04840793          	addi	a5,s0,72
    25c4:	c43c                	sw	a5,72(s0)
    25c6:	c47c                	sw	a5,76(s0)
    25c8:	05040793          	addi	a5,s0,80
    25cc:	c83c                	sw	a5,80(s0)
    25ce:	c87c                	sw	a5,84(s0)
    25d0:	05840793          	addi	a5,s0,88
    25d4:	cc3c                	sw	a5,88(s0)
    25d6:	cc7c                	sw	a5,92(s0)
    25d8:	47a9                	li	a5,10
    25da:	06f40023          	sb	a5,96(s0)
    25de:	200007b7          	lui	a5,0x20000
    25e2:	2587a683          	lw	a3,600(a5) # 20000258 <k_stat_list>
    25e6:	03440713          	addi	a4,s0,52
    25ea:	06042423          	sw	zero,104(s0)
    25ee:	06042223          	sw	zero,100(s0)
    25f2:	06042623          	sw	zero,108(s0)
    25f6:	06042823          	sw	zero,112(s0)
    25fa:	06042a23          	sw	zero,116(s0)
    25fe:	c2d8                	sw	a4,4(a3)
    2600:	24e7ac23          	sw	a4,600(a5)
    2604:	d854                	sw	a3,52(s0)
    2606:	00002637          	lui	a2,0x2
    260a:	25878693          	addi	a3,a5,600
    260e:	4785                	li	a5,1
    2610:	c05c                	sw	a5,4(s0)
    2612:	8752                	mv	a4,s4
    2614:	dc14                	sw	a3,56(s0)
    2616:	6e860613          	addi	a2,a2,1768 # 26e8 <task_exit>
    261a:	86ce                	mv	a3,s3
    261c:	85d6                	mv	a1,s5
    261e:	854a                	mv	a0,s2
    2620:	47c010ef          	jal	ra,3a9c <cpu_task_stk_init>
    2624:	463d                	li	a2,15
    2626:	85da                	mv	a1,s6
    2628:	c008                	sw	a0,0(s0)
    262a:	029400a3          	sb	s1,33(s0)
    262e:	01242c23          	sw	s2,24(s0)
    2632:	01542e23          	sw	s5,28(s0)
    2636:	03342223          	sw	s3,36(s0)
    263a:	03442423          	sw	s4,40(s0)
    263e:	00840513          	addi	a0,s0,8
    2642:	1ba060ef          	jal	ra,87fc <strncpy>
    2646:	3ec010ef          	jal	ra,3a32 <tos_cpu_cpsr_save>
    264a:	84aa                	mv	s1,a0
    264c:	02040023          	sb	zero,32(s0)
    2650:	8522                	mv	a0,s0
    2652:	961ff0ef          	jal	ra,1fb2 <readyqueue_add_tail>
    2656:	8526                	mv	a0,s1
    2658:	3de010ef          	jal	ra,3a36 <tos_cpu_cpsr_restore>
    265c:	d21ff0ef          	jal	ra,237c <tos_knl_is_running>
    2660:	e105                	bnez	a0,2680 <tos_task_create+0x114>
    2662:	40f2                	lw	ra,28(sp)
    2664:	4462                	lw	s0,24(sp)
    2666:	44d2                	lw	s1,20(sp)
    2668:	4942                	lw	s2,16(sp)
    266a:	49b2                	lw	s3,12(sp)
    266c:	4a22                	lw	s4,8(sp)
    266e:	4a92                	lw	s5,4(sp)
    2670:	4b02                	lw	s6,0(sp)
    2672:	6105                	addi	sp,sp,32
    2674:	8082                	ret
    2676:	f497f1e3          	bgeu	a5,s1,25b8 <tos_task_create+0x4c>
    267a:	76f00513          	li	a0,1903
    267e:	b7d5                	j	2662 <tos_task_create+0xf6>
    2680:	d09ff0ef          	jal	ra,2388 <knl_sched>
    2684:	4501                	li	a0,0
    2686:	bff1                	j	2662 <tos_task_create+0xf6>
    2688:	19000513          	li	a0,400
    268c:	bfd9                	j	2662 <tos_task_create+0xf6>

0000268e <tos_task_destroy>:
    268e:	1141                	addi	sp,sp,-16
    2690:	c422                	sw	s0,8(sp)
    2692:	c606                	sw	ra,12(sp)
    2694:	842a                	mv	s0,a0
    2696:	d8bff0ef          	jal	ra,2420 <knl_is_inirq>
    269a:	ed15                	bnez	a0,26d6 <tos_task_destroy+0x48>
    269c:	e019                	bnez	s0,26a2 <tos_task_destroy+0x14>
    269e:	8481a403          	lw	s0,-1976(gp) # 20000298 <k_curr_task>
    26a2:	8522                	mv	a0,s0
    26a4:	d97ff0ef          	jal	ra,243a <knl_is_self>
    26a8:	e10d                	bnez	a0,26ca <tos_task_destroy+0x3c>
    26aa:	4058                	lw	a4,4(s0)
    26ac:	4785                	li	a5,1
    26ae:	44e00513          	li	a0,1102
    26b2:	02f71463          	bne	a4,a5,26da <tos_task_destroy+0x4c>
    26b6:	8522                	mv	a0,s0
    26b8:	d73ff0ef          	jal	ra,242a <knl_is_idle>
    26bc:	e11d                	bnez	a0,26e2 <tos_task_destroy+0x54>
    26be:	8522                	mv	a0,s0
    26c0:	4422                	lw	s0,8(sp)
    26c2:	40b2                	lw	ra,12(sp)
    26c4:	0141                	addi	sp,sp,16
    26c6:	dd9ff06f          	j	249e <task_do_destroy.part.13>
    26ca:	d4dff0ef          	jal	ra,2416 <knl_is_sched_locked>
    26ce:	dd71                	beqz	a0,26aa <tos_task_destroy+0x1c>
    26d0:	6a400513          	li	a0,1700
    26d4:	a019                	j	26da <tos_task_destroy+0x4c>
    26d6:	19000513          	li	a0,400
    26da:	40b2                	lw	ra,12(sp)
    26dc:	4422                	lw	s0,8(sp)
    26de:	0141                	addi	sp,sp,16
    26e0:	8082                	ret
    26e2:	76d00513          	li	a0,1901
    26e6:	bfd5                	j	26da <tos_task_destroy+0x4c>

000026e8 <task_exit>:
    26e8:	4501                	li	a0,0
    26ea:	b755                	j	268e <tos_task_destroy>

000026ec <tos_task_yield>:
    26ec:	1141                	addi	sp,sp,-16
    26ee:	c606                	sw	ra,12(sp)
    26f0:	c422                	sw	s0,8(sp)
    26f2:	c226                	sw	s1,4(sp)
    26f4:	d2dff0ef          	jal	ra,2420 <knl_is_inirq>
    26f8:	e50d                	bnez	a0,2722 <tos_task_yield+0x36>
    26fa:	338010ef          	jal	ra,3a32 <tos_cpu_cpsr_save>
    26fe:	84aa                	mv	s1,a0
    2700:	8481a503          	lw	a0,-1976(gp) # 20000298 <k_curr_task>
    2704:	913ff0ef          	jal	ra,2016 <readyqueue_remove>
    2708:	8481a503          	lw	a0,-1976(gp) # 20000298 <k_curr_task>
    270c:	8a7ff0ef          	jal	ra,1fb2 <readyqueue_add_tail>
    2710:	8526                	mv	a0,s1
    2712:	324010ef          	jal	ra,3a36 <tos_cpu_cpsr_restore>
    2716:	4422                	lw	s0,8(sp)
    2718:	40b2                	lw	ra,12(sp)
    271a:	4492                	lw	s1,4(sp)
    271c:	0141                	addi	sp,sp,16
    271e:	c6bff06f          	j	2388 <knl_sched>
    2722:	40b2                	lw	ra,12(sp)
    2724:	4422                	lw	s0,8(sp)
    2726:	4492                	lw	s1,4(sp)
    2728:	0141                	addi	sp,sp,16
    272a:	8082                	ret

0000272c <tos_task_prio_change>:
    272c:	1101                	addi	sp,sp,-32
    272e:	cc22                	sw	s0,24(sp)
    2730:	c64e                	sw	s3,12(sp)
    2732:	ce06                	sw	ra,28(sp)
    2734:	ca26                	sw	s1,20(sp)
    2736:	c84a                	sw	s2,16(sp)
    2738:	c452                	sw	s4,8(sp)
    273a:	c256                	sw	s5,4(sp)
    273c:	842a                	mv	s0,a0
    273e:	89ae                	mv	s3,a1
    2740:	ce1ff0ef          	jal	ra,2420 <knl_is_inirq>
    2744:	e161                	bnez	a0,2804 <tos_task_prio_change+0xd8>
    2746:	44c00513          	li	a0,1100
    274a:	c015                	beqz	s0,276e <tos_task_prio_change+0x42>
    274c:	47a1                	li	a5,8
    274e:	76f00513          	li	a0,1903
    2752:	0137ee63          	bltu	a5,s3,276e <tos_task_prio_change+0x42>
    2756:	2dc010ef          	jal	ra,3a32 <tos_cpu_cpsr_save>
    275a:	02144783          	lbu	a5,33(s0)
    275e:	8aaa                	mv	s5,a0
    2760:	03379063          	bne	a5,s3,2780 <tos_task_prio_change+0x54>
    2764:	2d2010ef          	jal	ra,3a36 <tos_cpu_cpsr_restore>
    2768:	c21ff0ef          	jal	ra,2388 <knl_sched>
    276c:	4501                	li	a0,0
    276e:	40f2                	lw	ra,28(sp)
    2770:	4462                	lw	s0,24(sp)
    2772:	44d2                	lw	s1,20(sp)
    2774:	4942                	lw	s2,16(sp)
    2776:	49b2                	lw	s3,12(sp)
    2778:	4a22                	lw	s4,8(sp)
    277a:	4a92                	lw	s5,4(sp)
    277c:	6105                	addi	sp,sp,32
    277e:	8082                	ret
    2780:	4c24                	lw	s1,88(s0)
    2782:	05840a13          	addi	s4,s0,88
    2786:	009a1f63          	bne	s4,s1,27a4 <tos_task_prio_change+0x78>
    278a:	894e                	mv	s2,s3
    278c:	02044783          	lbu	a5,32(s0)
    2790:	0027f713          	andi	a4,a5,2
    2794:	c321                	beqz	a4,27d4 <tos_task_prio_change+0xa8>
    2796:	032400a3          	sb	s2,33(s0)
    279a:	8522                	mv	a0,s0
    279c:	cb8ff0ef          	jal	ra,1c54 <pend_list_adjust>
    27a0:	8556                	mv	a0,s5
    27a2:	b7c9                	j	2764 <tos_task_prio_change+0x38>
    27a4:	14a1                	addi	s1,s1,-24
    27a6:	4929                	li	s2,10
    27a8:	01848793          	addi	a5,s1,24
    27ac:	00fa1763          	bne	s4,a5,27ba <tos_task_prio_change+0x8e>
    27b0:	fd397de3          	bgeu	s2,s3,278a <tos_task_prio_change+0x5e>
    27b4:	07340023          	sb	s3,96(s0)
    27b8:	bfd1                	j	278c <tos_task_prio_change+0x60>
    27ba:	00448513          	addi	a0,s1,4
    27be:	c46ff0ef          	jal	ra,1c04 <pend_highest_pending_prio_get>
    27c2:	87aa                	mv	a5,a0
    27c4:	00a97363          	bgeu	s2,a0,27ca <tos_task_prio_change+0x9e>
    27c8:	87ca                	mv	a5,s2
    27ca:	4c84                	lw	s1,24(s1)
    27cc:	0ff7f913          	andi	s2,a5,255
    27d0:	14a1                	addi	s1,s1,-24
    27d2:	bfd9                	j	27a8 <tos_task_prio_change+0x7c>
    27d4:	0017f713          	andi	a4,a5,1
    27d8:	c701                	beqz	a4,27e0 <tos_task_prio_change+0xb4>
    27da:	032400a3          	sb	s2,33(s0)
    27de:	b7c9                	j	27a0 <tos_task_prio_change+0x74>
    27e0:	f3e1                	bnez	a5,27a0 <tos_task_prio_change+0x74>
    27e2:	8522                	mv	a0,s0
    27e4:	833ff0ef          	jal	ra,2016 <readyqueue_remove>
    27e8:	8522                	mv	a0,s0
    27ea:	032400a3          	sb	s2,33(s0)
    27ee:	c4dff0ef          	jal	ra,243a <knl_is_self>
    27f2:	c509                	beqz	a0,27fc <tos_task_prio_change+0xd0>
    27f4:	8522                	mv	a0,s0
    27f6:	f6cff0ef          	jal	ra,1f62 <readyqueue_add_head>
    27fa:	b75d                	j	27a0 <tos_task_prio_change+0x74>
    27fc:	8522                	mv	a0,s0
    27fe:	fb4ff0ef          	jal	ra,1fb2 <readyqueue_add_tail>
    2802:	bf79                	j	27a0 <tos_task_prio_change+0x74>
    2804:	19000513          	li	a0,400
    2808:	b79d                	j	276e <tos_task_prio_change+0x42>

0000280a <tos_task_delay>:
    280a:	1101                	addi	sp,sp,-32
    280c:	cc22                	sw	s0,24(sp)
    280e:	ca26                	sw	s1,20(sp)
    2810:	ce06                	sw	ra,28(sp)
    2812:	c84a                	sw	s2,16(sp)
    2814:	c64e                	sw	s3,12(sp)
    2816:	842a                	mv	s0,a0
    2818:	84ae                	mv	s1,a1
    281a:	c07ff0ef          	jal	ra,2420 <knl_is_inirq>
    281e:	19000793          	li	a5,400
    2822:	ed01                	bnez	a0,283a <tos_task_delay+0x30>
    2824:	bf3ff0ef          	jal	ra,2416 <knl_is_sched_locked>
    2828:	6a400793          	li	a5,1700
    282c:	e519                	bnez	a0,283a <tos_task_delay+0x30>
    282e:	009467b3          	or	a5,s0,s1
    2832:	ef81                	bnez	a5,284a <tos_task_delay+0x40>
    2834:	eb9ff0ef          	jal	ra,26ec <tos_task_yield>
    2838:	4781                	li	a5,0
    283a:	40f2                	lw	ra,28(sp)
    283c:	4462                	lw	s0,24(sp)
    283e:	44d2                	lw	s1,20(sp)
    2840:	4942                	lw	s2,16(sp)
    2842:	49b2                	lw	s3,12(sp)
    2844:	853e                	mv	a0,a5
    2846:	6105                	addi	sp,sp,32
    2848:	8082                	ret
    284a:	57fd                	li	a5,-1
    284c:	00f41663          	bne	s0,a5,2858 <tos_task_delay+0x4e>
    2850:	06500793          	li	a5,101
    2854:	fe8483e3          	beq	s1,s0,283a <tos_task_delay+0x30>
    2858:	1da010ef          	jal	ra,3a32 <tos_cpu_cpsr_save>
    285c:	89aa                	mv	s3,a0
    285e:	8481a503          	lw	a0,-1976(gp) # 20000298 <k_curr_task>
    2862:	85a2                	mv	a1,s0
    2864:	8626                	mv	a2,s1
    2866:	2819                	jal	287c <tick_list_add>
    2868:	8481a503          	lw	a0,-1976(gp) # 20000298 <k_curr_task>
    286c:	faaff0ef          	jal	ra,2016 <readyqueue_remove>
    2870:	854e                	mv	a0,s3
    2872:	1c4010ef          	jal	ra,3a36 <tos_cpu_cpsr_restore>
    2876:	b13ff0ef          	jal	ra,2388 <knl_sched>
    287a:	bf7d                	j	2838 <tos_task_delay+0x2e>

0000287c <tick_list_add>:
    287c:	1101                	addi	sp,sp,-32
    287e:	cc22                	sw	s0,24(sp)
    2880:	c62e                	sw	a1,12(sp)
    2882:	842a                	mv	s0,a0
    2884:	c432                	sw	a2,8(sp)
    2886:	ce06                	sw	ra,28(sp)
    2888:	1aa010ef          	jal	ra,3a32 <tos_cpu_cpsr_save>
    288c:	8101a783          	lw	a5,-2032(gp) # 20000260 <k_tick_list>
    2890:	45b2                	lw	a1,12(sp)
    2892:	4622                	lw	a2,8(sp)
    2894:	fb878793          	addi	a5,a5,-72
    2898:	c02c                	sw	a1,64(s0)
    289a:	c070                	sw	a2,68(s0)
    289c:	4681                	li	a3,0
    289e:	4701                	li	a4,0
    28a0:	81018313          	addi	t1,gp,-2032 # 20000260 <k_tick_list>
    28a4:	04878e13          	addi	t3,a5,72
    28a8:	066e1363          	bne	t3,t1,290e <tick_list_add+0x92>
    28ac:	40d588b3          	sub	a7,a1,a3
    28b0:	0115beb3          	sltu	t4,a1,a7
    28b4:	40e60833          	sub	a6,a2,a4
    28b8:	41d80833          	sub	a6,a6,t4
    28bc:	05142023          	sw	a7,64(s0)
    28c0:	05042223          	sw	a6,68(s0)
    28c4:	026e0163          	beq	t3,t1,28e6 <tick_list_add+0x6a>
    28c8:	40b685b3          	sub	a1,a3,a1
    28cc:	00b6b6b3          	sltu	a3,a3,a1
    28d0:	8f11                	sub	a4,a4,a2
    28d2:	8f15                	sub	a4,a4,a3
    28d4:	43b4                	lw	a3,64(a5)
    28d6:	43f0                	lw	a2,68(a5)
    28d8:	95b6                	add	a1,a1,a3
    28da:	00d5b6b3          	sltu	a3,a1,a3
    28de:	9732                	add	a4,a4,a2
    28e0:	9736                	add	a4,a4,a3
    28e2:	c3ac                	sw	a1,64(a5)
    28e4:	c3f8                	sw	a4,68(a5)
    28e6:	47f8                	lw	a4,76(a5)
    28e8:	04840693          	addi	a3,s0,72
    28ec:	c7f4                	sw	a3,76(a5)
    28ee:	05c42423          	sw	t3,72(s0)
    28f2:	c478                	sw	a4,76(s0)
    28f4:	c314                	sw	a3,0(a4)
    28f6:	140010ef          	jal	ra,3a36 <tos_cpu_cpsr_restore>
    28fa:	02044783          	lbu	a5,32(s0)
    28fe:	40f2                	lw	ra,28(sp)
    2900:	0017e793          	ori	a5,a5,1
    2904:	02f40023          	sb	a5,32(s0)
    2908:	4462                	lw	s0,24(sp)
    290a:	6105                	addi	sp,sp,32
    290c:	8082                	ret
    290e:	0407a883          	lw	a7,64(a5)
    2912:	0447ae83          	lw	t4,68(a5)
    2916:	98b6                	add	a7,a7,a3
    2918:	00d8b833          	sltu	a6,a7,a3
    291c:	9eba                	add	t4,t4,a4
    291e:	9876                	add	a6,a6,t4
    2920:	f90666e3          	bltu	a2,a6,28ac <tick_list_add+0x30>
    2924:	00c81463          	bne	a6,a2,292c <tick_list_add+0xb0>
    2928:	f915e2e3          	bltu	a1,a7,28ac <tick_list_add+0x30>
    292c:	01159a63          	bne	a1,a7,2940 <tick_list_add+0xc4>
    2930:	01061863          	bne	a2,a6,2940 <tick_list_add+0xc4>
    2934:	02144f03          	lbu	t5,33(s0)
    2938:	0217ce83          	lbu	t4,33(a5)
    293c:	f7df68e3          	bltu	t5,t4,28ac <tick_list_add+0x30>
    2940:	47bc                	lw	a5,72(a5)
    2942:	86c6                	mv	a3,a7
    2944:	8742                	mv	a4,a6
    2946:	fb878793          	addi	a5,a5,-72
    294a:	bfa9                	j	28a4 <tick_list_add+0x28>

0000294c <tick_list_remove>:
    294c:	1141                	addi	sp,sp,-16
    294e:	c422                	sw	s0,8(sp)
    2950:	c606                	sw	ra,12(sp)
    2952:	842a                	mv	s0,a0
    2954:	0de010ef          	jal	ra,3a32 <tos_cpu_cpsr_save>
    2958:	443c                	lw	a5,72(s0)
    295a:	04840713          	addi	a4,s0,72
    295e:	04e78863          	beq	a5,a4,29ae <tick_list_remove+0x62>
    2962:	fb878713          	addi	a4,a5,-72
    2966:	c721                	beqz	a4,29ae <tick_list_remove+0x62>
    2968:	81018713          	addi	a4,gp,-2032 # 20000260 <k_tick_list>
    296c:	04e78163          	beq	a5,a4,29ae <tick_list_remove+0x62>
    2970:	4034                	lw	a3,64(s0)
    2972:	04442883          	lw	a7,68(s0)
    2976:	55f9                	li	a1,-2
    2978:	40d58333          	sub	t1,a1,a3
    297c:	ffc7a603          	lw	a2,-4(a5)
    2980:	0065b833          	sltu	a6,a1,t1
    2984:	fff8c593          	not	a1,a7
    2988:	410585b3          	sub	a1,a1,a6
    298c:	ff87a703          	lw	a4,-8(a5)
    2990:	02c5ed63          	bltu	a1,a2,29ca <tick_list_remove+0x7e>
    2994:	00b61463          	bne	a2,a1,299c <tick_list_remove+0x50>
    2998:	02e36963          	bltu	t1,a4,29ca <tick_list_remove+0x7e>
    299c:	96ba                	add	a3,a3,a4
    299e:	00e6b733          	sltu	a4,a3,a4
    29a2:	9646                	add	a2,a2,a7
    29a4:	9732                	add	a4,a4,a2
    29a6:	fed7ac23          	sw	a3,-8(a5)
    29aa:	fee7ae23          	sw	a4,-4(a5)
    29ae:	4478                	lw	a4,76(s0)
    29b0:	c3d8                	sw	a4,4(a5)
    29b2:	c31c                	sw	a5,0(a4)
    29b4:	082010ef          	jal	ra,3a36 <tos_cpu_cpsr_restore>
    29b8:	02044783          	lbu	a5,32(s0)
    29bc:	40b2                	lw	ra,12(sp)
    29be:	9bf9                	andi	a5,a5,-2
    29c0:	02f40023          	sb	a5,32(s0)
    29c4:	4422                	lw	s0,8(sp)
    29c6:	0141                	addi	sp,sp,16
    29c8:	8082                	ret
    29ca:	5679                	li	a2,-2
    29cc:	56fd                	li	a3,-1
    29ce:	fec7ac23          	sw	a2,-8(a5)
    29d2:	fed7ae23          	sw	a3,-4(a5)
    29d6:	bfe1                	j	29ae <tick_list_remove+0x62>

000029d8 <tick_update>:
    29d8:	1101                	addi	sp,sp,-32
    29da:	cc22                	sw	s0,24(sp)
    29dc:	ca26                	sw	s1,20(sp)
    29de:	842a                	mv	s0,a0
    29e0:	c62e                	sw	a1,12(sp)
    29e2:	ce06                	sw	ra,28(sp)
    29e4:	c84a                	sw	s2,16(sp)
    29e6:	04c010ef          	jal	ra,3a32 <tos_cpu_cpsr_save>
    29ea:	8601a783          	lw	a5,-1952(gp) # 200002b0 <k_tick_count>
    29ee:	8641a683          	lw	a3,-1948(gp) # 200002b4 <k_tick_count+0x4>
    29f2:	45b2                	lw	a1,12(sp)
    29f4:	00878633          	add	a2,a5,s0
    29f8:	00f637b3          	sltu	a5,a2,a5
    29fc:	96ae                	add	a3,a3,a1
    29fe:	97b6                	add	a5,a5,a3
    2a00:	86f1a223          	sw	a5,-1948(gp) # 200002b4 <k_tick_count+0x4>
    2a04:	8101a783          	lw	a5,-2032(gp) # 20000260 <k_tick_list>
    2a08:	86c1a023          	sw	a2,-1952(gp) # 200002b0 <k_tick_count>
    2a0c:	81018493          	addi	s1,gp,-2032 # 20000260 <k_tick_list>
    2a10:	00979963          	bne	a5,s1,2a22 <tick_update+0x4a>
    2a14:	4462                	lw	s0,24(sp)
    2a16:	40f2                	lw	ra,28(sp)
    2a18:	44d2                	lw	s1,20(sp)
    2a1a:	4942                	lw	s2,16(sp)
    2a1c:	6105                	addi	sp,sp,32
    2a1e:	0180106f          	j	3a36 <tos_cpu_cpsr_restore>
    2a22:	ffc7a703          	lw	a4,-4(a5)
    2a26:	892a                	mv	s2,a0
    2a28:	ff87a683          	lw	a3,-8(a5)
    2a2c:	fb878513          	addi	a0,a5,-72
    2a30:	02e5ef63          	bltu	a1,a4,2a6e <tick_update+0x96>
    2a34:	00b71463          	bne	a4,a1,2a3c <tick_update+0x64>
    2a38:	02d46b63          	bltu	s0,a3,2a6e <tick_update+0x96>
    2a3c:	4380                	lw	s0,0(a5)
    2a3e:	4681                	li	a3,0
    2a40:	4701                	li	a4,0
    2a42:	fed7ac23          	sw	a3,-8(a5)
    2a46:	fee7ae23          	sw	a4,-4(a5)
    2a4a:	fb840413          	addi	s0,s0,-72
    2a4e:	04850793          	addi	a5,a0,72
    2a52:	02978863          	beq	a5,s1,2a82 <tick_update+0xaa>
    2a56:	413c                	lw	a5,64(a0)
    2a58:	4178                	lw	a4,68(a0)
    2a5a:	8fd9                	or	a5,a5,a4
    2a5c:	e39d                	bnez	a5,2a82 <tick_update+0xaa>
    2a5e:	4589                	li	a1,2
    2a60:	a30ff0ef          	jal	ra,1c90 <pend_task_wakeup>
    2a64:	443c                	lw	a5,72(s0)
    2a66:	8522                	mv	a0,s0
    2a68:	fb878413          	addi	s0,a5,-72
    2a6c:	b7cd                	j	2a4e <tick_update+0x76>
    2a6e:	40868433          	sub	s0,a3,s0
    2a72:	0086b6b3          	sltu	a3,a3,s0
    2a76:	8f0d                	sub	a4,a4,a1
    2a78:	8f15                	sub	a4,a4,a3
    2a7a:	fe87ac23          	sw	s0,-8(a5)
    2a7e:	fee7ae23          	sw	a4,-4(a5)
    2a82:	854a                	mv	a0,s2
    2a84:	bf41                	j	2a14 <tick_update+0x3c>

00002a86 <tos_tick_handler>:
    2a86:	1141                	addi	sp,sp,-16
    2a88:	c606                	sw	ra,12(sp)
    2a8a:	8f3ff0ef          	jal	ra,237c <tos_knl_is_running>
    2a8e:	c519                	beqz	a0,2a9c <tos_tick_handler+0x16>
    2a90:	4505                	li	a0,1
    2a92:	4581                	li	a1,0
    2a94:	3791                	jal	29d8 <tick_update>
    2a96:	40b2                	lw	ra,12(sp)
    2a98:	0141                	addi	sp,sp,16
    2a9a:	a205                	j	2bba <soft_timer_update>
    2a9c:	40b2                	lw	ra,12(sp)
    2a9e:	0141                	addi	sp,sp,16
    2aa0:	8082                	ret

00002aa2 <tos_systick_get>:
    2aa2:	1141                	addi	sp,sp,-16
    2aa4:	c606                	sw	ra,12(sp)
    2aa6:	c422                	sw	s0,8(sp)
    2aa8:	c226                	sw	s1,4(sp)
    2aaa:	789000ef          	jal	ra,3a32 <tos_cpu_cpsr_save>
    2aae:	8601a403          	lw	s0,-1952(gp) # 200002b0 <k_tick_count>
    2ab2:	8641a483          	lw	s1,-1948(gp) # 200002b4 <k_tick_count+0x4>
    2ab6:	781000ef          	jal	ra,3a36 <tos_cpu_cpsr_restore>
    2aba:	8522                	mv	a0,s0
    2abc:	40b2                	lw	ra,12(sp)
    2abe:	4422                	lw	s0,8(sp)
    2ac0:	85a6                	mv	a1,s1
    2ac2:	4492                	lw	s1,4(sp)
    2ac4:	0141                	addi	sp,sp,16
    2ac6:	8082                	ret

00002ac8 <tos_millisec2tick>:
    2ac8:	4581                	li	a1,0
    2aca:	8082                	ret

00002acc <tos_sleep_ms>:
    2acc:	4581                	li	a1,0
    2ace:	d3dff06f          	j	280a <tos_task_delay>

00002ad2 <timer_takeoff>:
    2ad2:	1141                	addi	sp,sp,-16
    2ad4:	c422                	sw	s0,8(sp)
    2ad6:	c606                	sw	ra,12(sp)
    2ad8:	842a                	mv	s0,a0
    2ada:	759000ef          	jal	ra,3a32 <tos_cpu_cpsr_save>
    2ade:	200007b7          	lui	a5,0x20000
    2ae2:	00078713          	mv	a4,a5
    2ae6:	4810                	lw	a2,16(s0)
    2ae8:	444c                	lw	a1,12(s0)
    2aea:	4714                	lw	a3,8(a4)
    2aec:	c1d0                	sw	a2,4(a1)
    2aee:	ff468713          	addi	a4,a3,-12
    2af2:	c20c                	sw	a1,0(a2)
    2af4:	00871f63          	bne	a4,s0,2b12 <timer_takeoff+0x40>
    2af8:	4298                	lw	a4,0(a3)
    2afa:	863e                	mv	a2,a5
    2afc:	00d70563          	beq	a4,a3,2b06 <timer_takeoff+0x34>
    2b00:	ff470693          	addi	a3,a4,-12
    2b04:	ee81                	bnez	a3,2b1c <timer_takeoff+0x4a>
    2b06:	577d                	li	a4,-1
    2b08:	57fd                	li	a5,-1
    2b0a:	00e62023          	sw	a4,0(a2)
    2b0e:	00f62223          	sw	a5,4(a2)
    2b12:	4422                	lw	s0,8(sp)
    2b14:	40b2                	lw	ra,12(sp)
    2b16:	0141                	addi	sp,sp,16
    2b18:	71f0006f          	j	3a36 <tos_cpu_cpsr_restore>
    2b1c:	4750                	lw	a2,12(a4)
    2b1e:	4b14                	lw	a3,16(a4)
    2b20:	00c7a023          	sw	a2,0(a5) # 20000000 <_data_vma>
    2b24:	00d7a223          	sw	a3,4(a5)
    2b28:	b7ed                	j	2b12 <timer_takeoff+0x40>

00002b2a <timer_place>:
    2b2a:	1141                	addi	sp,sp,-16
    2b2c:	c422                	sw	s0,8(sp)
    2b2e:	c606                	sw	ra,12(sp)
    2b30:	842a                	mv	s0,a0
    2b32:	701000ef          	jal	ra,3a32 <tos_cpu_cpsr_save>
    2b36:	4c1c                	lw	a5,24(s0)
    2b38:	8601a603          	lw	a2,-1952(gp) # 200002b0 <k_tick_count>
    2b3c:	4c58                	lw	a4,28(s0)
    2b3e:	8641a683          	lw	a3,-1948(gp) # 200002b4 <k_tick_count+0x4>
    2b42:	963e                	add	a2,a2,a5
    2b44:	00f637b3          	sltu	a5,a2,a5
    2b48:	9736                	add	a4,a4,a3
    2b4a:	200006b7          	lui	a3,0x20000
    2b4e:	973e                	add	a4,a4,a5
    2b50:	00068793          	mv	a5,a3
    2b54:	479c                	lw	a5,8(a5)
    2b56:	200005b7          	lui	a1,0x20000
    2b5a:	cc10                	sw	a2,24(s0)
    2b5c:	cc58                	sw	a4,28(s0)
    2b5e:	17d1                	addi	a5,a5,-12
    2b60:	00068313          	mv	t1,a3
    2b64:	00858593          	addi	a1,a1,8 # 20000008 <_data_vma+0x8>
    2b68:	00c78893          	addi	a7,a5,12
    2b6c:	02b89a63          	bne	a7,a1,2ba0 <timer_place+0x76>
    2b70:	0107a803          	lw	a6,16(a5)
    2b74:	00c40593          	addi	a1,s0,12
    2b78:	cb8c                	sw	a1,16(a5)
    2b7a:	01142623          	sw	a7,12(s0)
    2b7e:	01042823          	sw	a6,16(s0)
    2b82:	00b82023          	sw	a1,0(a6)
    2b86:	00832783          	lw	a5,8(t1)
    2b8a:	00f59663          	bne	a1,a5,2b96 <timer_place+0x6c>
    2b8e:	00c6a023          	sw	a2,0(a3) # 20000000 <_data_vma>
    2b92:	00e6a223          	sw	a4,4(a3)
    2b96:	4422                	lw	s0,8(sp)
    2b98:	40b2                	lw	ra,12(sp)
    2b9a:	0141                	addi	sp,sp,16
    2b9c:	69b0006f          	j	3a36 <tos_cpu_cpsr_restore>
    2ba0:	01c7a803          	lw	a6,28(a5)
    2ba4:	fd0766e3          	bltu	a4,a6,2b70 <timer_place+0x46>
    2ba8:	00e81663          	bne	a6,a4,2bb4 <timer_place+0x8a>
    2bac:	0187a803          	lw	a6,24(a5)
    2bb0:	fd0660e3          	bltu	a2,a6,2b70 <timer_place+0x46>
    2bb4:	47dc                	lw	a5,12(a5)
    2bb6:	17d1                	addi	a5,a5,-12
    2bb8:	bf45                	j	2b68 <timer_place+0x3e>

00002bba <soft_timer_update>:
    2bba:	1101                	addi	sp,sp,-32
    2bbc:	cc22                	sw	s0,24(sp)
    2bbe:	ca26                	sw	s1,20(sp)
    2bc0:	20000437          	lui	s0,0x20000
    2bc4:	00442703          	lw	a4,4(s0) # 20000004 <_data_vma+0x4>
    2bc8:	8641a783          	lw	a5,-1948(gp) # 200002b4 <k_tick_count+0x4>
    2bcc:	ce06                	sw	ra,28(sp)
    2bce:	c84a                	sw	s2,16(sp)
    2bd0:	c64e                	sw	s3,12(sp)
    2bd2:	c452                	sw	s4,8(sp)
    2bd4:	c256                	sw	s5,4(sp)
    2bd6:	08e7ee63          	bltu	a5,a4,2c72 <soft_timer_update+0xb8>
    2bda:	00f71863          	bne	a4,a5,2bea <soft_timer_update+0x30>
    2bde:	00042703          	lw	a4,0(s0)
    2be2:	8601a783          	lw	a5,-1952(gp) # 200002b0 <k_tick_count>
    2be6:	08e7e663          	bltu	a5,a4,2c72 <soft_timer_update+0xb8>
    2bea:	f10ff0ef          	jal	ra,22fa <tos_knl_sched_lock>
    2bee:	00040413          	mv	s0,s0
    2bf2:	441c                	lw	a5,8(s0)
    2bf4:	200009b7          	lui	s3,0x20000
    2bf8:	00898993          	addi	s3,s3,8 # 20000008 <_data_vma+0x8>
    2bfc:	0007a903          	lw	s2,0(a5)
    2c00:	ff478413          	addi	s0,a5,-12
    2c04:	4a09                	li	s4,2
    2c06:	1951                	addi	s2,s2,-12
    2c08:	4a8d                	li	s5,3
    2c0a:	00c40793          	addi	a5,s0,12
    2c0e:	01379c63          	bne	a5,s3,2c26 <soft_timer_update+0x6c>
    2c12:	4462                	lw	s0,24(sp)
    2c14:	40f2                	lw	ra,28(sp)
    2c16:	44d2                	lw	s1,20(sp)
    2c18:	4942                	lw	s2,16(sp)
    2c1a:	49b2                	lw	s3,12(sp)
    2c1c:	4a22                	lw	s4,8(sp)
    2c1e:	4a92                	lw	s5,4(sp)
    2c20:	6105                	addi	sp,sp,32
    2c22:	facff06f          	j	23ce <tos_knl_sched_unlock>
    2c26:	4c58                	lw	a4,28(s0)
    2c28:	8641a783          	lw	a5,-1948(gp) # 200002b4 <k_tick_count+0x4>
    2c2c:	fee7e3e3          	bltu	a5,a4,2c12 <soft_timer_update+0x58>
    2c30:	00f71763          	bne	a4,a5,2c3e <soft_timer_update+0x84>
    2c34:	4c18                	lw	a4,24(s0)
    2c36:	8601a783          	lw	a5,-1952(gp) # 200002b0 <k_tick_count>
    2c3a:	fce7ece3          	bltu	a5,a4,2c12 <soft_timer_update+0x58>
    2c3e:	8522                	mv	a0,s0
    2c40:	e93ff0ef          	jal	ra,2ad2 <timer_takeoff>
    2c44:	03045783          	lhu	a5,48(s0)
    2c48:	03479263          	bne	a5,s4,2c6c <soft_timer_update+0xb2>
    2c4c:	5418                	lw	a4,40(s0)
    2c4e:	545c                	lw	a5,44(s0)
    2c50:	8522                	mv	a0,s0
    2c52:	cc18                	sw	a4,24(s0)
    2c54:	cc5c                	sw	a5,28(s0)
    2c56:	ed5ff0ef          	jal	ra,2b2a <timer_place>
    2c5a:	405c                	lw	a5,4(s0)
    2c5c:	4408                	lw	a0,8(s0)
    2c5e:	844a                	mv	s0,s2
    2c60:	9782                	jalr	a5
    2c62:	00c92783          	lw	a5,12(s2)
    2c66:	ff478913          	addi	s2,a5,-12
    2c6a:	b745                	j	2c0a <soft_timer_update+0x50>
    2c6c:	03542a23          	sw	s5,52(s0)
    2c70:	b7ed                	j	2c5a <soft_timer_update+0xa0>
    2c72:	40f2                	lw	ra,28(sp)
    2c74:	4462                	lw	s0,24(sp)
    2c76:	44d2                	lw	s1,20(sp)
    2c78:	4942                	lw	s2,16(sp)
    2c7a:	49b2                	lw	s3,12(sp)
    2c7c:	4a22                	lw	s4,8(sp)
    2c7e:	4a92                	lw	s5,4(sp)
    2c80:	6105                	addi	sp,sp,32
    2c82:	8082                	ret

00002c84 <soft_timer_init>:
    2c84:	4501                	li	a0,0
    2c86:	8082                	ret

00002c88 <default_message_handler>:
    2c88:	1141                	addi	sp,sp,-16
    2c8a:	c226                	sw	s1,4(sp)
    2c8c:	84aa                	mv	s1,a0
    2c8e:	0000a537          	lui	a0,0xa
    2c92:	e4c50513          	addi	a0,a0,-436 # 9e4c <_sbrk+0x88>
    2c96:	c606                	sw	ra,12(sp)
    2c98:	c422                	sw	s0,8(sp)
    2c9a:	145050ef          	jal	ra,85de <puts>
    2c9e:	0000a437          	lui	s0,0xa
    2ca2:	e5840513          	addi	a0,s0,-424 # 9e58 <_sbrk+0x94>
    2ca6:	139050ef          	jal	ra,85de <puts>
    2caa:	0000a537          	lui	a0,0xa
    2cae:	85a6                	mv	a1,s1
    2cb0:	e9450513          	addi	a0,a0,-364 # 9e94 <_sbrk+0xd0>
    2cb4:	7de050ef          	jal	ra,8492 <iprintf>
    2cb8:	0000a537          	lui	a0,0xa
    2cbc:	04048593          	addi	a1,s1,64
    2cc0:	ea050513          	addi	a0,a0,-352 # 9ea0 <_sbrk+0xdc>
    2cc4:	7ce050ef          	jal	ra,8492 <iprintf>
    2cc8:	e5840513          	addi	a0,s0,-424
    2ccc:	4422                	lw	s0,8(sp)
    2cce:	40b2                	lw	ra,12(sp)
    2cd0:	4492                	lw	s1,4(sp)
    2cd2:	0141                	addi	sp,sp,16
    2cd4:	10b0506f          	j	85de <puts>

00002cd8 <mqtt_demo_task>:
    2cd8:	7131                	addi	sp,sp,-192
    2cda:	06600613          	li	a2,102
    2cde:	4581                	li	a1,0
    2ce0:	1828                	addi	a0,sp,56
    2ce2:	df06                	sw	ra,188(sp)
    2ce4:	dd22                	sw	s0,184(sp)
    2ce6:	db26                	sw	s1,180(sp)
    2ce8:	d94a                	sw	s2,176(sp)
    2cea:	d74e                	sw	s3,172(sp)
    2cec:	d552                	sw	s4,168(sp)
    2cee:	e52fd0ef          	jal	ra,340 <memset>
    2cf2:	4509                	li	a0,2
    2cf4:	40b000ef          	jal	ra,38fe <esp8266_tencent_firmware_sal_init>
    2cf8:	00055963          	bgez	a0,2d0a <mqtt_demo_task+0x32>
    2cfc:	85aa                	mv	a1,a0
    2cfe:	0000a537          	lui	a0,0xa
    2d02:	ecc50513          	addi	a0,a0,-308 # 9ecc <_sbrk+0x108>
    2d06:	78c050ef          	jal	ra,8492 <iprintf>
    2d0a:	0000a5b7          	lui	a1,0xa
    2d0e:	0000a537          	lui	a0,0xa
    2d12:	f0058593          	addi	a1,a1,-256 # 9f00 <_sbrk+0x13c>
    2d16:	f0c50513          	addi	a0,a0,-244 # 9f0c <_sbrk+0x148>
    2d1a:	36f000ef          	jal	ra,3888 <esp8266_tencent_firmware_join_ap>
    2d1e:	0000a437          	lui	s0,0xa
    2d22:	4629                	li	a2,10
    2d24:	f1440593          	addi	a1,s0,-236 # 9f14 <_sbrk+0x150>
    2d28:	1828                	addi	a0,sp,56
    2d2a:	61f040ef          	jal	ra,7b48 <memcpy>
    2d2e:	0000a4b7          	lui	s1,0xa
    2d32:	04000613          	li	a2,64
    2d36:	f2048593          	addi	a1,s1,-224 # 9f20 <_sbrk+0x15c>
    2d3a:	04310513          	addi	a0,sp,67
    2d3e:	2bf050ef          	jal	ra,87fc <strncpy>
    2d42:	0000a5b7          	lui	a1,0xa
    2d46:	4665                	li	a2,25
    2d48:	f2858593          	addi	a1,a1,-216 # 9f28 <_sbrk+0x164>
    2d4c:	0148                	addi	a0,sp,132
    2d4e:	5fb040ef          	jal	ra,7b48 <memcpy>
    2d52:	4585                	li	a1,1
    2d54:	1828                	addi	a0,sp,56
    2d56:	967fd0ef          	jal	ra,6bc <tos_tf_module_info_set>
    2d5a:	65a9                	lui	a1,0xa
    2d5c:	4641                	li	a2,16
    2d5e:	de858593          	addi	a1,a1,-536 # 9de8 <_sbrk+0x24>
    2d62:	1028                	addi	a0,sp,40
    2d64:	5e5040ef          	jal	ra,7b48 <memcpy>
    2d68:	4641                	li	a2,16
    2d6a:	102c                	addi	a1,sp,40
    2d6c:	0808                	addi	a0,sp,16
    2d6e:	5db040ef          	jal	ra,7b48 <memcpy>
    2d72:	0808                	addi	a0,sp,16
    2d74:	95dfd0ef          	jal	ra,6d0 <tos_tf_module_mqtt_conn>
    2d78:	0e050863          	beqz	a0,2e68 <mqtt_demo_task+0x190>
    2d7c:	0000a537          	lui	a0,0xa
    2d80:	f4450513          	addi	a0,a0,-188 # 9f44 <_sbrk+0x180>
    2d84:	05b050ef          	jal	ra,85de <puts>
    2d88:	1048                	addi	a0,sp,36
    2d8a:	9c3fd0ef          	jal	ra,74c <tos_tf_module_mqtt_state_get>
    2d8e:	57fd                	li	a5,-1
    2d90:	02f50063          	beq	a0,a5,2db0 <mqtt_demo_task+0xd8>
    2d94:	5712                	lw	a4,36(sp)
    2d96:	4785                	li	a5,1
    2d98:	0cf70d63          	beq	a4,a5,2e72 <mqtt_demo_task+0x19a>
    2d9c:	0000a5b7          	lui	a1,0xa
    2da0:	ebc58593          	addi	a1,a1,-324 # 9ebc <_sbrk+0xf8>
    2da4:	0000a537          	lui	a0,0xa
    2da8:	f7850513          	addi	a0,a0,-136 # 9f78 <_sbrk+0x1b4>
    2dac:	6e6050ef          	jal	ra,8492 <iprintf>
    2db0:	20002937          	lui	s2,0x20002
    2db4:	0000a637          	lui	a2,0xa
    2db8:	f8460613          	addi	a2,a2,-124 # 9f84 <_sbrk+0x1c0>
    2dbc:	08a00593          	li	a1,138
    2dc0:	f2048713          	addi	a4,s1,-224
    2dc4:	f1440693          	addi	a3,s0,-236
    2dc8:	94090513          	addi	a0,s2,-1728 # 20001940 <report_reply_topic_name>
    2dcc:	051050ef          	jal	ra,861c <sniprintf>
    2dd0:	00003637          	lui	a2,0x3
    2dd4:	c8860613          	addi	a2,a2,-888 # 2c88 <default_message_handler>
    2dd8:	4581                	li	a1,0
    2dda:	94090513          	addi	a0,s2,-1728
    2dde:	91ffd0ef          	jal	ra,6fc <tos_tf_module_mqtt_sub>
    2de2:	cd49                	beqz	a0,2e7c <mqtt_demo_task+0x1a4>
    2de4:	0000a537          	lui	a0,0xa
    2de8:	fa050513          	addi	a0,a0,-96 # 9fa0 <_sbrk+0x1dc>
    2dec:	7f2050ef          	jal	ra,85de <puts>
    2df0:	20002937          	lui	s2,0x20002
    2df4:	08a00613          	li	a2,138
    2df8:	4581                	li	a1,0
    2dfa:	9cc90513          	addi	a0,s2,-1588 # 200019cc <report_topic_name>
    2dfe:	d42fd0ef          	jal	ra,340 <memset>
    2e02:	0000a637          	lui	a2,0xa
    2e06:	f2048713          	addi	a4,s1,-224
    2e0a:	f1440693          	addi	a3,s0,-236
    2e0e:	9cc90513          	addi	a0,s2,-1588
    2e12:	fd060613          	addi	a2,a2,-48 # 9fd0 <_sbrk+0x20c>
    2e16:	08a00593          	li	a1,138
    2e1a:	003050ef          	jal	ra,861c <sniprintf>
    2e1e:	6485                	lui	s1,0x1
    2e20:	4681                	li	a3,0
    2e22:	38848493          	addi	s1,s1,904 # 1388 <tos_mmblk_pool_create+0xe>
    2e26:	20002937          	lui	s2,0x20002
    2e2a:	0000a9b7          	lui	s3,0xa
    2e2e:	06400a13          	li	s4,100
    2e32:	8526                	mv	a0,s1
    2e34:	c636                	sw	a3,12(sp)
    2e36:	c97ff0ef          	jal	ra,2acc <tos_sleep_ms>
    2e3a:	10000613          	li	a2,256
    2e3e:	4581                	li	a1,0
    2e40:	84090513          	addi	a0,s2,-1984 # 20001840 <payload>
    2e44:	cfcfd0ef          	jal	ra,340 <memset>
    2e48:	46b2                	lw	a3,12(sp)
    2e4a:	fec98613          	addi	a2,s3,-20 # 9fec <_sbrk+0x228>
    2e4e:	10000593          	li	a1,256
    2e52:	00168413          	addi	s0,a3,1
    2e56:	84090513          	addi	a0,s2,-1984
    2e5a:	7c2050ef          	jal	ra,861c <sniprintf>
    2e5e:	008a5363          	bge	s4,s0,2e64 <mqtt_demo_task+0x18c>
    2e62:	4401                	li	s0,0
    2e64:	86a2                	mv	a3,s0
    2e66:	b7f1                	j	2e32 <mqtt_demo_task+0x15a>
    2e68:	0000a537          	lui	a0,0xa
    2e6c:	f5c50513          	addi	a0,a0,-164 # 9f5c <_sbrk+0x198>
    2e70:	bf11                	j	2d84 <mqtt_demo_task+0xac>
    2e72:	0000a5b7          	lui	a1,0xa
    2e76:	eb058593          	addi	a1,a1,-336 # 9eb0 <_sbrk+0xec>
    2e7a:	b72d                	j	2da4 <mqtt_demo_task+0xcc>
    2e7c:	0000a537          	lui	a0,0xa
    2e80:	fb850513          	addi	a0,a0,-72 # 9fb8 <_sbrk+0x1f4>
    2e84:	b7a5                	j	2dec <mqtt_demo_task+0x114>

00002e86 <application_entry>:
    2e86:	1141                	addi	sp,sp,-16
    2e88:	c606                	sw	ra,12(sp)
    2e8a:	e4fff0ef          	jal	ra,2cd8 <mqtt_demo_task>

00002e8e <esp8266_tencent_firmware_module_info_set>:
    2e8e:	711d                	addi	sp,sp,-96
    2e90:	0000a6b7          	lui	a3,0xa
    2e94:	c62a                	sw	a0,12(sp)
    2e96:	c42e                	sw	a1,8(sp)
    2e98:	22868693          	addi	a3,a3,552 # a228 <_sbrk+0x464>
    2e9c:	4601                	li	a2,0
    2e9e:	4581                	li	a1,0
    2ea0:	0808                	addi	a0,sp,16
    2ea2:	ce86                	sw	ra,92(sp)
    2ea4:	c31fd0ef          	jal	ra,ad4 <tos_at_echo_create>
    2ea8:	47b2                	lw	a5,12(sp)
    2eaa:	4722                	lw	a4,8(sp)
    2eac:	0000a6b7          	lui	a3,0xa
    2eb0:	2000b537          	lui	a0,0x2000b
    2eb4:	080c                	addi	a1,sp,16
    2eb6:	04c78893          	addi	a7,a5,76
    2eba:	00b78813          	addi	a6,a5,11
    2ebe:	23c68693          	addi	a3,a3,572 # a23c <_sbrk+0x478>
    2ec2:	7d000613          	li	a2,2000
    2ec6:	42050513          	addi	a0,a0,1056 # 2000b420 <esp8266_tf_agent>
    2eca:	d99fd0ef          	jal	ra,c62 <tos_at_cmd_exec_until>
    2ece:	5502                	lw	a0,32(sp)
    2ed0:	40f6                	lw	ra,92(sp)
    2ed2:	1571                	addi	a0,a0,-4
    2ed4:	00a03533          	snez	a0,a0
    2ed8:	40a00533          	neg	a0,a0
    2edc:	6125                	addi	sp,sp,96
    2ede:	8082                	ret

00002ee0 <esp8266_tencent_firmware_module_mqtt_pub>:
    2ee0:	711d                	addi	sp,sp,-96
    2ee2:	0000a6b7          	lui	a3,0xa
    2ee6:	c62a                	sw	a0,12(sp)
    2ee8:	c42e                	sw	a1,8(sp)
    2eea:	c232                	sw	a2,4(sp)
    2eec:	2a468693          	addi	a3,a3,676 # a2a4 <_sbrk+0x4e0>
    2ef0:	4601                	li	a2,0
    2ef2:	4581                	li	a1,0
    2ef4:	0808                	addi	a0,sp,16
    2ef6:	ce86                	sw	ra,92(sp)
    2ef8:	bddfd0ef          	jal	ra,ad4 <tos_at_echo_create>
    2efc:	4812                	lw	a6,4(sp)
    2efe:	47a2                	lw	a5,8(sp)
    2f00:	4732                	lw	a4,12(sp)
    2f02:	0000a6b7          	lui	a3,0xa
    2f06:	6605                	lui	a2,0x1
    2f08:	2000b537          	lui	a0,0x2000b
    2f0c:	080c                	addi	a1,sp,16
    2f0e:	2b468693          	addi	a3,a3,692 # a2b4 <_sbrk+0x4f0>
    2f12:	bb860613          	addi	a2,a2,-1096 # bb8 <tos_at_raw_data_send_until+0x96>
    2f16:	42050513          	addi	a0,a0,1056 # 2000b420 <esp8266_tf_agent>
    2f1a:	d49fd0ef          	jal	ra,c62 <tos_at_cmd_exec_until>
    2f1e:	5502                	lw	a0,32(sp)
    2f20:	40f6                	lw	ra,92(sp)
    2f22:	1571                	addi	a0,a0,-4
    2f24:	00a03533          	snez	a0,a0
    2f28:	40a00533          	neg	a0,a0
    2f2c:	6125                	addi	sp,sp,96
    2f2e:	8082                	ret

00002f30 <esp8266_tencent_firmware_module_mqtt_sub>:
    2f30:	711d                	addi	sp,sp,-96
    2f32:	0000a6b7          	lui	a3,0xa
    2f36:	c62a                	sw	a0,12(sp)
    2f38:	c42e                	sw	a1,8(sp)
    2f3a:	33468693          	addi	a3,a3,820 # a334 <_sbrk+0x570>
    2f3e:	4601                	li	a2,0
    2f40:	4581                	li	a1,0
    2f42:	0808                	addi	a0,sp,16
    2f44:	ce86                	sw	ra,92(sp)
    2f46:	b8ffd0ef          	jal	ra,ad4 <tos_at_echo_create>
    2f4a:	47a2                	lw	a5,8(sp)
    2f4c:	4732                	lw	a4,12(sp)
    2f4e:	0000a6b7          	lui	a3,0xa
    2f52:	2000b537          	lui	a0,0x2000b
    2f56:	080c                	addi	a1,sp,16
    2f58:	34468693          	addi	a3,a3,836 # a344 <_sbrk+0x580>
    2f5c:	7d000613          	li	a2,2000
    2f60:	42050513          	addi	a0,a0,1056 # 2000b420 <esp8266_tf_agent>
    2f64:	cfffd0ef          	jal	ra,c62 <tos_at_cmd_exec_until>
    2f68:	5502                	lw	a0,32(sp)
    2f6a:	40f6                	lw	ra,92(sp)
    2f6c:	1571                	addi	a0,a0,-4
    2f6e:	00a03533          	snez	a0,a0
    2f72:	40a00533          	neg	a0,a0
    2f76:	6125                	addi	sp,sp,96
    2f78:	8082                	ret

00002f7a <esp8266_tencent_firmware_module_mqtt_unsub>:
    2f7a:	711d                	addi	sp,sp,-96
    2f7c:	0000a6b7          	lui	a3,0xa
    2f80:	c62a                	sw	a0,12(sp)
    2f82:	35c68693          	addi	a3,a3,860 # a35c <_sbrk+0x598>
    2f86:	4601                	li	a2,0
    2f88:	4581                	li	a1,0
    2f8a:	0808                	addi	a0,sp,16
    2f8c:	ce86                	sw	ra,92(sp)
    2f8e:	b47fd0ef          	jal	ra,ad4 <tos_at_echo_create>
    2f92:	4732                	lw	a4,12(sp)
    2f94:	0000a6b7          	lui	a3,0xa
    2f98:	2000b537          	lui	a0,0x2000b
    2f9c:	080c                	addi	a1,sp,16
    2f9e:	36c68693          	addi	a3,a3,876 # a36c <_sbrk+0x5a8>
    2fa2:	7d000613          	li	a2,2000
    2fa6:	42050513          	addi	a0,a0,1056 # 2000b420 <esp8266_tf_agent>
    2faa:	cb9fd0ef          	jal	ra,c62 <tos_at_cmd_exec_until>
    2fae:	5502                	lw	a0,32(sp)
    2fb0:	40f6                	lw	ra,92(sp)
    2fb2:	1571                	addi	a0,a0,-4
    2fb4:	00a03533          	snez	a0,a0
    2fb8:	40a00533          	neg	a0,a0
    2fbc:	6125                	addi	sp,sp,96
    2fbe:	8082                	ret

00002fc0 <esp8266_tencent_firmware_ota_set>:
    2fc0:	711d                	addi	sp,sp,-96
    2fc2:	0000a6b7          	lui	a3,0xa
    2fc6:	c62a                	sw	a0,12(sp)
    2fc8:	c42e                	sw	a1,8(sp)
    2fca:	3e468693          	addi	a3,a3,996 # a3e4 <_sbrk+0x620>
    2fce:	4601                	li	a2,0
    2fd0:	4581                	li	a1,0
    2fd2:	0808                	addi	a0,sp,16
    2fd4:	ce86                	sw	ra,92(sp)
    2fd6:	afffd0ef          	jal	ra,ad4 <tos_at_echo_create>
    2fda:	47a2                	lw	a5,8(sp)
    2fdc:	4732                	lw	a4,12(sp)
    2fde:	0000a6b7          	lui	a3,0xa
    2fe2:	2000b537          	lui	a0,0x2000b
    2fe6:	080c                	addi	a1,sp,16
    2fe8:	3f468693          	addi	a3,a3,1012 # a3f4 <_sbrk+0x630>
    2fec:	7d000613          	li	a2,2000
    2ff0:	42050513          	addi	a0,a0,1056 # 2000b420 <esp8266_tf_agent>
    2ff4:	c6ffd0ef          	jal	ra,c62 <tos_at_cmd_exec_until>
    2ff8:	5502                	lw	a0,32(sp)
    2ffa:	40f6                	lw	ra,92(sp)
    2ffc:	1571                	addi	a0,a0,-4
    2ffe:	00a03533          	snez	a0,a0
    3002:	40a00533          	neg	a0,a0
    3006:	6125                	addi	sp,sp,96
    3008:	8082                	ret

0000300a <esp8266_tencent_firmware_module_mqtt_conn>:
    300a:	7159                	addi	sp,sp,-112
    300c:	0000a6b7          	lui	a3,0xa
    3010:	d4a2                	sw	s0,104(sp)
    3012:	d0ca                	sw	s2,96(sp)
    3014:	842a                	mv	s0,a0
    3016:	26068693          	addi	a3,a3,608 # a260 <_sbrk+0x49c>
    301a:	4601                	li	a2,0
    301c:	4581                	li	a1,0
    301e:	0808                	addi	a0,sp,16
    3020:	6909                	lui	s2,0x2
    3022:	d2a6                	sw	s1,100(sp)
    3024:	cece                	sw	s3,92(sp)
    3026:	ccd2                	sw	s4,88(sp)
    3028:	cad6                	sw	s5,84(sp)
    302a:	d686                	sw	ra,108(sp)
    302c:	44ad                	li	s1,11
    302e:	aa7fd0ef          	jal	ra,ad4 <tos_at_echo_create>
    3032:	0000a9b7          	lui	s3,0xa
    3036:	71090913          	addi	s2,s2,1808 # 2710 <tos_task_yield+0x24>
    303a:	2000ba37          	lui	s4,0x2000b
    303e:	4a91                	li	s5,4
    3040:	14fd                	addi	s1,s1,-1
    3042:	e899                	bnez	s1,3058 <esp8266_tencent_firmware_module_mqtt_conn+0x4e>
    3044:	557d                	li	a0,-1
    3046:	50b6                	lw	ra,108(sp)
    3048:	5426                	lw	s0,104(sp)
    304a:	5496                	lw	s1,100(sp)
    304c:	5906                	lw	s2,96(sp)
    304e:	49f6                	lw	s3,92(sp)
    3050:	4a66                	lw	s4,88(sp)
    3052:	4ad6                	lw	s5,84(sp)
    3054:	6165                	addi	sp,sp,112
    3056:	8082                	ret
    3058:	00d44783          	lbu	a5,13(s0)
    305c:	00c44883          	lbu	a7,12(s0)
    3060:	00842803          	lw	a6,8(s0)
    3064:	c03e                	sw	a5,0(sp)
    3066:	4018                	lw	a4,0(s0)
    3068:	405c                	lw	a5,4(s0)
    306a:	27098693          	addi	a3,s3,624 # a270 <_sbrk+0x4ac>
    306e:	864a                	mv	a2,s2
    3070:	080c                	addi	a1,sp,16
    3072:	420a0513          	addi	a0,s4,1056 # 2000b420 <esp8266_tf_agent>
    3076:	bedfd0ef          	jal	ra,c62 <tos_at_cmd_exec_until>
    307a:	5782                	lw	a5,32(sp)
    307c:	01578863          	beq	a5,s5,308c <esp8266_tencent_firmware_module_mqtt_conn+0x82>
    3080:	4581                	li	a1,0
    3082:	3e800513          	li	a0,1000
    3086:	f84ff0ef          	jal	ra,280a <tos_task_delay>
    308a:	bf5d                	j	3040 <esp8266_tencent_firmware_module_mqtt_conn+0x36>
    308c:	4501                	li	a0,0
    308e:	bf65                	j	3046 <esp8266_tencent_firmware_module_mqtt_conn+0x3c>

00003090 <esp8266_tencent_firmware_module_mqtt_discon>:
    3090:	715d                	addi	sp,sp,-80
    3092:	4681                	li	a3,0
    3094:	4601                	li	a2,0
    3096:	4581                	li	a1,0
    3098:	850a                	mv	a0,sp
    309a:	c686                	sw	ra,76(sp)
    309c:	a39fd0ef          	jal	ra,ad4 <tos_at_echo_create>
    30a0:	0000a6b7          	lui	a3,0xa
    30a4:	2000b537          	lui	a0,0x2000b
    30a8:	858a                	mv	a1,sp
    30aa:	29068693          	addi	a3,a3,656 # a290 <_sbrk+0x4cc>
    30ae:	3e800613          	li	a2,1000
    30b2:	42050513          	addi	a0,a0,1056 # 2000b420 <esp8266_tf_agent>
    30b6:	b17fd0ef          	jal	ra,bcc <tos_at_cmd_exec>
    30ba:	4542                	lw	a0,16(sp)
    30bc:	40b6                	lw	ra,76(sp)
    30be:	157d                	addi	a0,a0,-1
    30c0:	00a03533          	snez	a0,a0
    30c4:	40a00533          	neg	a0,a0
    30c8:	6161                	addi	sp,sp,80
    30ca:	8082                	ret

000030cc <esp8266_tencent_firmware_module_debug_level_set>:
    30cc:	711d                	addi	sp,sp,-96
    30ce:	c62a                	sw	a0,12(sp)
    30d0:	4681                	li	a3,0
    30d2:	4601                	li	a2,0
    30d4:	4581                	li	a1,0
    30d6:	0808                	addi	a0,sp,16
    30d8:	ce86                	sw	ra,92(sp)
    30da:	9fbfd0ef          	jal	ra,ad4 <tos_at_echo_create>
    30de:	4732                	lw	a4,12(sp)
    30e0:	0000a6b7          	lui	a3,0xa
    30e4:	2000b537          	lui	a0,0x2000b
    30e8:	080c                	addi	a1,sp,16
    30ea:	21468693          	addi	a3,a3,532 # a214 <_sbrk+0x450>
    30ee:	3e800613          	li	a2,1000
    30f2:	42050513          	addi	a0,a0,1056 # 2000b420 <esp8266_tf_agent>
    30f6:	ad7fd0ef          	jal	ra,bcc <tos_at_cmd_exec>
    30fa:	5502                	lw	a0,32(sp)
    30fc:	40f6                	lw	ra,92(sp)
    30fe:	157d                	addi	a0,a0,-1
    3100:	00a03533          	snez	a0,a0
    3104:	40a00533          	neg	a0,a0
    3108:	6125                	addi	sp,sp,96
    310a:	8082                	ret

0000310c <esp8266_tencent_firmware_stop_smartconfig>:
    310c:	715d                	addi	sp,sp,-80
    310e:	4681                	li	a3,0
    3110:	4601                	li	a2,0
    3112:	4581                	li	a1,0
    3114:	850a                	mv	a0,sp
    3116:	c686                	sw	ra,76(sp)
    3118:	9bdfd0ef          	jal	ra,ad4 <tos_at_echo_create>
    311c:	0000a6b7          	lui	a3,0xa
    3120:	2000b537          	lui	a0,0x2000b
    3124:	858a                	mv	a1,sp
    3126:	44868693          	addi	a3,a3,1096 # a448 <_sbrk+0x684>
    312a:	7d000613          	li	a2,2000
    312e:	42050513          	addi	a0,a0,1056 # 2000b420 <esp8266_tf_agent>
    3132:	a9bfd0ef          	jal	ra,bcc <tos_at_cmd_exec>
    3136:	4542                	lw	a0,16(sp)
    3138:	40b6                	lw	ra,76(sp)
    313a:	157d                	addi	a0,a0,-1
    313c:	00a03533          	snez	a0,a0
    3140:	40a00533          	neg	a0,a0
    3144:	6161                	addi	sp,sp,80
    3146:	8082                	ret

00003148 <esp8266_tencent_firmware_module_mqtt_publ>:
    3148:	711d                	addi	sp,sp,-96
    314a:	0000a6b7          	lui	a3,0xa
    314e:	2d068693          	addi	a3,a3,720 # a2d0 <_sbrk+0x50c>
    3152:	cca2                	sw	s0,88(sp)
    3154:	c62a                	sw	a0,12(sp)
    3156:	8432                	mv	s0,a2
    3158:	c42e                	sw	a1,8(sp)
    315a:	4601                	li	a2,0
    315c:	4581                	li	a1,0
    315e:	0808                	addi	a0,sp,16
    3160:	ce86                	sw	ra,92(sp)
    3162:	caa6                	sw	s1,84(sp)
    3164:	971fd0ef          	jal	ra,ad4 <tos_at_echo_create>
    3168:	0000a5b7          	lui	a1,0xa
    316c:	1e058593          	addi	a1,a1,480 # a1e0 <_sbrk+0x41c>
    3170:	8522                	mv	a0,s0
    3172:	62c050ef          	jal	ra,879e <strcat>
    3176:	8522                	mv	a0,s0
    3178:	646050ef          	jal	ra,87be <strlen>
    317c:	47a2                	lw	a5,8(sp)
    317e:	4732                	lw	a4,12(sp)
    3180:	0000a6b7          	lui	a3,0xa
    3184:	2000b4b7          	lui	s1,0x2000b
    3188:	ffe50813          	addi	a6,a0,-2
    318c:	2d468693          	addi	a3,a3,724 # a2d4 <_sbrk+0x510>
    3190:	3e800613          	li	a2,1000
    3194:	080c                	addi	a1,sp,16
    3196:	42048513          	addi	a0,s1,1056 # 2000b420 <esp8266_tf_agent>
    319a:	ac9fd0ef          	jal	ra,c62 <tos_at_cmd_exec_until>
    319e:	5702                	lw	a4,32(sp)
    31a0:	4791                	li	a5,4
    31a2:	557d                	li	a0,-1
    31a4:	02f71e63          	bne	a4,a5,31e0 <esp8266_tencent_firmware_module_mqtt_publ+0x98>
    31a8:	0000a6b7          	lui	a3,0xa
    31ac:	2f068693          	addi	a3,a3,752 # a2f0 <_sbrk+0x52c>
    31b0:	4601                	li	a2,0
    31b2:	4581                	li	a1,0
    31b4:	0808                	addi	a0,sp,16
    31b6:	91ffd0ef          	jal	ra,ad4 <tos_at_echo_create>
    31ba:	8522                	mv	a0,s0
    31bc:	602050ef          	jal	ra,87be <strlen>
    31c0:	6605                	lui	a2,0x1
    31c2:	872a                	mv	a4,a0
    31c4:	86a2                	mv	a3,s0
    31c6:	bb860613          	addi	a2,a2,-1096 # bb8 <tos_at_raw_data_send_until+0x96>
    31ca:	080c                	addi	a1,sp,16
    31cc:	42048513          	addi	a0,s1,1056
    31d0:	953fd0ef          	jal	ra,b22 <tos_at_raw_data_send_until>
    31d4:	5502                	lw	a0,32(sp)
    31d6:	1571                	addi	a0,a0,-4
    31d8:	00a03533          	snez	a0,a0
    31dc:	40a00533          	neg	a0,a0
    31e0:	40f6                	lw	ra,92(sp)
    31e2:	4466                	lw	s0,88(sp)
    31e4:	44d6                	lw	s1,84(sp)
    31e6:	6125                	addi	sp,sp,96
    31e8:	8082                	ret

000031ea <esp8266_tencent_firmware_module_mqtt_state_get>:
    31ea:	7135                	addi	sp,sp,-160
    31ec:	cd22                	sw	s0,152(sp)
    31ee:	4681                	li	a3,0
    31f0:	04000613          	li	a2,64
    31f4:	088c                	addi	a1,sp,80
    31f6:	842a                	mv	s0,a0
    31f8:	0808                	addi	a0,sp,16
    31fa:	cf06                	sw	ra,156(sp)
    31fc:	cb26                	sw	s1,148(sp)
    31fe:	8d7fd0ef          	jal	ra,ad4 <tos_at_echo_create>
    3202:	0000a6b7          	lui	a3,0xa
    3206:	2000b537          	lui	a0,0x2000b
    320a:	30068693          	addi	a3,a3,768 # a300 <_sbrk+0x53c>
    320e:	3e800613          	li	a2,1000
    3212:	080c                	addi	a1,sp,16
    3214:	42050513          	addi	a0,a0,1056 # 2000b420 <esp8266_tf_agent>
    3218:	9b5fd0ef          	jal	ra,bcc <tos_at_cmd_exec>
    321c:	5482                	lw	s1,32(sp)
    321e:	4785                	li	a5,1
    3220:	00f48863          	beq	s1,a5,3230 <esp8266_tencent_firmware_module_mqtt_state_get+0x46>
    3224:	557d                	li	a0,-1
    3226:	40fa                	lw	ra,156(sp)
    3228:	446a                	lw	s0,152(sp)
    322a:	44da                	lw	s1,148(sp)
    322c:	610d                	addi	sp,sp,160
    322e:	8082                	ret
    3230:	4542                	lw	a0,16(sp)
    3232:	0000a5b7          	lui	a1,0xa
    3236:	31458593          	addi	a1,a1,788 # a314 <_sbrk+0x550>
    323a:	5e6050ef          	jal	ra,8820 <strstr>
    323e:	d17d                	beqz	a0,3224 <esp8266_tencent_firmware_module_mqtt_state_get+0x3a>
    3240:	0000a5b7          	lui	a1,0xa
    3244:	0070                	addi	a2,sp,12
    3246:	32458593          	addi	a1,a1,804 # a324 <_sbrk+0x560>
    324a:	442050ef          	jal	ra,868c <siscanf>
    324e:	4532                	lw	a0,12(sp)
    3250:	e501                	bnez	a0,3258 <esp8266_tencent_firmware_module_mqtt_state_get+0x6e>
    3252:	00042023          	sw	zero,0(s0)
    3256:	bfc1                	j	3226 <esp8266_tencent_firmware_module_mqtt_state_get+0x3c>
    3258:	fc9516e3          	bne	a0,s1,3224 <esp8266_tencent_firmware_module_mqtt_state_get+0x3a>
    325c:	c008                	sw	a0,0(s0)
    325e:	4501                	li	a0,0
    3260:	b7d9                	j	3226 <esp8266_tencent_firmware_module_mqtt_state_get+0x3c>

00003262 <esp8266_tencent_firmware_ota_read_fwinfo>:
    3262:	7135                	addi	sp,sp,-160
    3264:	cb26                	sw	s1,148(sp)
    3266:	2000b4b7          	lui	s1,0x2000b
    326a:	cd22                	sw	s0,152(sp)
    326c:	4605                	li	a2,1
    326e:	842a                	mv	s0,a0
    3270:	4581                	li	a1,0
    3272:	3d048513          	addi	a0,s1,976 # 2000b3d0 <ota_fw_info_sem>
    3276:	cf06                	sw	ra,156(sp)
    3278:	c202                	sw	zero,4(sp)
    327a:	c402                	sw	zero,8(sp)
    327c:	00011623          	sh	zero,12(sp)
    3280:	e91fe0ef          	jal	ra,2110 <tos_sem_create_max>
    3284:	e549                	bnez	a0,330e <esp8266_tencent_firmware_ota_read_fwinfo+0xac>
    3286:	55fd                	li	a1,-1
    3288:	567d                	li	a2,-1
    328a:	3d048513          	addi	a0,s1,976
    328e:	f17fe0ef          	jal	ra,21a4 <tos_sem_pend>
    3292:	0000a6b7          	lui	a3,0xa
    3296:	39c68693          	addi	a3,a3,924 # a39c <_sbrk+0x5d8>
    329a:	04000613          	li	a2,64
    329e:	088c                	addi	a1,sp,80
    32a0:	0808                	addi	a0,sp,16
    32a2:	833fd0ef          	jal	ra,ad4 <tos_at_echo_create>
    32a6:	0000a6b7          	lui	a3,0xa
    32aa:	2000b537          	lui	a0,0x2000b
    32ae:	3a868693          	addi	a3,a3,936 # a3a8 <_sbrk+0x5e4>
    32b2:	7d000613          	li	a2,2000
    32b6:	080c                	addi	a1,sp,16
    32b8:	42050513          	addi	a0,a0,1056 # 2000b420 <esp8266_tf_agent>
    32bc:	9a7fd0ef          	jal	ra,c62 <tos_at_cmd_exec_until>
    32c0:	5702                	lw	a4,32(sp)
    32c2:	4791                	li	a5,4
    32c4:	4501                	li	a0,0
    32c6:	02f71f63          	bne	a4,a5,3304 <esp8266_tencent_firmware_ota_read_fwinfo+0xa2>
    32ca:	0000a5b7          	lui	a1,0xa
    32ce:	01040713          	addi	a4,s0,16
    32d2:	0054                	addi	a3,sp,4
    32d4:	8622                	mv	a2,s0
    32d6:	3b858593          	addi	a1,a1,952 # a3b8 <_sbrk+0x5f4>
    32da:	0888                	addi	a0,sp,80
    32dc:	3b0050ef          	jal	ra,868c <siscanf>
    32e0:	4701                	li	a4,0
    32e2:	4781                	li	a5,0
    32e4:	46a9                	li	a3,10
    32e6:	0050                	addi	a2,sp,4
    32e8:	963a                	add	a2,a2,a4
    32ea:	00064603          	lbu	a2,0(a2)
    32ee:	ca09                	beqz	a2,3300 <esp8266_tencent_firmware_ota_read_fwinfo+0x9e>
    32f0:	02d787b3          	mul	a5,a5,a3
    32f4:	0705                	addi	a4,a4,1
    32f6:	fd078793          	addi	a5,a5,-48
    32fa:	97b2                	add	a5,a5,a2
    32fc:	fed715e3          	bne	a4,a3,32e6 <esp8266_tencent_firmware_ota_read_fwinfo+0x84>
    3300:	c45c                	sw	a5,12(s0)
    3302:	4501                	li	a0,0
    3304:	40fa                	lw	ra,156(sp)
    3306:	446a                	lw	s0,152(sp)
    3308:	44da                	lw	s1,148(sp)
    330a:	610d                	addi	sp,sp,160
    330c:	8082                	ret
    330e:	557d                	li	a0,-1
    3310:	bfd5                	j	3304 <esp8266_tencent_firmware_ota_read_fwinfo+0xa2>

00003312 <esp8266_tencent_firmware_recvpub>:
    3312:	7139                	addi	sp,sp,-64
    3314:	da26                	sw	s1,52(sp)
    3316:	200024b7          	lui	s1,0x20002
    331a:	d84a                	sw	s2,48(sp)
    331c:	14000613          	li	a2,320
    3320:	4581                	li	a1,0
    3322:	30048513          	addi	a0,s1,768 # 20002300 <mqtt_message>
    3326:	2000b937          	lui	s2,0x2000b
    332a:	dc22                	sw	s0,56(sp)
    332c:	d64e                	sw	s3,44(sp)
    332e:	d452                	sw	s4,40(sp)
    3330:	d256                	sw	s5,36(sp)
    3332:	d05a                	sw	s6,32(sp)
    3334:	ce5e                	sw	s7,28(sp)
    3336:	de06                	sw	ra,60(sp)
    3338:	4401                	li	s0,0
    333a:	806fd0ef          	jal	ra,340 <memset>
    333e:	89ca                	mv	s3,s2
    3340:	02200a93          	li	s5,34
    3344:	02c00b13          	li	s6,44
    3348:	03f00b93          	li	s7,63
    334c:	30048a13          	addi	s4,s1,768
    3350:	4605                	li	a2,1
    3352:	00f10593          	addi	a1,sp,15
    3356:	42090513          	addi	a0,s2,1056 # 2000b420 <esp8266_tf_agent>
    335a:	f32fd0ef          	jal	ra,a8c <tos_at_uart_read>
    335e:	4785                	li	a5,1
    3360:	0af51063          	bne	a0,a5,3400 <esp8266_tencent_firmware_recvpub+0xee>
    3364:	00f14783          	lbu	a5,15(sp)
    3368:	ff5784e3          	beq	a5,s5,3350 <esp8266_tencent_firmware_recvpub+0x3e>
    336c:	01678a63          	beq	a5,s6,3380 <esp8266_tencent_firmware_recvpub+0x6e>
    3370:	fe8bc0e3          	blt	s7,s0,3350 <esp8266_tencent_firmware_recvpub+0x3e>
    3374:	008a0733          	add	a4,s4,s0
    3378:	00f70023          	sb	a5,0(a4)
    337c:	0405                	addi	s0,s0,1
    337e:	bfc9                	j	3350 <esp8266_tencent_firmware_recvpub+0x3e>
    3380:	20002937          	lui	s2,0x20002
    3384:	04000793          	li	a5,64
    3388:	30090913          	addi	s2,s2,768 # 20002300 <mqtt_message>
    338c:	02f41c63          	bne	s0,a5,33c4 <esp8266_tencent_firmware_recvpub+0xb2>
    3390:	02090fa3          	sb	zero,63(s2)
    3394:	4401                	li	s0,0
    3396:	02c00a93          	li	s5,44
    339a:	4a29                	li	s4,10
    339c:	4605                	li	a2,1
    339e:	00f10593          	addi	a1,sp,15
    33a2:	42098513          	addi	a0,s3,1056
    33a6:	ee6fd0ef          	jal	ra,a8c <tos_at_uart_read>
    33aa:	4785                	li	a5,1
    33ac:	04f51a63          	bne	a0,a5,3400 <esp8266_tencent_firmware_recvpub+0xee>
    33b0:	00f14783          	lbu	a5,15(sp)
    33b4:	01578c63          	beq	a5,s5,33cc <esp8266_tencent_firmware_recvpub+0xba>
    33b8:	03440433          	mul	s0,s0,s4
    33bc:	fd078793          	addi	a5,a5,-48
    33c0:	943e                	add	s0,s0,a5
    33c2:	bfe9                	j	339c <esp8266_tencent_firmware_recvpub+0x8a>
    33c4:	944a                	add	s0,s0,s2
    33c6:	00040023          	sb	zero,0(s0)
    33ca:	b7e9                	j	3394 <esp8266_tencent_firmware_recvpub+0x82>
    33cc:	10000793          	li	a5,256
    33d0:	0087f463          	bgeu	a5,s0,33d8 <esp8266_tencent_firmware_recvpub+0xc6>
    33d4:	10000413          	li	s0,256
    33d8:	0409                	addi	s0,s0,2
    33da:	8622                	mv	a2,s0
    33dc:	04090593          	addi	a1,s2,64
    33e0:	42098513          	addi	a0,s3,1056
    33e4:	ea8fd0ef          	jal	ra,a8c <tos_at_uart_read>
    33e8:	00a41c63          	bne	s0,a0,3400 <esp8266_tencent_firmware_recvpub+0xee>
    33ec:	20002537          	lui	a0,0x20002
    33f0:	14000613          	li	a2,320
    33f4:	30048593          	addi	a1,s1,768
    33f8:	44050513          	addi	a0,a0,1088 # 20002440 <mqtt_message_mail>
    33fc:	f7bfd0ef          	jal	ra,1376 <tos_mail_q_post>
    3400:	50f2                	lw	ra,60(sp)
    3402:	5462                	lw	s0,56(sp)
    3404:	54d2                	lw	s1,52(sp)
    3406:	5942                	lw	s2,48(sp)
    3408:	59b2                	lw	s3,44(sp)
    340a:	5a22                	lw	s4,40(sp)
    340c:	5a92                	lw	s5,36(sp)
    340e:	5b02                	lw	s6,32(sp)
    3410:	4bf2                	lw	s7,28(sp)
    3412:	6121                	addi	sp,sp,64
    3414:	8082                	ret

00003416 <esp8266_tencent_firmware_recvcmd>:
    3416:	7179                	addi	sp,sp,-48
    3418:	2000b537          	lui	a0,0x2000b
    341c:	4635                	li	a2,13
    341e:	006c                	addi	a1,sp,12
    3420:	42050513          	addi	a0,a0,1056 # 2000b420 <esp8266_tf_agent>
    3424:	d606                	sw	ra,44(sp)
    3426:	e66fd0ef          	jal	ra,a8c <tos_at_uart_read>
    342a:	47b5                	li	a5,13
    342c:	02f51063          	bne	a0,a5,344c <esp8266_tencent_firmware_recvcmd+0x36>
    3430:	0000a5b7          	lui	a1,0xa
    3434:	40c58593          	addi	a1,a1,1036 # a40c <_sbrk+0x648>
    3438:	0068                	addi	a0,sp,12
    343a:	3e6050ef          	jal	ra,8820 <strstr>
    343e:	c519                	beqz	a0,344c <esp8266_tencent_firmware_recvcmd+0x36>
    3440:	2000b537          	lui	a0,0x2000b
    3444:	3d050513          	addi	a0,a0,976 # 2000b3d0 <ota_fw_info_sem>
    3448:	d59fe0ef          	jal	ra,21a0 <tos_sem_post>
    344c:	50b2                	lw	ra,44(sp)
    344e:	6145                	addi	sp,sp,48
    3450:	8082                	ret

00003452 <esp8266_tencent_firmware_recvfwdata>:
    3452:	7179                	addi	sp,sp,-48
    3454:	d226                	sw	s1,36(sp)
    3456:	2000b4b7          	lui	s1,0x2000b
    345a:	d422                	sw	s0,40(sp)
    345c:	d04a                	sw	s2,32(sp)
    345e:	ce4e                	sw	s3,28(sp)
    3460:	cc52                	sw	s4,24(sp)
    3462:	d606                	sw	ra,44(sp)
    3464:	ca56                	sw	s5,20(sp)
    3466:	c85a                	sw	s6,16(sp)
    3468:	4401                	li	s0,0
    346a:	8a26                	mv	s4,s1
    346c:	02c00993          	li	s3,44
    3470:	4929                	li	s2,10
    3472:	4605                	li	a2,1
    3474:	00f10593          	addi	a1,sp,15
    3478:	42048513          	addi	a0,s1,1056 # 2000b420 <esp8266_tf_agent>
    347c:	e10fd0ef          	jal	ra,a8c <tos_at_uart_read>
    3480:	4785                	li	a5,1
    3482:	06f51163          	bne	a0,a5,34e4 <esp8266_tencent_firmware_recvfwdata+0x92>
    3486:	00f14783          	lbu	a5,15(sp)
    348a:	07379763          	bne	a5,s3,34f8 <esp8266_tencent_firmware_recvfwdata+0xa6>
    348e:	08000a93          	li	s5,128
    3492:	200029b7          	lui	s3,0x20002
    3496:	2000bb37          	lui	s6,0x2000b
    349a:	84a2                	mv	s1,s0
    349c:	008af463          	bgeu	s5,s0,34a4 <esp8266_tencent_firmware_recvfwdata+0x52>
    34a0:	08000493          	li	s1,128
    34a4:	04c2                	slli	s1,s1,0x10
    34a6:	80c1                	srli	s1,s1,0x10
    34a8:	8626                	mv	a2,s1
    34aa:	a5898593          	addi	a1,s3,-1448 # 20001a58 <buffer.7556>
    34ae:	420a0513          	addi	a0,s4,1056
    34b2:	ddafd0ef          	jal	ra,a8c <tos_at_uart_read>
    34b6:	892a                	mv	s2,a0
    34b8:	02951663          	bne	a0,s1,34e4 <esp8266_tencent_firmware_recvfwdata+0x92>
    34bc:	862a                	mv	a2,a0
    34be:	a5898593          	addi	a1,s3,-1448
    34c2:	3e0b0513          	addi	a0,s6,992 # 2000b3e0 <ota_fw_data_chr_fifo>
    34c6:	a51fd0ef          	jal	ra,f16 <tos_chr_fifo_push_stream>
    34ca:	00a05d63          	blez	a0,34e4 <esp8266_tencent_firmware_recvfwdata+0x92>
    34ce:	41240433          	sub	s0,s0,s2
    34d2:	0442                	slli	s0,s0,0x10
    34d4:	8041                	srli	s0,s0,0x10
    34d6:	f071                	bnez	s0,349a <esp8266_tencent_firmware_recvfwdata+0x48>
    34d8:	2000b537          	lui	a0,0x2000b
    34dc:	3fc50513          	addi	a0,a0,1020 # 2000b3fc <ota_fw_data_sem>
    34e0:	cc1fe0ef          	jal	ra,21a0 <tos_sem_post>
    34e4:	50b2                	lw	ra,44(sp)
    34e6:	5422                	lw	s0,40(sp)
    34e8:	5492                	lw	s1,36(sp)
    34ea:	5902                	lw	s2,32(sp)
    34ec:	49f2                	lw	s3,28(sp)
    34ee:	4a62                	lw	s4,24(sp)
    34f0:	4ad2                	lw	s5,20(sp)
    34f2:	4b42                	lw	s6,16(sp)
    34f4:	6145                	addi	sp,sp,48
    34f6:	8082                	ret
    34f8:	03240433          	mul	s0,s0,s2
    34fc:	fd078793          	addi	a5,a5,-48
    3500:	943e                	add	s0,s0,a5
    3502:	0442                	slli	s0,s0,0x10
    3504:	8041                	srli	s0,s0,0x10
    3506:	b7b5                	j	3472 <esp8266_tencent_firmware_recvfwdata+0x20>

00003508 <esp8266_tencent_firmware_start_smartconfig>:
    3508:	711d                	addi	sp,sp,-96
    350a:	cca2                	sw	s0,88(sp)
    350c:	2000b437          	lui	s0,0x2000b
    3510:	4581                	li	a1,0
    3512:	40c40513          	addi	a0,s0,1036 # 2000b40c <smart_config_status_event>
    3516:	ce86                	sw	ra,92(sp)
    3518:	b63fd0ef          	jal	ra,107a <tos_event_create>
    351c:	c511                	beqz	a0,3528 <esp8266_tencent_firmware_start_smartconfig+0x20>
    351e:	557d                	li	a0,-1
    3520:	40f6                	lw	ra,92(sp)
    3522:	4466                	lw	s0,88(sp)
    3524:	6125                	addi	sp,sp,96
    3526:	8082                	ret
    3528:	4681                	li	a3,0
    352a:	4601                	li	a2,0
    352c:	4581                	li	a1,0
    352e:	0808                	addi	a0,sp,16
    3530:	da4fd0ef          	jal	ra,ad4 <tos_at_echo_create>
    3534:	0000a6b7          	lui	a3,0xa
    3538:	2000b537          	lui	a0,0x2000b
    353c:	43468693          	addi	a3,a3,1076 # a434 <_sbrk+0x670>
    3540:	7d000613          	li	a2,2000
    3544:	080c                	addi	a1,sp,16
    3546:	42050513          	addi	a0,a0,1056 # 2000b420 <esp8266_tf_agent>
    354a:	e82fd0ef          	jal	ra,bcc <tos_at_cmd_exec>
    354e:	5702                	lw	a4,32(sp)
    3550:	4785                	li	a5,1
    3552:	fcf716e3          	bne	a4,a5,351e <esp8266_tencent_firmware_start_smartconfig+0x16>
    3556:	4795                	li	a5,5
    3558:	56fd                	li	a3,-1
    355a:	577d                	li	a4,-1
    355c:	0070                	addi	a2,sp,12
    355e:	458d                	li	a1,3
    3560:	40c40513          	addi	a0,s0,1036
    3564:	b3dfd0ef          	jal	ra,10a0 <tos_event_pend>
    3568:	f95d                	bnez	a0,351e <esp8266_tencent_firmware_start_smartconfig+0x16>
    356a:	4532                	lw	a0,12(sp)
    356c:	157d                	addi	a0,a0,-1
    356e:	00a03533          	snez	a0,a0
    3572:	40a00533          	neg	a0,a0
    3576:	b76d                	j	3520 <esp8266_tencent_firmware_start_smartconfig+0x18>

00003578 <esp8266_tencent_firmware_get_rssi>:
    3578:	7111                	addi	sp,sp,-256
    357a:	dba6                	sw	s1,244(sp)
    357c:	06400613          	li	a2,100
    3580:	4581                	li	a1,0
    3582:	84aa                	mv	s1,a0
    3584:	0168                	addi	a0,sp,140
    3586:	df86                	sw	ra,252(sp)
    3588:	dda2                	sw	s0,248(sp)
    358a:	db7fc0ef          	jal	ra,340 <memset>
    358e:	02300613          	li	a2,35
    3592:	4581                	li	a1,0
    3594:	1028                	addi	a0,sp,40
    3596:	dabfc0ef          	jal	ra,340 <memset>
    359a:	4681                	li	a3,0
    359c:	06400613          	li	a2,100
    35a0:	016c                	addi	a1,sp,140
    35a2:	00e8                	addi	a0,sp,76
    35a4:	ca02                	sw	zero,20(sp)
    35a6:	cc02                	sw	zero,24(sp)
    35a8:	ce02                	sw	zero,28(sp)
    35aa:	d002                	sw	zero,32(sp)
    35ac:	d202                	sw	zero,36(sp)
    35ae:	d26fd0ef          	jal	ra,ad4 <tos_at_echo_create>
    35b2:	0000a6b7          	lui	a3,0xa
    35b6:	2000b537          	lui	a0,0x2000b
    35ba:	00ec                	addi	a1,sp,76
    35bc:	05468693          	addi	a3,a3,84 # a054 <_sbrk+0x290>
    35c0:	7d000613          	li	a2,2000
    35c4:	42050513          	addi	a0,a0,1056 # 2000b420 <esp8266_tf_agent>
    35c8:	e04fd0ef          	jal	ra,bcc <tos_at_cmd_exec>
    35cc:	45f6                	lw	a1,92(sp)
    35ce:	4785                	li	a5,1
    35d0:	02f58063          	beq	a1,a5,35f0 <esp8266_tencent_firmware_get_rssi+0x78>
    35d4:	0000a537          	lui	a0,0xa
    35d8:	0170                	addi	a2,sp,140
    35da:	06050513          	addi	a0,a0,96 # a060 <_sbrk+0x29c>
    35de:	6b5040ef          	jal	ra,8492 <iprintf>
    35e2:	57fd                	li	a5,-1
    35e4:	50fe                	lw	ra,252(sp)
    35e6:	546e                	lw	s0,248(sp)
    35e8:	54de                	lw	s1,244(sp)
    35ea:	853e                	mv	a0,a5
    35ec:	6111                	addi	sp,sp,256
    35ee:	8082                	ret
    35f0:	4436                	lw	s0,76(sp)
    35f2:	0000a5b7          	lui	a1,0xa
    35f6:	08058593          	addi	a1,a1,128 # a080 <_sbrk+0x2bc>
    35fa:	8522                	mv	a0,s0
    35fc:	224050ef          	jal	ra,8820 <strstr>
    3600:	57fd                	li	a5,-1
    3602:	f16d                	bnez	a0,35e4 <esp8266_tencent_firmware_get_rssi+0x6c>
    3604:	0000a5b7          	lui	a1,0xa
    3608:	08858593          	addi	a1,a1,136 # a088 <_sbrk+0x2c4>
    360c:	8522                	mv	a0,s0
    360e:	212050ef          	jal	ra,8820 <strstr>
    3612:	e901                	bnez	a0,3622 <esp8266_tencent_firmware_get_rssi+0xaa>
    3614:	0000a537          	lui	a0,0xa
    3618:	09050513          	addi	a0,a0,144 # a090 <_sbrk+0x2cc>
    361c:	7c3040ef          	jal	ra,85de <puts>
    3620:	b7c9                	j	35e2 <esp8266_tencent_firmware_get_rssi+0x6a>
    3622:	0000a5b7          	lui	a1,0xa
    3626:	081c                	addi	a5,sp,16
    3628:	0078                	addi	a4,sp,12
    362a:	0854                	addi	a3,sp,20
    362c:	1030                	addi	a2,sp,40
    362e:	0a058593          	addi	a1,a1,160 # a0a0 <_sbrk+0x2dc>
    3632:	051d                	addi	a0,a0,7
    3634:	058050ef          	jal	ra,868c <siscanf>
    3638:	4791                	li	a5,4
    363a:	00f50763          	beq	a0,a5,3648 <esp8266_tencent_firmware_get_rssi+0xd0>
    363e:	0000a537          	lui	a0,0xa
    3642:	0b450513          	addi	a0,a0,180 # a0b4 <_sbrk+0x2f0>
    3646:	bfd9                	j	361c <esp8266_tencent_firmware_get_rssi+0xa4>
    3648:	4742                	lw	a4,16(sp)
    364a:	46b2                	lw	a3,12(sp)
    364c:	0000a537          	lui	a0,0xa
    3650:	0850                	addi	a2,sp,20
    3652:	102c                	addi	a1,sp,40
    3654:	0cc50513          	addi	a0,a0,204 # a0cc <_sbrk+0x308>
    3658:	63b040ef          	jal	ra,8492 <iprintf>
    365c:	47c2                	lw	a5,16(sp)
    365e:	c09c                	sw	a5,0(s1)
    3660:	4781                	li	a5,0
    3662:	b749                	j	35e4 <esp8266_tencent_firmware_get_rssi+0x6c>

00003664 <esp8266_tencent_firmware_ota_read_fwdata>:
    3664:	711d                	addi	sp,sp,-96
    3666:	caa6                	sw	s1,84(sp)
    3668:	2000b4b7          	lui	s1,0x2000b
    366c:	cca2                	sw	s0,88(sp)
    366e:	c8ca                	sw	s2,80(sp)
    3670:	842e                	mv	s0,a1
    3672:	892a                	mv	s2,a0
    3674:	862e                	mv	a2,a1
    3676:	85aa                	mv	a1,a0
    3678:	3e048513          	addi	a0,s1,992 # 2000b3e0 <ota_fw_data_chr_fifo>
    367c:	ce86                	sw	ra,92(sp)
    367e:	c6ce                	sw	s3,76(sp)
    3680:	815fd0ef          	jal	ra,e94 <tos_chr_fifo_create>
    3684:	c909                	beqz	a0,3696 <esp8266_tencent_firmware_ota_read_fwdata+0x32>
    3686:	557d                	li	a0,-1
    3688:	40f6                	lw	ra,92(sp)
    368a:	4466                	lw	s0,88(sp)
    368c:	44d6                	lw	s1,84(sp)
    368e:	4946                	lw	s2,80(sp)
    3690:	49b6                	lw	s3,76(sp)
    3692:	6125                	addi	sp,sp,96
    3694:	8082                	ret
    3696:	2000b9b7          	lui	s3,0x2000b
    369a:	4605                	li	a2,1
    369c:	4581                	li	a1,0
    369e:	3fc98513          	addi	a0,s3,1020 # 2000b3fc <ota_fw_data_sem>
    36a2:	a6ffe0ef          	jal	ra,2110 <tos_sem_create_max>
    36a6:	f165                	bnez	a0,3686 <esp8266_tencent_firmware_ota_read_fwdata+0x22>
    36a8:	4681                	li	a3,0
    36aa:	4601                	li	a2,0
    36ac:	4581                	li	a1,0
    36ae:	850a                	mv	a0,sp
    36b0:	c24fd0ef          	jal	ra,ad4 <tos_at_echo_create>
    36b4:	0000a6b7          	lui	a3,0xa
    36b8:	2000b537          	lui	a0,0x2000b
    36bc:	8722                	mv	a4,s0
    36be:	38468693          	addi	a3,a3,900 # a384 <_sbrk+0x5c0>
    36c2:	12c00613          	li	a2,300
    36c6:	858a                	mv	a1,sp
    36c8:	42050513          	addi	a0,a0,1056 # 2000b420 <esp8266_tf_agent>
    36cc:	d00fd0ef          	jal	ra,bcc <tos_at_cmd_exec>
    36d0:	4742                	lw	a4,16(sp)
    36d2:	4785                	li	a5,1
    36d4:	faf719e3          	bne	a4,a5,3686 <esp8266_tencent_firmware_ota_read_fwdata+0x22>
    36d8:	55fd                	li	a1,-1
    36da:	567d                	li	a2,-1
    36dc:	3fc98513          	addi	a0,s3,1020
    36e0:	ac5fe0ef          	jal	ra,21a4 <tos_sem_pend>
    36e4:	8622                	mv	a2,s0
    36e6:	85ca                	mv	a1,s2
    36e8:	3e048513          	addi	a0,s1,992
    36ec:	88bfd0ef          	jal	ra,f76 <tos_chr_fifo_pop_stream>
    36f0:	bf61                	j	3688 <esp8266_tencent_firmware_ota_read_fwdata+0x24>

000036f2 <esp8266_tencent_firmware_recvscstatus>:
    36f2:	1141                	addi	sp,sp,-16
    36f4:	c422                	sw	s0,8(sp)
    36f6:	2000b537          	lui	a0,0x2000b
    36fa:	20002437          	lui	s0,0x20002
    36fe:	02700613          	li	a2,39
    3702:	ad840593          	addi	a1,s0,-1320 # 20001ad8 <buffer.7577>
    3706:	42050513          	addi	a0,a0,1056 # 2000b420 <esp8266_tf_agent>
    370a:	c606                	sw	ra,12(sp)
    370c:	c226                	sw	s1,4(sp)
    370e:	b7efd0ef          	jal	ra,a8c <tos_at_uart_read>
    3712:	02700793          	li	a5,39
    3716:	02f51b63          	bne	a0,a5,374c <esp8266_tencent_firmware_recvscstatus+0x5a>
    371a:	0000a5b7          	lui	a1,0xa
    371e:	41c58593          	addi	a1,a1,1052 # a41c <_sbrk+0x658>
    3722:	ad840493          	addi	s1,s0,-1320
    3726:	ad840513          	addi	a0,s0,-1320
    372a:	020483a3          	sb	zero,39(s1)
    372e:	0f2050ef          	jal	ra,8820 <strstr>
    3732:	2000b7b7          	lui	a5,0x2000b
    3736:	4585                	li	a1,1
    3738:	e111                	bnez	a0,373c <esp8266_tencent_firmware_recvscstatus+0x4a>
    373a:	4589                	li	a1,2
    373c:	4422                	lw	s0,8(sp)
    373e:	40b2                	lw	ra,12(sp)
    3740:	4492                	lw	s1,4(sp)
    3742:	40c78513          	addi	a0,a5,1036 # 2000b40c <smart_config_status_event>
    3746:	0141                	addi	sp,sp,16
    3748:	a69fd06f          	j	11b0 <tos_event_post>
    374c:	40b2                	lw	ra,12(sp)
    374e:	4422                	lw	s0,8(sp)
    3750:	4492                	lw	s1,4(sp)
    3752:	0141                	addi	sp,sp,16
    3754:	8082                	ret

00003756 <esp8266_tencent_firmware_init>:
    3756:	0000a537          	lui	a0,0xa
    375a:	711d                	addi	sp,sp,-96
    375c:	0fc50513          	addi	a0,a0,252 # a0fc <_sbrk+0x338>
    3760:	ce86                	sw	ra,92(sp)
    3762:	cca2                	sw	s0,88(sp)
    3764:	caa6                	sw	s1,84(sp)
    3766:	c8ca                	sw	s2,80(sp)
    3768:	c6ce                	sw	s3,76(sp)
    376a:	c4d2                	sw	s4,72(sp)
    376c:	673040ef          	jal	ra,85de <puts>
    3770:	0000a6b7          	lui	a3,0xa
    3774:	12468693          	addi	a3,a3,292 # a124 <_sbrk+0x360>
    3778:	4601                	li	a2,0
    377a:	4581                	li	a1,0
    377c:	850a                	mv	a0,sp
    377e:	6905                	lui	s2,0x1
    3780:	b54fd0ef          	jal	ra,ad4 <tos_at_echo_create>
    3784:	44ad                	li	s1,11
    3786:	0000a9b7          	lui	s3,0xa
    378a:	38890913          	addi	s2,s2,904 # 1388 <tos_mmblk_pool_create+0xe>
    378e:	2000b437          	lui	s0,0x2000b
    3792:	4a11                	li	s4,4
    3794:	14fd                	addi	s1,s1,-1
    3796:	e491                	bnez	s1,37a2 <esp8266_tencent_firmware_init+0x4c>
    3798:	0000a537          	lui	a0,0xa
    379c:	1e450513          	addi	a0,a0,484 # a1e4 <_sbrk+0x420>
    37a0:	a0a9                	j	37ea <esp8266_tencent_firmware_init+0x94>
    37a2:	12c98693          	addi	a3,s3,300 # a12c <_sbrk+0x368>
    37a6:	864a                	mv	a2,s2
    37a8:	858a                	mv	a1,sp
    37aa:	42040513          	addi	a0,s0,1056 # 2000b420 <esp8266_tf_agent>
    37ae:	cb4fd0ef          	jal	ra,c62 <tos_at_cmd_exec_until>
    37b2:	47c2                	lw	a5,16(sp)
    37b4:	ff4790e3          	bne	a5,s4,3794 <esp8266_tencent_firmware_init+0x3e>
    37b8:	4681                	li	a3,0
    37ba:	4601                	li	a2,0
    37bc:	4581                	li	a1,0
    37be:	850a                	mv	a0,sp
    37c0:	b14fd0ef          	jal	ra,ad4 <tos_at_echo_create>
    37c4:	0000a6b7          	lui	a3,0xa
    37c8:	1dc68693          	addi	a3,a3,476 # a1dc <_sbrk+0x418>
    37cc:	3e800613          	li	a2,1000
    37d0:	858a                	mv	a1,sp
    37d2:	42040513          	addi	a0,s0,1056
    37d6:	bf6fd0ef          	jal	ra,bcc <tos_at_cmd_exec>
    37da:	4742                	lw	a4,16(sp)
    37dc:	4785                	li	a5,1
    37de:	00f70a63          	beq	a4,a5,37f2 <esp8266_tencent_firmware_init+0x9c>
    37e2:	0000a537          	lui	a0,0xa
    37e6:	13c50513          	addi	a0,a0,316 # a13c <_sbrk+0x378>
    37ea:	5f5040ef          	jal	ra,85de <puts>
    37ee:	557d                	li	a0,-1
    37f0:	a061                	j	3878 <esp8266_tencent_firmware_init+0x122>
    37f2:	4681                	li	a3,0
    37f4:	4601                	li	a2,0
    37f6:	4581                	li	a1,0
    37f8:	850a                	mv	a0,sp
    37fa:	adafd0ef          	jal	ra,ad4 <tos_at_echo_create>
    37fe:	44ad                	li	s1,11
    3800:	0000a937          	lui	s2,0xa
    3804:	4985                	li	s3,1
    3806:	14fd                	addi	s1,s1,-1
    3808:	e491                	bnez	s1,3814 <esp8266_tencent_firmware_init+0xbe>
    380a:	0000a537          	lui	a0,0xa
    380e:	1c050513          	addi	a0,a0,448 # a1c0 <_sbrk+0x3fc>
    3812:	bfe1                	j	37ea <esp8266_tencent_firmware_init+0x94>
    3814:	15890693          	addi	a3,s2,344 # a158 <_sbrk+0x394>
    3818:	3e800613          	li	a2,1000
    381c:	858a                	mv	a1,sp
    381e:	42040513          	addi	a0,s0,1056
    3822:	baafd0ef          	jal	ra,bcc <tos_at_cmd_exec>
    3826:	47c2                	lw	a5,16(sp)
    3828:	fd379fe3          	bne	a5,s3,3806 <esp8266_tencent_firmware_init+0xb0>
    382c:	4681                	li	a3,0
    382e:	4601                	li	a2,0
    3830:	4581                	li	a1,0
    3832:	850a                	mv	a0,sp
    3834:	aa0fd0ef          	jal	ra,ad4 <tos_at_echo_create>
    3838:	44ad                	li	s1,11
    383a:	0000a9b7          	lui	s3,0xa
    383e:	4905                	li	s2,1
    3840:	a831                	j	385c <esp8266_tencent_firmware_init+0x106>
    3842:	4701                	li	a4,0
    3844:	16898693          	addi	a3,s3,360 # a168 <_sbrk+0x3a4>
    3848:	3e800613          	li	a2,1000
    384c:	858a                	mv	a1,sp
    384e:	42040513          	addi	a0,s0,1056
    3852:	b7afd0ef          	jal	ra,bcc <tos_at_cmd_exec>
    3856:	47c2                	lw	a5,16(sp)
    3858:	01278963          	beq	a5,s2,386a <esp8266_tencent_firmware_init+0x114>
    385c:	14fd                	addi	s1,s1,-1
    385e:	f0f5                	bnez	s1,3842 <esp8266_tencent_firmware_init+0xec>
    3860:	0000a537          	lui	a0,0xa
    3864:	17850513          	addi	a0,a0,376 # a178 <_sbrk+0x3b4>
    3868:	b749                	j	37ea <esp8266_tencent_firmware_init+0x94>
    386a:	0000a537          	lui	a0,0xa
    386e:	19850513          	addi	a0,a0,408 # a198 <_sbrk+0x3d4>
    3872:	56d040ef          	jal	ra,85de <puts>
    3876:	4501                	li	a0,0
    3878:	40f6                	lw	ra,92(sp)
    387a:	4466                	lw	s0,88(sp)
    387c:	44d6                	lw	s1,84(sp)
    387e:	4946                	lw	s2,80(sp)
    3880:	49b6                	lw	s3,76(sp)
    3882:	4a26                	lw	s4,72(sp)
    3884:	6125                	addi	sp,sp,96
    3886:	8082                	ret

00003888 <esp8266_tencent_firmware_join_ap>:
    3888:	711d                	addi	sp,sp,-96
    388a:	caa6                	sw	s1,84(sp)
    388c:	c8ca                	sw	s2,80(sp)
    388e:	c6ce                	sw	s3,76(sp)
    3890:	892a                	mv	s2,a0
    3892:	89ae                	mv	s3,a1
    3894:	4681                	li	a3,0
    3896:	4601                	li	a2,0
    3898:	4581                	li	a1,0
    389a:	850a                	mv	a0,sp
    389c:	649d                	lui	s1,0x7
    389e:	cca2                	sw	s0,88(sp)
    38a0:	c4d2                	sw	s4,72(sp)
    38a2:	c2d6                	sw	s5,68(sp)
    38a4:	c0da                	sw	s6,64(sp)
    38a6:	ce86                	sw	ra,92(sp)
    38a8:	442d                	li	s0,11
    38aa:	a2afd0ef          	jal	ra,ad4 <tos_at_echo_create>
    38ae:	0000aa37          	lui	s4,0xa
    38b2:	53048493          	addi	s1,s1,1328 # 7530 <__muldf3+0x522>
    38b6:	2000bab7          	lui	s5,0x2000b
    38ba:	4b05                	li	s6,1
    38bc:	147d                	addi	s0,s0,-1
    38be:	ec01                	bnez	s0,38d6 <esp8266_tencent_firmware_join_ap+0x4e>
    38c0:	557d                	li	a0,-1
    38c2:	40f6                	lw	ra,92(sp)
    38c4:	4466                	lw	s0,88(sp)
    38c6:	44d6                	lw	s1,84(sp)
    38c8:	4946                	lw	s2,80(sp)
    38ca:	49b6                	lw	s3,76(sp)
    38cc:	4a26                	lw	s4,72(sp)
    38ce:	4a96                	lw	s5,68(sp)
    38d0:	4b06                	lw	s6,64(sp)
    38d2:	6125                	addi	sp,sp,96
    38d4:	8082                	ret
    38d6:	87ce                	mv	a5,s3
    38d8:	874a                	mv	a4,s2
    38da:	1fca0693          	addi	a3,s4,508 # a1fc <_sbrk+0x438>
    38de:	8626                	mv	a2,s1
    38e0:	858a                	mv	a1,sp
    38e2:	420a8513          	addi	a0,s5,1056 # 2000b420 <esp8266_tf_agent>
    38e6:	ae6fd0ef          	jal	ra,bcc <tos_at_cmd_exec>
    38ea:	47c2                	lw	a5,16(sp)
    38ec:	01678763          	beq	a5,s6,38fa <esp8266_tencent_firmware_join_ap+0x72>
    38f0:	7d000513          	li	a0,2000
    38f4:	9d8ff0ef          	jal	ra,2acc <tos_sleep_ms>
    38f8:	b7d1                	j	38bc <esp8266_tencent_firmware_join_ap+0x34>
    38fa:	4501                	li	a0,0
    38fc:	b7d9                	j	38c2 <esp8266_tencent_firmware_join_ap+0x3a>

000038fe <esp8266_tencent_firmware_sal_init>:
    38fe:	20000737          	lui	a4,0x20000
    3902:	86aa                	mv	a3,a0
    3904:	20002637          	lui	a2,0x20002
    3908:	0000a5b7          	lui	a1,0xa
    390c:	2000b537          	lui	a0,0x2000b
    3910:	1141                	addi	sp,sp,-16
    3912:	4791                	li	a5,4
    3914:	01070713          	addi	a4,a4,16 # 20000010 <esp8266_tencent_firmware_at_event>
    3918:	b0060613          	addi	a2,a2,-1280 # 20001b00 <esp8266_tf_at_parse_task_stk>
    391c:	42458593          	addi	a1,a1,1060 # a424 <_sbrk+0x660>
    3920:	42050513          	addi	a0,a0,1056 # 2000b420 <esp8266_tf_agent>
    3924:	c606                	sw	ra,12(sp)
    3926:	bdafd0ef          	jal	ra,d00 <tos_at_init>
    392a:	ed01                	bnez	a0,3942 <esp8266_tencent_firmware_sal_init+0x44>
    392c:	20000537          	lui	a0,0x20000
    3930:	03050513          	addi	a0,a0,48 # 20000030 <tencent_firmware_module_esp8266>
    3934:	cebfc0ef          	jal	ra,61e <tos_tf_module_register>
    3938:	e509                	bnez	a0,3942 <esp8266_tencent_firmware_sal_init+0x44>
    393a:	40b2                	lw	ra,12(sp)
    393c:	0141                	addi	sp,sp,16
    393e:	cf3fc06f          	j	630 <tos_tf_module_init>
    3942:	40b2                	lw	ra,12(sp)
    3944:	557d                	li	a0,-1
    3946:	0141                	addi	sp,sp,16
    3948:	8082                	ret

0000394a <sw_clearpend>:
    394a:	e000f737          	lui	a4,0xe000f
    394e:	431c                	lw	a5,0(a4)
    3950:	0786                	slli	a5,a5,0x1
    3952:	8385                	srli	a5,a5,0x1
    3954:	c31c                	sw	a5,0(a4)
    3956:	8082                	ret

00003958 <port_context_switch>:
    3958:	e000f737          	lui	a4,0xe000f
    395c:	431c                	lw	a5,0(a4)
    395e:	800006b7          	lui	a3,0x80000
    3962:	8fd5                	or	a5,a5,a3
    3964:	c31c                	sw	a5,0(a4)
    3966:	8082                	ret

00003968 <port_irq_context_switch>:
    3968:	ff1ff06f          	j	3958 <port_context_switch>

0000396c <port_systick_config>:
    396c:	e000f7b7          	lui	a5,0xe000f
    3970:	0007a023          	sw	zero,0(a5) # e000f000 <_eusrstack+0xbffff000>
    3974:	0007a223          	sw	zero,4(a5)
    3978:	4681                	li	a3,0
    397a:	c794                	sw	a3,8(a5)
    397c:	4701                	li	a4,0
    397e:	c7d8                	sw	a4,12(a5)
    3980:	fff50613          	addi	a2,a0,-1
    3984:	cb90                	sw	a2,16(a5)
    3986:	4681                	li	a3,0
    3988:	cbd4                	sw	a3,20(a5)
    398a:	473d                	li	a4,15
    398c:	c398                	sw	a4,0(a5)
    398e:	8082                	ret

00003990 <port_systick_priority_set>:
    3990:	0ff57513          	andi	a0,a0,255
    3994:	e000e7b7          	lui	a5,0xe000e
    3998:	40a78623          	sb	a0,1036(a5) # e000e40c <_eusrstack+0xbfffe40c>
    399c:	8082                	ret

0000399e <port_cpu_init>:
    399e:	e000e7b7          	lui	a5,0xe000e
    39a2:	5741                	li	a4,-16
    39a4:	40e78723          	sb	a4,1038(a5) # e000e40e <_eusrstack+0xbfffe40e>
    39a8:	6705                	lui	a4,0x1
    39aa:	10e7a023          	sw	a4,256(a5)
    39ae:	6711                	lui	a4,0x4
    39b0:	10e7a023          	sw	a4,256(a5)
    39b4:	8082                	ret

000039b6 <SysTick_Handler>:
    39b6:	715d                	addi	sp,sp,-80
    39b8:	e682                	fsw	ft0,76(sp)
    39ba:	e486                	fsw	ft1,72(sp)
    39bc:	e28a                	fsw	ft2,68(sp)
    39be:	e08e                	fsw	ft3,64(sp)
    39c0:	fe12                	fsw	ft4,60(sp)
    39c2:	fc16                	fsw	ft5,56(sp)
    39c4:	fa1a                	fsw	ft6,52(sp)
    39c6:	f81e                	fsw	ft7,48(sp)
    39c8:	f62a                	fsw	fa0,44(sp)
    39ca:	f42e                	fsw	fa1,40(sp)
    39cc:	f232                	fsw	fa2,36(sp)
    39ce:	f036                	fsw	fa3,32(sp)
    39d0:	ee3a                	fsw	fa4,28(sp)
    39d2:	ec3e                	fsw	fa5,24(sp)
    39d4:	ea42                	fsw	fa6,20(sp)
    39d6:	e846                	fsw	fa7,16(sp)
    39d8:	e672                	fsw	ft8,12(sp)
    39da:	e476                	fsw	ft9,8(sp)
    39dc:	e27a                	fsw	ft10,4(sp)
    39de:	e07e                	fsw	ft11,0(sp)
    39e0:	828a                	mv	t0,sp
    39e2:	8181a103          	lw	sp,-2024(gp) # 20000268 <k_irq_stk_top>
    39e6:	c016                	sw	t0,0(sp)
    39e8:	995fe0ef          	jal	ra,237c <tos_knl_is_running>
    39ec:	c919                	beqz	a0,3a02 <SysTick_Handler+0x4c>
    39ee:	89bfe0ef          	jal	ra,2288 <tos_knl_irq_enter>
    39f2:	e000f7b7          	lui	a5,0xe000f
    39f6:	0007a223          	sw	zero,4(a5) # e000f004 <_eusrstack+0xbffff004>
    39fa:	88cff0ef          	jal	ra,2a86 <tos_tick_handler>
    39fe:	8a9fe0ef          	jal	ra,22a6 <tos_knl_irq_leave>
    3a02:	4102                	lw	sp,0(sp)
    3a04:	6036                	flw	ft0,76(sp)
    3a06:	60a6                	flw	ft1,72(sp)
    3a08:	6116                	flw	ft2,68(sp)
    3a0a:	6186                	flw	ft3,64(sp)
    3a0c:	7272                	flw	ft4,60(sp)
    3a0e:	72e2                	flw	ft5,56(sp)
    3a10:	7352                	flw	ft6,52(sp)
    3a12:	73c2                	flw	ft7,48(sp)
    3a14:	7532                	flw	fa0,44(sp)
    3a16:	75a2                	flw	fa1,40(sp)
    3a18:	7612                	flw	fa2,36(sp)
    3a1a:	7682                	flw	fa3,32(sp)
    3a1c:	6772                	flw	fa4,28(sp)
    3a1e:	67e2                	flw	fa5,24(sp)
    3a20:	6852                	flw	fa6,20(sp)
    3a22:	68c2                	flw	fa7,16(sp)
    3a24:	6e32                	flw	ft8,12(sp)
    3a26:	6ea2                	flw	ft9,8(sp)
    3a28:	6f12                	flw	ft10,4(sp)
    3a2a:	6f82                	flw	ft11,0(sp)
    3a2c:	6161                	addi	sp,sp,80
    3a2e:	30200073          	mret

00003a32 <tos_cpu_cpsr_save>:
    3a32:	fdafc06f          	j	20c <port_cpsr_save>

00003a36 <tos_cpu_cpsr_restore>:
    3a36:	fdcfc06f          	j	212 <port_cpsr_restore>

00003a3a <cpu_context_switch>:
    3a3a:	f1fff06f          	j	3958 <port_context_switch>

00003a3e <cpu_irq_context_switch>:
    3a3e:	f2bff06f          	j	3968 <port_irq_context_switch>

00003a42 <cpu_sched_start>:
    3a42:	1141                	addi	sp,sp,-16
    3a44:	c606                	sw	ra,12(sp)
    3a46:	fd2fc0ef          	jal	ra,218 <port_sched_start>

00003a4a <cpu_systick_init>:
    3a4a:	1141                	addi	sp,sp,-16
    3a4c:	c422                	sw	s0,8(sp)
    3a4e:	842a                	mv	s0,a0
    3a50:	0f000513          	li	a0,240
    3a54:	c606                	sw	ra,12(sp)
    3a56:	f3bff0ef          	jal	ra,3990 <port_systick_priority_set>
    3a5a:	8522                	mv	a0,s0
    3a5c:	4422                	lw	s0,8(sp)
    3a5e:	40b2                	lw	ra,12(sp)
    3a60:	0141                	addi	sp,sp,16
    3a62:	f0bff06f          	j	396c <port_systick_config>

00003a66 <cpu_init>:
    3a66:	81818713          	addi	a4,gp,-2024 # 20000268 <k_irq_stk_top>
    3a6a:	431c                	lw	a5,0(a4)
    3a6c:	1141                	addi	sp,sp,-16
    3a6e:	c606                	sw	ra,12(sp)
    3a70:	17f1                	addi	a5,a5,-4
    3a72:	9bf1                	andi	a5,a5,-4
    3a74:	c31c                	sw	a5,0(a4)
    3a76:	200007b7          	lui	a5,0x20000
    3a7a:	2507a603          	lw	a2,592(a5) # 20000250 <k_cpu_tick_per_second>
    3a7e:	2547a683          	lw	a3,596(a5)
    3a82:	81c1a503          	lw	a0,-2020(gp) # 2000026c <SystemCoreClock>
    3a86:	4581                	li	a1,0
    3a88:	7f7010ef          	jal	ra,5a7e <__udivdi3>
    3a8c:	84a1a223          	sw	a0,-1980(gp) # 20000294 <k_cpu_cycle_per_tick>
    3a90:	fbbff0ef          	jal	ra,3a4a <cpu_systick_init>
    3a94:	40b2                	lw	ra,12(sp)
    3a96:	0141                	addi	sp,sp,16
    3a98:	f07ff06f          	j	399e <port_cpu_init>

00003a9c <cpu_task_stk_init>:
    3a9c:	9736                	add	a4,a4,a3
    3a9e:	9b71                	andi	a4,a4,-4
    3aa0:	aceae8b7          	lui	a7,0xaceae
    3aa4:	8e2a                	mv	t3,a0
    3aa6:	f8470813          	addi	a6,a4,-124 # 3f84 <Draw_Circle+0xb0>
    3aaa:	f8070513          	addi	a0,a4,-128
    3aae:	4685                	li	a3,1
    3ab0:	4329                	li	t1,10
    3ab2:	d0088893          	addi	a7,a7,-768 # aceadd00 <_eusrstack+0x8ce9dd00>
    3ab6:	02000e93          	li	t4,32
    3aba:	0266c7b3          	div	a5,a3,t1
    3abe:	0811                	addi	a6,a6,4
    3ac0:	0266ef33          	rem	t5,a3,t1
    3ac4:	0792                	slli	a5,a5,0x4
    3ac6:	0685                	addi	a3,a3,1
    3ac8:	01e7e7b3          	or	a5,a5,t5
    3acc:	0117e7b3          	or	a5,a5,a7
    3ad0:	fef82e23          	sw	a5,-4(a6)
    3ad4:	ffd693e3          	bne	a3,t4,3aba <cpu_task_stk_init+0x1e>
    3ad8:	878e                	mv	a5,gp
    3ada:	f8f72623          	sw	a5,-116(a4)
    3ade:	67a1                	lui	a5,0x8
    3ae0:	88078793          	addi	a5,a5,-1920 # 7880 <__sflush_r+0x10c>
    3ae4:	fab72423          	sw	a1,-88(a4)
    3ae8:	f8c72423          	sw	a2,-120(a4)
    3aec:	f8f72223          	sw	a5,-124(a4)
    3af0:	f9c72023          	sw	t3,-128(a4)
    3af4:	8082                	ret

00003af6 <tos_cpu_clz>:
    3af6:	7741                	lui	a4,0xffff0
    3af8:	8f69                	and	a4,a4,a0
    3afa:	87aa                	mv	a5,a0
    3afc:	4501                	li	a0,0
    3afe:	e319                	bnez	a4,3b04 <tos_cpu_clz+0xe>
    3b00:	07c2                	slli	a5,a5,0x10
    3b02:	4541                	li	a0,16
    3b04:	ff000737          	lui	a4,0xff000
    3b08:	8f7d                	and	a4,a4,a5
    3b0a:	e319                	bnez	a4,3b10 <tos_cpu_clz+0x1a>
    3b0c:	07a2                	slli	a5,a5,0x8
    3b0e:	0521                	addi	a0,a0,8
    3b10:	f0000737          	lui	a4,0xf0000
    3b14:	8f7d                	and	a4,a4,a5
    3b16:	e319                	bnez	a4,3b1c <tos_cpu_clz+0x26>
    3b18:	0792                	slli	a5,a5,0x4
    3b1a:	0511                	addi	a0,a0,4
    3b1c:	c0000737          	lui	a4,0xc0000
    3b20:	8f7d                	and	a4,a4,a5
    3b22:	e319                	bnez	a4,3b28 <tos_cpu_clz+0x32>
    3b24:	078a                	slli	a5,a5,0x2
    3b26:	0509                	addi	a0,a0,2
    3b28:	0007c663          	bltz	a5,3b34 <tos_cpu_clz+0x3e>
    3b2c:	c399                	beqz	a5,3b32 <tos_cpu_clz+0x3c>
    3b2e:	0505                	addi	a0,a0,1
    3b30:	8082                	ret
    3b32:	0509                	addi	a0,a0,2
    3b34:	8082                	ret

00003b36 <NMI_Handler>:
    3b36:	30200073          	mret

00003b3a <HardFault_Handler>:
    3b3a:	0000a537          	lui	a0,0xa
    3b3e:	715d                	addi	sp,sp,-80
    3b40:	49c50513          	addi	a0,a0,1180 # a49c <_sbrk+0x6d8>
    3b44:	e682                	fsw	ft0,76(sp)
    3b46:	e486                	fsw	ft1,72(sp)
    3b48:	e28a                	fsw	ft2,68(sp)
    3b4a:	e08e                	fsw	ft3,64(sp)
    3b4c:	fe12                	fsw	ft4,60(sp)
    3b4e:	fc16                	fsw	ft5,56(sp)
    3b50:	fa1a                	fsw	ft6,52(sp)
    3b52:	f81e                	fsw	ft7,48(sp)
    3b54:	f62a                	fsw	fa0,44(sp)
    3b56:	f42e                	fsw	fa1,40(sp)
    3b58:	f232                	fsw	fa2,36(sp)
    3b5a:	f036                	fsw	fa3,32(sp)
    3b5c:	ee3a                	fsw	fa4,28(sp)
    3b5e:	ec3e                	fsw	fa5,24(sp)
    3b60:	ea42                	fsw	fa6,20(sp)
    3b62:	e846                	fsw	fa7,16(sp)
    3b64:	e672                	fsw	ft8,12(sp)
    3b66:	e476                	fsw	ft9,8(sp)
    3b68:	e27a                	fsw	ft10,4(sp)
    3b6a:	e07e                	fsw	ft11,0(sp)
    3b6c:	273040ef          	jal	ra,85de <puts>
    3b70:	609010ef          	jal	ra,5978 <__get_MEPC>
    3b74:	85aa                	mv	a1,a0
    3b76:	0000a537          	lui	a0,0xa
    3b7a:	4a850513          	addi	a0,a0,1192 # a4a8 <_sbrk+0x6e4>
    3b7e:	115040ef          	jal	ra,8492 <iprintf>
    3b82:	5fd010ef          	jal	ra,597e <__get_MCAUSE>
    3b86:	85aa                	mv	a1,a0
    3b88:	0000a537          	lui	a0,0xa
    3b8c:	4b850513          	addi	a0,a0,1208 # a4b8 <_sbrk+0x6f4>
    3b90:	103040ef          	jal	ra,8492 <iprintf>
    3b94:	5f1010ef          	jal	ra,5984 <__get_MTVAL>
    3b98:	85aa                	mv	a1,a0
    3b9a:	0000a537          	lui	a0,0xa
    3b9e:	4c850513          	addi	a0,a0,1224 # a4c8 <_sbrk+0x704>
    3ba2:	0f1040ef          	jal	ra,8492 <iprintf>
    3ba6:	a001                	j	3ba6 <HardFault_Handler+0x6c>

00003ba8 <USART2_IRQHandler>:
    3ba8:	711d                	addi	sp,sp,-96
    3baa:	cea2                	sw	s0,92(sp)
    3bac:	40004437          	lui	s0,0x40004
    3bb0:	52500593          	li	a1,1317
    3bb4:	40040513          	addi	a0,s0,1024 # 40004400 <_eusrstack+0x1fff4400>
    3bb8:	e682                	fsw	ft0,76(sp)
    3bba:	e486                	fsw	ft1,72(sp)
    3bbc:	e28a                	fsw	ft2,68(sp)
    3bbe:	e08e                	fsw	ft3,64(sp)
    3bc0:	fe12                	fsw	ft4,60(sp)
    3bc2:	fc16                	fsw	ft5,56(sp)
    3bc4:	fa1a                	fsw	ft6,52(sp)
    3bc6:	f81e                	fsw	ft7,48(sp)
    3bc8:	f62a                	fsw	fa0,44(sp)
    3bca:	f42e                	fsw	fa1,40(sp)
    3bcc:	f232                	fsw	fa2,36(sp)
    3bce:	f036                	fsw	fa3,32(sp)
    3bd0:	ee3a                	fsw	fa4,28(sp)
    3bd2:	ec3e                	fsw	fa5,24(sp)
    3bd4:	ea42                	fsw	fa6,20(sp)
    3bd6:	e846                	fsw	fa7,16(sp)
    3bd8:	e672                	fsw	ft8,12(sp)
    3bda:	e476                	fsw	ft9,8(sp)
    3bdc:	e27a                	fsw	ft10,4(sp)
    3bde:	e07e                	fsw	ft11,0(sp)
    3be0:	455010ef          	jal	ra,5834 <USART_GetITStatus>
    3be4:	cd09                	beqz	a0,3bfe <USART2_IRQHandler+0x56>
    3be6:	40040513          	addi	a0,s0,1024
    3bea:	435010ef          	jal	ra,581e <USART_ReceiveData>
    3bee:	0ff57593          	andi	a1,a0,255
    3bf2:	2000b537          	lui	a0,0x2000b
    3bf6:	42050513          	addi	a0,a0,1056 # 2000b420 <esp8266_tf_agent>
    3bfa:	a74fd0ef          	jal	ra,e6e <tos_at_uart_input_byte>
    3bfe:	4476                	lw	s0,92(sp)
    3c00:	6036                	flw	ft0,76(sp)
    3c02:	60a6                	flw	ft1,72(sp)
    3c04:	6116                	flw	ft2,68(sp)
    3c06:	6186                	flw	ft3,64(sp)
    3c08:	7272                	flw	ft4,60(sp)
    3c0a:	72e2                	flw	ft5,56(sp)
    3c0c:	7352                	flw	ft6,52(sp)
    3c0e:	73c2                	flw	ft7,48(sp)
    3c10:	7532                	flw	fa0,44(sp)
    3c12:	75a2                	flw	fa1,40(sp)
    3c14:	7612                	flw	fa2,36(sp)
    3c16:	7682                	flw	fa3,32(sp)
    3c18:	6772                	flw	fa4,28(sp)
    3c1a:	67e2                	flw	fa5,24(sp)
    3c1c:	6852                	flw	fa6,20(sp)
    3c1e:	68c2                	flw	fa7,16(sp)
    3c20:	6e32                	flw	ft8,12(sp)
    3c22:	6ea2                	flw	ft9,8(sp)
    3c24:	6f12                	flw	ft10,4(sp)
    3c26:	6f82                	flw	ft11,0(sp)
    3c28:	6125                	addi	sp,sp,96
    3c2a:	30200073          	mret

00003c2e <UART6_IRQHandler>:
    3c2e:	711d                	addi	sp,sp,-96
    3c30:	cea2                	sw	s0,92(sp)
    3c32:	40002437          	lui	s0,0x40002
    3c36:	52500593          	li	a1,1317
    3c3a:	80040513          	addi	a0,s0,-2048 # 40001800 <_eusrstack+0x1fff1800>
    3c3e:	e682                	fsw	ft0,76(sp)
    3c40:	e486                	fsw	ft1,72(sp)
    3c42:	e28a                	fsw	ft2,68(sp)
    3c44:	e08e                	fsw	ft3,64(sp)
    3c46:	fe12                	fsw	ft4,60(sp)
    3c48:	fc16                	fsw	ft5,56(sp)
    3c4a:	fa1a                	fsw	ft6,52(sp)
    3c4c:	f81e                	fsw	ft7,48(sp)
    3c4e:	f62a                	fsw	fa0,44(sp)
    3c50:	f42e                	fsw	fa1,40(sp)
    3c52:	f232                	fsw	fa2,36(sp)
    3c54:	f036                	fsw	fa3,32(sp)
    3c56:	ee3a                	fsw	fa4,28(sp)
    3c58:	ec3e                	fsw	fa5,24(sp)
    3c5a:	ea42                	fsw	fa6,20(sp)
    3c5c:	e846                	fsw	fa7,16(sp)
    3c5e:	e672                	fsw	ft8,12(sp)
    3c60:	e476                	fsw	ft9,8(sp)
    3c62:	e27a                	fsw	ft10,4(sp)
    3c64:	e07e                	fsw	ft11,0(sp)
    3c66:	3cf010ef          	jal	ra,5834 <USART_GetITStatus>
    3c6a:	cd09                	beqz	a0,3c84 <UART6_IRQHandler+0x56>
    3c6c:	80040513          	addi	a0,s0,-2048
    3c70:	3af010ef          	jal	ra,581e <USART_ReceiveData>
    3c74:	0ff57593          	andi	a1,a0,255
    3c78:	2000b537          	lui	a0,0x2000b
    3c7c:	7e050513          	addi	a0,a0,2016 # 2000b7e0 <esp8266_agent>
    3c80:	9eefd0ef          	jal	ra,e6e <tos_at_uart_input_byte>
    3c84:	4476                	lw	s0,92(sp)
    3c86:	6036                	flw	ft0,76(sp)
    3c88:	60a6                	flw	ft1,72(sp)
    3c8a:	6116                	flw	ft2,68(sp)
    3c8c:	6186                	flw	ft3,64(sp)
    3c8e:	7272                	flw	ft4,60(sp)
    3c90:	72e2                	flw	ft5,56(sp)
    3c92:	7352                	flw	ft6,52(sp)
    3c94:	73c2                	flw	ft7,48(sp)
    3c96:	7532                	flw	fa0,44(sp)
    3c98:	75a2                	flw	fa1,40(sp)
    3c9a:	7612                	flw	fa2,36(sp)
    3c9c:	7682                	flw	fa3,32(sp)
    3c9e:	6772                	flw	fa4,28(sp)
    3ca0:	67e2                	flw	fa5,24(sp)
    3ca2:	6852                	flw	fa6,20(sp)
    3ca4:	68c2                	flw	fa7,16(sp)
    3ca6:	6e32                	flw	ft8,12(sp)
    3ca8:	6ea2                	flw	ft9,8(sp)
    3caa:	6f12                	flw	ft10,4(sp)
    3cac:	6f82                	flw	ft11,0(sp)
    3cae:	6125                	addi	sp,sp,96
    3cb0:	30200073          	mret

00003cb4 <UART7_IRQHandler>:
    3cb4:	711d                	addi	sp,sp,-96
    3cb6:	cea2                	sw	s0,92(sp)
    3cb8:	40002437          	lui	s0,0x40002
    3cbc:	52500593          	li	a1,1317
    3cc0:	c0040513          	addi	a0,s0,-1024 # 40001c00 <_eusrstack+0x1fff1c00>
    3cc4:	e682                	fsw	ft0,76(sp)
    3cc6:	e486                	fsw	ft1,72(sp)
    3cc8:	e28a                	fsw	ft2,68(sp)
    3cca:	e08e                	fsw	ft3,64(sp)
    3ccc:	fe12                	fsw	ft4,60(sp)
    3cce:	fc16                	fsw	ft5,56(sp)
    3cd0:	fa1a                	fsw	ft6,52(sp)
    3cd2:	f81e                	fsw	ft7,48(sp)
    3cd4:	f62a                	fsw	fa0,44(sp)
    3cd6:	f42e                	fsw	fa1,40(sp)
    3cd8:	f232                	fsw	fa2,36(sp)
    3cda:	f036                	fsw	fa3,32(sp)
    3cdc:	ee3a                	fsw	fa4,28(sp)
    3cde:	ec3e                	fsw	fa5,24(sp)
    3ce0:	ea42                	fsw	fa6,20(sp)
    3ce2:	e846                	fsw	fa7,16(sp)
    3ce4:	e672                	fsw	ft8,12(sp)
    3ce6:	e476                	fsw	ft9,8(sp)
    3ce8:	e27a                	fsw	ft10,4(sp)
    3cea:	e07e                	fsw	ft11,0(sp)
    3cec:	349010ef          	jal	ra,5834 <USART_GetITStatus>
    3cf0:	cd09                	beqz	a0,3d0a <UART7_IRQHandler+0x56>
    3cf2:	c0040513          	addi	a0,s0,-1024
    3cf6:	329010ef          	jal	ra,581e <USART_ReceiveData>
    3cfa:	0ff57593          	andi	a1,a0,255
    3cfe:	2000b537          	lui	a0,0x2000b
    3d02:	42050513          	addi	a0,a0,1056 # 2000b420 <esp8266_tf_agent>
    3d06:	968fd0ef          	jal	ra,e6e <tos_at_uart_input_byte>
    3d0a:	4476                	lw	s0,92(sp)
    3d0c:	6036                	flw	ft0,76(sp)
    3d0e:	60a6                	flw	ft1,72(sp)
    3d10:	6116                	flw	ft2,68(sp)
    3d12:	6186                	flw	ft3,64(sp)
    3d14:	7272                	flw	ft4,60(sp)
    3d16:	72e2                	flw	ft5,56(sp)
    3d18:	7352                	flw	ft6,52(sp)
    3d1a:	73c2                	flw	ft7,48(sp)
    3d1c:	7532                	flw	fa0,44(sp)
    3d1e:	75a2                	flw	fa1,40(sp)
    3d20:	7612                	flw	fa2,36(sp)
    3d22:	7682                	flw	fa3,32(sp)
    3d24:	6772                	flw	fa4,28(sp)
    3d26:	67e2                	flw	fa5,24(sp)
    3d28:	6852                	flw	fa6,20(sp)
    3d2a:	68c2                	flw	fa7,16(sp)
    3d2c:	6e32                	flw	ft8,12(sp)
    3d2e:	6ea2                	flw	ft9,8(sp)
    3d30:	6f12                	flw	ft10,4(sp)
    3d32:	6f82                	flw	ft11,0(sp)
    3d34:	6125                	addi	sp,sp,96
    3d36:	30200073          	mret

00003d3a <RTC_IRQHandler>:
    3d3a:	715d                	addi	sp,sp,-80
    3d3c:	4505                	li	a0,1
    3d3e:	e682                	fsw	ft0,76(sp)
    3d40:	e486                	fsw	ft1,72(sp)
    3d42:	e28a                	fsw	ft2,68(sp)
    3d44:	e08e                	fsw	ft3,64(sp)
    3d46:	fe12                	fsw	ft4,60(sp)
    3d48:	fc16                	fsw	ft5,56(sp)
    3d4a:	fa1a                	fsw	ft6,52(sp)
    3d4c:	f81e                	fsw	ft7,48(sp)
    3d4e:	f62a                	fsw	fa0,44(sp)
    3d50:	f42e                	fsw	fa1,40(sp)
    3d52:	f232                	fsw	fa2,36(sp)
    3d54:	f036                	fsw	fa3,32(sp)
    3d56:	ee3a                	fsw	fa4,28(sp)
    3d58:	ec3e                	fsw	fa5,24(sp)
    3d5a:	ea42                	fsw	fa6,20(sp)
    3d5c:	e846                	fsw	fa7,16(sp)
    3d5e:	e672                	fsw	ft8,12(sp)
    3d60:	e476                	fsw	ft9,8(sp)
    3d62:	e27a                	fsw	ft10,4(sp)
    3d64:	e07e                	fsw	ft11,0(sp)
    3d66:	0e7010ef          	jal	ra,564c <RTC_GetITStatus>
    3d6a:	c119                	beqz	a0,3d70 <RTC_IRQHandler+0x36>
    3d6c:	133000ef          	jal	ra,469e <RTC_Get>
    3d70:	4509                	li	a0,2
    3d72:	0db010ef          	jal	ra,564c <RTC_GetITStatus>
    3d76:	c511                	beqz	a0,3d82 <RTC_IRQHandler+0x48>
    3d78:	4509                	li	a0,2
    3d7a:	0f3010ef          	jal	ra,566c <RTC_ClearITPendingBit>
    3d7e:	121000ef          	jal	ra,469e <RTC_Get>
    3d82:	4515                	li	a0,5
    3d84:	0e9010ef          	jal	ra,566c <RTC_ClearITPendingBit>
    3d88:	07d010ef          	jal	ra,5604 <RTC_WaitForLastTask>
    3d8c:	6036                	flw	ft0,76(sp)
    3d8e:	60a6                	flw	ft1,72(sp)
    3d90:	6116                	flw	ft2,68(sp)
    3d92:	6186                	flw	ft3,64(sp)
    3d94:	7272                	flw	ft4,60(sp)
    3d96:	72e2                	flw	ft5,56(sp)
    3d98:	7352                	flw	ft6,52(sp)
    3d9a:	73c2                	flw	ft7,48(sp)
    3d9c:	7532                	flw	fa0,44(sp)
    3d9e:	75a2                	flw	fa1,40(sp)
    3da0:	7612                	flw	fa2,36(sp)
    3da2:	7682                	flw	fa3,32(sp)
    3da4:	6772                	flw	fa4,28(sp)
    3da6:	67e2                	flw	fa5,24(sp)
    3da8:	6852                	flw	fa6,20(sp)
    3daa:	68c2                	flw	fa7,16(sp)
    3dac:	6e32                	flw	ft8,12(sp)
    3dae:	6ea2                	flw	ft9,8(sp)
    3db0:	6f12                	flw	ft10,4(sp)
    3db2:	6f82                	flw	ft11,0(sp)
    3db4:	6161                	addi	sp,sp,80
    3db6:	30200073          	mret

00003dba <LCD_Fill>:
    3dba:	1101                	addi	sp,sp,-32
    3dbc:	c84a                	sw	s2,16(sp)
    3dbe:	c64e                	sw	s3,12(sp)
    3dc0:	8936                	mv	s2,a3
    3dc2:	89b2                	mv	s3,a2
    3dc4:	16fd                	addi	a3,a3,-1
    3dc6:	167d                	addi	a2,a2,-1
    3dc8:	06c2                	slli	a3,a3,0x10
    3dca:	0642                	slli	a2,a2,0x10
    3dcc:	82c1                	srli	a3,a3,0x10
    3dce:	8241                	srli	a2,a2,0x10
    3dd0:	cc22                	sw	s0,24(sp)
    3dd2:	c452                	sw	s4,8(sp)
    3dd4:	c256                	sw	s5,4(sp)
    3dd6:	ce06                	sw	ra,28(sp)
    3dd8:	ca26                	sw	s1,20(sp)
    3dda:	8a2a                	mv	s4,a0
    3ddc:	842e                	mv	s0,a1
    3dde:	8aba                	mv	s5,a4
    3de0:	29e5                	jal	42d8 <LCD_Address_Set>
    3de2:	03246663          	bltu	s0,s2,3e0e <LCD_Fill+0x54>
    3de6:	40f2                	lw	ra,28(sp)
    3de8:	4462                	lw	s0,24(sp)
    3dea:	44d2                	lw	s1,20(sp)
    3dec:	4942                	lw	s2,16(sp)
    3dee:	49b2                	lw	s3,12(sp)
    3df0:	4a22                	lw	s4,8(sp)
    3df2:	4a92                	lw	s5,4(sp)
    3df4:	6105                	addi	sp,sp,32
    3df6:	8082                	ret
    3df8:	0485                	addi	s1,s1,1
    3dfa:	8556                	mv	a0,s5
    3dfc:	04c2                	slli	s1,s1,0x10
    3dfe:	2169                	jal	4288 <LCD_WR_DATA>
    3e00:	80c1                	srli	s1,s1,0x10
    3e02:	ff34ebe3          	bltu	s1,s3,3df8 <LCD_Fill+0x3e>
    3e06:	0405                	addi	s0,s0,1
    3e08:	0442                	slli	s0,s0,0x10
    3e0a:	8041                	srli	s0,s0,0x10
    3e0c:	bfd9                	j	3de2 <LCD_Fill+0x28>
    3e0e:	84d2                	mv	s1,s4
    3e10:	bfcd                	j	3e02 <LCD_Fill+0x48>

00003e12 <LCD_DrawPoint>:
    3e12:	1141                	addi	sp,sp,-16
    3e14:	c422                	sw	s0,8(sp)
    3e16:	86ae                	mv	a3,a1
    3e18:	8432                	mv	s0,a2
    3e1a:	862a                	mv	a2,a0
    3e1c:	c606                	sw	ra,12(sp)
    3e1e:	296d                	jal	42d8 <LCD_Address_Set>
    3e20:	8522                	mv	a0,s0
    3e22:	4422                	lw	s0,8(sp)
    3e24:	40b2                	lw	ra,12(sp)
    3e26:	0141                	addi	sp,sp,16
    3e28:	a185                	j	4288 <LCD_WR_DATA>

00003e2a <LCD_DrawLine>:
    3e2a:	7139                	addi	sp,sp,-64
    3e2c:	da26                	sw	s1,52(sp)
    3e2e:	d84a                	sw	s2,48(sp)
    3e30:	d05a                	sw	s6,32(sp)
    3e32:	ce5e                	sw	s7,28(sp)
    3e34:	ca66                	sw	s9,20(sp)
    3e36:	de06                	sw	ra,60(sp)
    3e38:	dc22                	sw	s0,56(sp)
    3e3a:	d64e                	sw	s3,44(sp)
    3e3c:	d452                	sw	s4,40(sp)
    3e3e:	d256                	sw	s5,36(sp)
    3e40:	cc62                	sw	s8,24(sp)
    3e42:	40a604b3          	sub	s1,a2,a0
    3e46:	8b2a                	mv	s6,a0
    3e48:	8cae                	mv	s9,a1
    3e4a:	40b68933          	sub	s2,a3,a1
    3e4e:	4b85                	li	s7,1
    3e50:	00904763          	bgtz	s1,3e5e <LCD_DrawLine+0x34>
    3e54:	4b81                	li	s7,0
    3e56:	c481                	beqz	s1,3e5e <LCD_DrawLine+0x34>
    3e58:	40c504b3          	sub	s1,a0,a2
    3e5c:	5bfd                	li	s7,-1
    3e5e:	4c05                	li	s8,1
    3e60:	01204863          	bgtz	s2,3e70 <LCD_DrawLine+0x46>
    3e64:	4c01                	li	s8,0
    3e66:	00090563          	beqz	s2,3e70 <LCD_DrawLine+0x46>
    3e6a:	40d58933          	sub	s2,a1,a3
    3e6e:	5c7d                	li	s8,-1
    3e70:	8426                	mv	s0,s1
    3e72:	0124d363          	bge	s1,s2,3e78 <LCD_DrawLine+0x4e>
    3e76:	844a                	mv	s0,s2
    3e78:	4a81                	li	s5,0
    3e7a:	4a01                	li	s4,0
    3e7c:	4981                	li	s3,0
    3e7e:	01345f63          	bge	s0,s3,3e9c <LCD_DrawLine+0x72>
    3e82:	50f2                	lw	ra,60(sp)
    3e84:	5462                	lw	s0,56(sp)
    3e86:	54d2                	lw	s1,52(sp)
    3e88:	5942                	lw	s2,48(sp)
    3e8a:	59b2                	lw	s3,44(sp)
    3e8c:	5a22                	lw	s4,40(sp)
    3e8e:	5a92                	lw	s5,36(sp)
    3e90:	5b02                	lw	s6,32(sp)
    3e92:	4bf2                	lw	s7,28(sp)
    3e94:	4c62                	lw	s8,24(sp)
    3e96:	4cd2                	lw	s9,20(sp)
    3e98:	6121                	addi	sp,sp,64
    3e9a:	8082                	ret
    3e9c:	010c9593          	slli	a1,s9,0x10
    3ea0:	010b1513          	slli	a0,s6,0x10
    3ea4:	863a                	mv	a2,a4
    3ea6:	81c1                	srli	a1,a1,0x10
    3ea8:	8141                	srli	a0,a0,0x10
    3eaa:	c63a                	sw	a4,12(sp)
    3eac:	9a26                	add	s4,s4,s1
    3eae:	f65ff0ef          	jal	ra,3e12 <LCD_DrawPoint>
    3eb2:	9aca                	add	s5,s5,s2
    3eb4:	4732                	lw	a4,12(sp)
    3eb6:	01445563          	bge	s0,s4,3ec0 <LCD_DrawLine+0x96>
    3eba:	408a0a33          	sub	s4,s4,s0
    3ebe:	9b5e                	add	s6,s6,s7
    3ec0:	01545563          	bge	s0,s5,3eca <LCD_DrawLine+0xa0>
    3ec4:	408a8ab3          	sub	s5,s5,s0
    3ec8:	9ce2                	add	s9,s9,s8
    3eca:	0985                	addi	s3,s3,1
    3ecc:	09c2                	slli	s3,s3,0x10
    3ece:	0109d993          	srli	s3,s3,0x10
    3ed2:	b775                	j	3e7e <LCD_DrawLine+0x54>

00003ed4 <Draw_Circle>:
    3ed4:	7139                	addi	sp,sp,-64
    3ed6:	c66e                	sw	s11,12(sp)
    3ed8:	02c60db3          	mul	s11,a2,a2
    3edc:	d84a                	sw	s2,48(sp)
    3ede:	d64e                	sw	s3,44(sp)
    3ee0:	d452                	sw	s4,40(sp)
    3ee2:	d256                	sw	s5,36(sp)
    3ee4:	d05a                	sw	s6,32(sp)
    3ee6:	de06                	sw	ra,60(sp)
    3ee8:	dc22                	sw	s0,56(sp)
    3eea:	da26                	sw	s1,52(sp)
    3eec:	ce5e                	sw	s7,28(sp)
    3eee:	cc62                	sw	s8,24(sp)
    3ef0:	ca66                	sw	s9,20(sp)
    3ef2:	c86a                	sw	s10,16(sp)
    3ef4:	8aaa                	mv	s5,a0
    3ef6:	8b2e                	mv	s6,a1
    3ef8:	89b6                	mv	s3,a3
    3efa:	8932                	mv	s2,a2
    3efc:	4a01                	li	s4,0
    3efe:	010a1413          	slli	s0,s4,0x10
    3f02:	01091493          	slli	s1,s2,0x10
    3f06:	80c1                	srli	s1,s1,0x10
    3f08:	8041                	srli	s0,s0,0x10
    3f0a:	409a8bb3          	sub	s7,s5,s1
    3f0e:	408b0c33          	sub	s8,s6,s0
    3f12:	0bc2                	slli	s7,s7,0x10
    3f14:	0c42                	slli	s8,s8,0x10
    3f16:	010c5c13          	srli	s8,s8,0x10
    3f1a:	010bdb93          	srli	s7,s7,0x10
    3f1e:	85e2                	mv	a1,s8
    3f20:	864e                	mv	a2,s3
    3f22:	855e                	mv	a0,s7
    3f24:	01548d33          	add	s10,s1,s5
    3f28:	eebff0ef          	jal	ra,3e12 <LCD_DrawPoint>
    3f2c:	0d42                	slli	s10,s10,0x10
    3f2e:	85e2                	mv	a1,s8
    3f30:	010d5d13          	srli	s10,s10,0x10
    3f34:	408a8c33          	sub	s8,s5,s0
    3f38:	01648cb3          	add	s9,s1,s6
    3f3c:	864e                	mv	a2,s3
    3f3e:	856a                	mv	a0,s10
    3f40:	0c42                	slli	s8,s8,0x10
    3f42:	0cc2                	slli	s9,s9,0x10
    3f44:	ecfff0ef          	jal	ra,3e12 <LCD_DrawPoint>
    3f48:	010c5c13          	srli	s8,s8,0x10
    3f4c:	010cdc93          	srli	s9,s9,0x10
    3f50:	8562                	mv	a0,s8
    3f52:	864e                	mv	a2,s3
    3f54:	85e6                	mv	a1,s9
    3f56:	409b04b3          	sub	s1,s6,s1
    3f5a:	eb9ff0ef          	jal	ra,3e12 <LCD_DrawPoint>
    3f5e:	04c2                	slli	s1,s1,0x10
    3f60:	8562                	mv	a0,s8
    3f62:	80c1                	srli	s1,s1,0x10
    3f64:	008b0c33          	add	s8,s6,s0
    3f68:	864e                	mv	a2,s3
    3f6a:	85a6                	mv	a1,s1
    3f6c:	0c42                	slli	s8,s8,0x10
    3f6e:	ea5ff0ef          	jal	ra,3e12 <LCD_DrawPoint>
    3f72:	010c5c13          	srli	s8,s8,0x10
    3f76:	9456                	add	s0,s0,s5
    3f78:	864e                	mv	a2,s3
    3f7a:	85e2                	mv	a1,s8
    3f7c:	856a                	mv	a0,s10
    3f7e:	0442                	slli	s0,s0,0x10
    3f80:	e93ff0ef          	jal	ra,3e12 <LCD_DrawPoint>
    3f84:	8041                	srli	s0,s0,0x10
    3f86:	864e                	mv	a2,s3
    3f88:	85a6                	mv	a1,s1
    3f8a:	8522                	mv	a0,s0
    3f8c:	e87ff0ef          	jal	ra,3e12 <LCD_DrawPoint>
    3f90:	864e                	mv	a2,s3
    3f92:	85e6                	mv	a1,s9
    3f94:	8522                	mv	a0,s0
    3f96:	e7dff0ef          	jal	ra,3e12 <LCD_DrawPoint>
    3f9a:	864e                	mv	a2,s3
    3f9c:	85e2                	mv	a1,s8
    3f9e:	855e                	mv	a0,s7
    3fa0:	e73ff0ef          	jal	ra,3e12 <LCD_DrawPoint>
    3fa4:	0a05                	addi	s4,s4,1
    3fa6:	034a07b3          	mul	a5,s4,s4
    3faa:	03290733          	mul	a4,s2,s2
    3fae:	97ba                	add	a5,a5,a4
    3fb0:	00fdd363          	bge	s11,a5,3fb6 <Draw_Circle+0xe2>
    3fb4:	197d                	addi	s2,s2,-1
    3fb6:	f54954e3          	bge	s2,s4,3efe <Draw_Circle+0x2a>
    3fba:	50f2                	lw	ra,60(sp)
    3fbc:	5462                	lw	s0,56(sp)
    3fbe:	54d2                	lw	s1,52(sp)
    3fc0:	5942                	lw	s2,48(sp)
    3fc2:	59b2                	lw	s3,44(sp)
    3fc4:	5a22                	lw	s4,40(sp)
    3fc6:	5a92                	lw	s5,36(sp)
    3fc8:	5b02                	lw	s6,32(sp)
    3fca:	4bf2                	lw	s7,28(sp)
    3fcc:	4c62                	lw	s8,24(sp)
    3fce:	4cd2                	lw	s9,20(sp)
    3fd0:	4d42                	lw	s10,16(sp)
    3fd2:	4db2                	lw	s11,12(sp)
    3fd4:	6121                	addi	sp,sp,64
    3fd6:	8082                	ret

00003fd8 <LCD_ShowChar>:
    3fd8:	7159                	addi	sp,sp,-112
    3fda:	d0ca                	sw	s2,96(sp)
    3fdc:	0017d913          	srli	s2,a5,0x1
    3fe0:	d23a                	sw	a4,36(sp)
    3fe2:	00797713          	andi	a4,s2,7
    3fe6:	d4a2                	sw	s0,104(sp)
    3fe8:	c636                	sw	a3,12(sp)
    3fea:	8432                	mv	s0,a2
    3fec:	01079693          	slli	a3,a5,0x10
    3ff0:	0047d613          	srli	a2,a5,0x4
    3ff4:	00e03733          	snez	a4,a4
    3ff8:	9732                	add	a4,a4,a2
    3ffa:	82c1                	srli	a3,a3,0x10
    3ffc:	c8da                	sw	s6,80(sp)
    3ffe:	8b3e                	mv	s6,a5
    4000:	02e687b3          	mul	a5,a3,a4
    4004:	fff50613          	addi	a2,a0,-1
    4008:	fff58713          	addi	a4,a1,-1
    400c:	96ba                	add	a3,a3,a4
    400e:	964a                	add	a2,a2,s2
    4010:	06c2                	slli	a3,a3,0x10
    4012:	0642                	slli	a2,a2,0x10
    4014:	8241                	srli	a2,a2,0x10
    4016:	82c1                	srli	a3,a3,0x10
    4018:	d2a6                	sw	s1,100(sp)
    401a:	cece                	sw	s3,92(sp)
    401c:	c6de                	sw	s7,76(sp)
    401e:	c4e2                	sw	s8,72(sp)
    4020:	c2e6                	sw	s9,68(sp)
    4022:	c0ea                	sw	s10,64(sp)
    4024:	de6e                	sw	s11,60(sp)
    4026:	89aa                	mv	s3,a0
    4028:	ca3e                	sw	a5,20(sp)
    402a:	d686                	sw	ra,108(sp)
    402c:	ccd2                	sw	s4,88(sp)
    402e:	cad6                	sw	s5,84(sp)
    4030:	84ae                	mv	s1,a1
    4032:	d442                	sw	a6,40(sp)
    4034:	2455                	jal	42d8 <LCD_Address_Set>
    4036:	fe040613          	addi	a2,s0,-32
    403a:	0ff67613          	andi	a2,a2,255
    403e:	00661793          	slli	a5,a2,0x6
    4042:	03000713          	li	a4,48
    4046:	d03e                	sw	a5,32(sp)
    4048:	02e607b3          	mul	a5,a2,a4
    404c:	4731                	li	a4,12
    404e:	6bad                	lui	s7,0xb
    4050:	6c2d                	lui	s8,0xb
    4052:	6ca9                	lui	s9,0xa
    4054:	8d4e                	mv	s10,s3
    4056:	4d81                	li	s11,0
    4058:	4401                	li	s0,0
    405a:	f3cb8b93          	addi	s7,s7,-196 # af3c <ascii_2412>
    405e:	94cc0c13          	addi	s8,s8,-1716 # a94c <ascii_1608>
    4062:	ce3e                	sw	a5,28(sp)
    4064:	00461793          	slli	a5,a2,0x4
    4068:	cc3e                	sw	a5,24(sp)
    406a:	02e607b3          	mul	a5,a2,a4
    406e:	4d8c8c93          	addi	s9,s9,1240 # a4d8 <ascii_1206>
    4072:	c83e                	sw	a5,16(sp)
    4074:	67b1                	lui	a5,0xc
    4076:	10c78793          	addi	a5,a5,268 # c10c <ascii_3216>
    407a:	d63e                	sw	a5,44(sp)
    407c:	47d2                	lw	a5,20(sp)
    407e:	010d9613          	slli	a2,s11,0x10
    4082:	8241                	srli	a2,a2,0x10
    4084:	02f66163          	bltu	a2,a5,40a6 <LCD_ShowChar+0xce>
    4088:	50b6                	lw	ra,108(sp)
    408a:	5426                	lw	s0,104(sp)
    408c:	5496                	lw	s1,100(sp)
    408e:	5906                	lw	s2,96(sp)
    4090:	49f6                	lw	s3,92(sp)
    4092:	4a66                	lw	s4,88(sp)
    4094:	4ad6                	lw	s5,84(sp)
    4096:	4b46                	lw	s6,80(sp)
    4098:	4bb6                	lw	s7,76(sp)
    409a:	4c26                	lw	s8,72(sp)
    409c:	4c96                	lw	s9,68(sp)
    409e:	4d06                	lw	s10,64(sp)
    40a0:	5df2                	lw	s11,60(sp)
    40a2:	6165                	addi	sp,sp,112
    40a4:	8082                	ret
    40a6:	4631                	li	a2,12
    40a8:	02cb1963          	bne	s6,a2,40da <LCD_ShowChar+0x102>
    40ac:	47c2                	lw	a5,16(sp)
    40ae:	01b78633          	add	a2,a5,s11
    40b2:	9666                	add	a2,a2,s9
    40b4:	00064a83          	lbu	s5,0(a2)
    40b8:	4a01                	li	s4,0
    40ba:	57a2                	lw	a5,40(sp)
    40bc:	414ad633          	sra	a2,s5,s4
    40c0:	8a05                	andi	a2,a2,1
    40c2:	eba1                	bnez	a5,4112 <LCD_ShowChar+0x13a>
    40c4:	c629                	beqz	a2,410e <LCD_ShowChar+0x136>
    40c6:	4532                	lw	a0,12(sp)
    40c8:	0405                	addi	s0,s0,1
    40ca:	2a7d                	jal	4288 <LCD_WR_DATA>
    40cc:	0ff47413          	andi	s0,s0,255
    40d0:	03247633          	remu	a2,s0,s2
    40d4:	e62d                	bnez	a2,413e <LCD_ShowChar+0x166>
    40d6:	4401                	li	s0,0
    40d8:	a08d                	j	413a <LCD_ShowChar+0x162>
    40da:	4641                	li	a2,16
    40dc:	00cb1763          	bne	s6,a2,40ea <LCD_ShowChar+0x112>
    40e0:	47e2                	lw	a5,24(sp)
    40e2:	00fd8633          	add	a2,s11,a5
    40e6:	9662                	add	a2,a2,s8
    40e8:	b7f1                	j	40b4 <LCD_ShowChar+0xdc>
    40ea:	4661                	li	a2,24
    40ec:	00cb1763          	bne	s6,a2,40fa <LCD_ShowChar+0x122>
    40f0:	47f2                	lw	a5,28(sp)
    40f2:	00fd8633          	add	a2,s11,a5
    40f6:	965e                	add	a2,a2,s7
    40f8:	bf75                	j	40b4 <LCD_ShowChar+0xdc>
    40fa:	02000613          	li	a2,32
    40fe:	f8cb15e3          	bne	s6,a2,4088 <LCD_ShowChar+0xb0>
    4102:	5782                	lw	a5,32(sp)
    4104:	00fd8633          	add	a2,s11,a5
    4108:	57b2                	lw	a5,44(sp)
    410a:	963e                	add	a2,a2,a5
    410c:	b765                	j	40b4 <LCD_ShowChar+0xdc>
    410e:	5512                	lw	a0,36(sp)
    4110:	bf65                	j	40c8 <LCD_ShowChar+0xf0>
    4112:	c611                	beqz	a2,411e <LCD_ShowChar+0x146>
    4114:	4632                	lw	a2,12(sp)
    4116:	85a6                	mv	a1,s1
    4118:	856a                	mv	a0,s10
    411a:	cf9ff0ef          	jal	ra,3e12 <LCD_DrawPoint>
    411e:	001d0693          	addi	a3,s10,1
    4122:	01069d13          	slli	s10,a3,0x10
    4126:	010d5d13          	srli	s10,s10,0x10
    412a:	413d0633          	sub	a2,s10,s3
    412e:	01261863          	bne	a2,s2,413e <LCD_ShowChar+0x166>
    4132:	0485                	addi	s1,s1,1
    4134:	04c2                	slli	s1,s1,0x10
    4136:	80c1                	srli	s1,s1,0x10
    4138:	8d4e                	mv	s10,s3
    413a:	0d85                	addi	s11,s11,1
    413c:	b781                	j	407c <LCD_ShowChar+0xa4>
    413e:	0a05                	addi	s4,s4,1
    4140:	47a1                	li	a5,8
    4142:	f6fa1ce3          	bne	s4,a5,40ba <LCD_ShowChar+0xe2>
    4146:	bfd5                	j	413a <LCD_ShowChar+0x162>

00004148 <LCD_ShowString>:
    4148:	7179                	addi	sp,sp,-48
    414a:	d422                	sw	s0,40(sp)
    414c:	d226                	sw	s1,36(sp)
    414e:	d04a                	sw	s2,32(sp)
    4150:	ce4e                	sw	s3,28(sp)
    4152:	cc52                	sw	s4,24(sp)
    4154:	ca56                	sw	s5,20(sp)
    4156:	c85a                	sw	s6,16(sp)
    4158:	c65e                	sw	s7,12(sp)
    415a:	d606                	sw	ra,44(sp)
    415c:	842a                	mv	s0,a0
    415e:	8a2e                	mv	s4,a1
    4160:	84b2                	mv	s1,a2
    4162:	8ab6                	mv	s5,a3
    4164:	8b3a                	mv	s6,a4
    4166:	8bc2                	mv	s7,a6
    4168:	893e                	mv	s2,a5
    416a:	0017d993          	srli	s3,a5,0x1
    416e:	0004c603          	lbu	a2,0(s1)
    4172:	ee01                	bnez	a2,418a <LCD_ShowString+0x42>
    4174:	50b2                	lw	ra,44(sp)
    4176:	5422                	lw	s0,40(sp)
    4178:	5492                	lw	s1,36(sp)
    417a:	5902                	lw	s2,32(sp)
    417c:	49f2                	lw	s3,28(sp)
    417e:	4a62                	lw	s4,24(sp)
    4180:	4ad2                	lw	s5,20(sp)
    4182:	4b42                	lw	s6,16(sp)
    4184:	4bb2                	lw	s7,12(sp)
    4186:	6145                	addi	sp,sp,48
    4188:	8082                	ret
    418a:	8522                	mv	a0,s0
    418c:	944e                	add	s0,s0,s3
    418e:	885e                	mv	a6,s7
    4190:	87ca                	mv	a5,s2
    4192:	875a                	mv	a4,s6
    4194:	86d6                	mv	a3,s5
    4196:	85d2                	mv	a1,s4
    4198:	0442                	slli	s0,s0,0x10
    419a:	e3fff0ef          	jal	ra,3fd8 <LCD_ShowChar>
    419e:	8041                	srli	s0,s0,0x10
    41a0:	0485                	addi	s1,s1,1
    41a2:	b7f1                	j	416e <LCD_ShowString+0x26>

000041a4 <LCD_GPIO_Init>:
    41a4:	1101                	addi	sp,sp,-32
    41a6:	4585                	li	a1,1
    41a8:	06000513          	li	a0,96
    41ac:	ce06                	sw	ra,28(sp)
    41ae:	cc22                	sw	s0,24(sp)
    41b0:	ca26                	sw	s1,20(sp)
    41b2:	c84a                	sw	s2,16(sp)
    41b4:	c202                	sw	zero,4(sp)
    41b6:	40012937          	lui	s2,0x40012
    41ba:	c402                	sw	zero,8(sp)
    41bc:	c602                	sw	zero,12(sp)
    41be:	2ee010ef          	jal	ra,54ac <RCC_APB2PeriphClockCmd>
    41c2:	478d                	li	a5,3
    41c4:	44c1                	li	s1,16
    41c6:	440d                	li	s0,3
    41c8:	004c                	addi	a1,sp,4
    41ca:	80090513          	addi	a0,s2,-2048 # 40011800 <_eusrstack+0x20001800>
    41ce:	00f11223          	sh	a5,4(sp)
    41d2:	c626                	sw	s1,12(sp)
    41d4:	c422                	sw	s0,8(sp)
    41d6:	7bb000ef          	jal	ra,5190 <GPIO_Init>
    41da:	4605                	li	a2,1
    41dc:	80090513          	addi	a0,s2,-2048
    41e0:	458d                	li	a1,3
    41e2:	074010ef          	jal	ra,5256 <GPIO_WriteBit>
    41e6:	c422                	sw	s0,8(sp)
    41e8:	40011437          	lui	s0,0x40011
    41ec:	47ad                	li	a5,11
    41ee:	004c                	addi	a1,sp,4
    41f0:	40040513          	addi	a0,s0,1024 # 40011400 <_eusrstack+0x20001400>
    41f4:	00f11223          	sh	a5,4(sp)
    41f8:	c626                	sw	s1,12(sp)
    41fa:	797000ef          	jal	ra,5190 <GPIO_Init>
    41fe:	40040513          	addi	a0,s0,1024
    4202:	4601                	li	a2,0
    4204:	4585                	li	a1,1
    4206:	050010ef          	jal	ra,5256 <GPIO_WriteBit>
    420a:	40040513          	addi	a0,s0,1024
    420e:	4605                	li	a2,1
    4210:	45a9                	li	a1,10
    4212:	044010ef          	jal	ra,5256 <GPIO_WriteBit>
    4216:	40f2                	lw	ra,28(sp)
    4218:	4462                	lw	s0,24(sp)
    421a:	44d2                	lw	s1,20(sp)
    421c:	4942                	lw	s2,16(sp)
    421e:	6105                	addi	sp,sp,32
    4220:	8082                	ret

00004222 <LCD_Writ_Bus>:
    4222:	1101                	addi	sp,sp,-32
    4224:	c84a                	sw	s2,16(sp)
    4226:	c64e                	sw	s3,12(sp)
    4228:	40012937          	lui	s2,0x40012
    422c:	400119b7          	lui	s3,0x40011
    4230:	cc22                	sw	s0,24(sp)
    4232:	ca26                	sw	s1,20(sp)
    4234:	ce06                	sw	ra,28(sp)
    4236:	84aa                	mv	s1,a0
    4238:	4421                	li	s0,8
    423a:	80090913          	addi	s2,s2,-2048 # 40011800 <_eusrstack+0x20001800>
    423e:	40098993          	addi	s3,s3,1024 # 40011400 <_eusrstack+0x20001400>
    4242:	4601                	li	a2,0
    4244:	4589                	li	a1,2
    4246:	854a                	mv	a0,s2
    4248:	00e010ef          	jal	ra,5256 <GPIO_WriteBit>
    424c:	01849793          	slli	a5,s1,0x18
    4250:	87e1                	srai	a5,a5,0x18
    4252:	4605                	li	a2,1
    4254:	0007c363          	bltz	a5,425a <LCD_Writ_Bus+0x38>
    4258:	4601                	li	a2,0
    425a:	4589                	li	a1,2
    425c:	854e                	mv	a0,s3
    425e:	7f9000ef          	jal	ra,5256 <GPIO_WriteBit>
    4262:	147d                	addi	s0,s0,-1
    4264:	4605                	li	a2,1
    4266:	4589                	li	a1,2
    4268:	854a                	mv	a0,s2
    426a:	0486                	slli	s1,s1,0x1
    426c:	0ff47413          	andi	s0,s0,255
    4270:	7e7000ef          	jal	ra,5256 <GPIO_WriteBit>
    4274:	0ff4f493          	andi	s1,s1,255
    4278:	f469                	bnez	s0,4242 <LCD_Writ_Bus+0x20>
    427a:	40f2                	lw	ra,28(sp)
    427c:	4462                	lw	s0,24(sp)
    427e:	44d2                	lw	s1,20(sp)
    4280:	4942                	lw	s2,16(sp)
    4282:	49b2                	lw	s3,12(sp)
    4284:	6105                	addi	sp,sp,32
    4286:	8082                	ret

00004288 <LCD_WR_DATA>:
    4288:	1141                	addi	sp,sp,-16
    428a:	c422                	sw	s0,8(sp)
    428c:	842a                	mv	s0,a0
    428e:	8121                	srli	a0,a0,0x8
    4290:	c606                	sw	ra,12(sp)
    4292:	f91ff0ef          	jal	ra,4222 <LCD_Writ_Bus>
    4296:	0ff47513          	andi	a0,s0,255
    429a:	4422                	lw	s0,8(sp)
    429c:	40b2                	lw	ra,12(sp)
    429e:	0141                	addi	sp,sp,16
    42a0:	f83ff06f          	j	4222 <LCD_Writ_Bus>

000042a4 <LCD_WR_REG>:
    42a4:	1141                	addi	sp,sp,-16
    42a6:	c422                	sw	s0,8(sp)
    42a8:	40012437          	lui	s0,0x40012
    42ac:	c226                	sw	s1,4(sp)
    42ae:	4601                	li	a2,0
    42b0:	84aa                	mv	s1,a0
    42b2:	4585                	li	a1,1
    42b4:	80040513          	addi	a0,s0,-2048 # 40011800 <_eusrstack+0x20001800>
    42b8:	c606                	sw	ra,12(sp)
    42ba:	79d000ef          	jal	ra,5256 <GPIO_WriteBit>
    42be:	8526                	mv	a0,s1
    42c0:	f63ff0ef          	jal	ra,4222 <LCD_Writ_Bus>
    42c4:	80040513          	addi	a0,s0,-2048
    42c8:	4422                	lw	s0,8(sp)
    42ca:	40b2                	lw	ra,12(sp)
    42cc:	4492                	lw	s1,4(sp)
    42ce:	4605                	li	a2,1
    42d0:	4585                	li	a1,1
    42d2:	0141                	addi	sp,sp,16
    42d4:	7830006f          	j	5256 <GPIO_WriteBit>

000042d8 <LCD_Address_Set>:
    42d8:	1101                	addi	sp,sp,-32
    42da:	cc22                	sw	s0,24(sp)
    42dc:	842a                	mv	s0,a0
    42de:	02a00513          	li	a0,42
    42e2:	ce06                	sw	ra,28(sp)
    42e4:	c236                	sw	a3,4(sp)
    42e6:	c62e                	sw	a1,12(sp)
    42e8:	c432                	sw	a2,8(sp)
    42ea:	fbbff0ef          	jal	ra,42a4 <LCD_WR_REG>
    42ee:	8522                	mv	a0,s0
    42f0:	f99ff0ef          	jal	ra,4288 <LCD_WR_DATA>
    42f4:	4622                	lw	a2,8(sp)
    42f6:	8532                	mv	a0,a2
    42f8:	f91ff0ef          	jal	ra,4288 <LCD_WR_DATA>
    42fc:	02b00513          	li	a0,43
    4300:	fa5ff0ef          	jal	ra,42a4 <LCD_WR_REG>
    4304:	45b2                	lw	a1,12(sp)
    4306:	852e                	mv	a0,a1
    4308:	f81ff0ef          	jal	ra,4288 <LCD_WR_DATA>
    430c:	4692                	lw	a3,4(sp)
    430e:	8536                	mv	a0,a3
    4310:	f79ff0ef          	jal	ra,4288 <LCD_WR_DATA>
    4314:	4462                	lw	s0,24(sp)
    4316:	40f2                	lw	ra,28(sp)
    4318:	02c00513          	li	a0,44
    431c:	6105                	addi	sp,sp,32
    431e:	f87ff06f          	j	42a4 <LCD_WR_REG>

00004322 <LCD_Init>:
    4322:	1141                	addi	sp,sp,-16
    4324:	c606                	sw	ra,12(sp)
    4326:	c422                	sw	s0,8(sp)
    4328:	e7dff0ef          	jal	ra,41a4 <LCD_GPIO_Init>
    432c:	40011437          	lui	s0,0x40011
    4330:	4601                	li	a2,0
    4332:	45a1                	li	a1,8
    4334:	40040513          	addi	a0,s0,1024 # 40011400 <_eusrstack+0x20001400>
    4338:	71f000ef          	jal	ra,5256 <GPIO_WriteBit>
    433c:	06400513          	li	a0,100
    4340:	55e010ef          	jal	ra,589e <Delay_Ms>
    4344:	4605                	li	a2,1
    4346:	45a1                	li	a1,8
    4348:	40040513          	addi	a0,s0,1024
    434c:	70b000ef          	jal	ra,5256 <GPIO_WriteBit>
    4350:	06400513          	li	a0,100
    4354:	54a010ef          	jal	ra,589e <Delay_Ms>
    4358:	4601                	li	a2,0
    435a:	4585                	li	a1,1
    435c:	40040513          	addi	a0,s0,1024
    4360:	6f7000ef          	jal	ra,5256 <GPIO_WriteBit>
    4364:	06400513          	li	a0,100
    4368:	536010ef          	jal	ra,589e <Delay_Ms>
    436c:	4545                	li	a0,17
    436e:	f37ff0ef          	jal	ra,42a4 <LCD_WR_REG>
    4372:	07800513          	li	a0,120
    4376:	528010ef          	jal	ra,589e <Delay_Ms>
    437a:	03600513          	li	a0,54
    437e:	f27ff0ef          	jal	ra,42a4 <LCD_WR_REG>
    4382:	4501                	li	a0,0
    4384:	e9fff0ef          	jal	ra,4222 <LCD_Writ_Bus>
    4388:	03a00513          	li	a0,58
    438c:	f19ff0ef          	jal	ra,42a4 <LCD_WR_REG>
    4390:	4515                	li	a0,5
    4392:	e91ff0ef          	jal	ra,4222 <LCD_Writ_Bus>
    4396:	0b200513          	li	a0,178
    439a:	f0bff0ef          	jal	ra,42a4 <LCD_WR_REG>
    439e:	4531                	li	a0,12
    43a0:	e83ff0ef          	jal	ra,4222 <LCD_Writ_Bus>
    43a4:	4531                	li	a0,12
    43a6:	e7dff0ef          	jal	ra,4222 <LCD_Writ_Bus>
    43aa:	4501                	li	a0,0
    43ac:	e77ff0ef          	jal	ra,4222 <LCD_Writ_Bus>
    43b0:	03300513          	li	a0,51
    43b4:	e6fff0ef          	jal	ra,4222 <LCD_Writ_Bus>
    43b8:	03300513          	li	a0,51
    43bc:	e67ff0ef          	jal	ra,4222 <LCD_Writ_Bus>
    43c0:	0b700513          	li	a0,183
    43c4:	ee1ff0ef          	jal	ra,42a4 <LCD_WR_REG>
    43c8:	03500513          	li	a0,53
    43cc:	e57ff0ef          	jal	ra,4222 <LCD_Writ_Bus>
    43d0:	0bb00513          	li	a0,187
    43d4:	ed1ff0ef          	jal	ra,42a4 <LCD_WR_REG>
    43d8:	03200513          	li	a0,50
    43dc:	e47ff0ef          	jal	ra,4222 <LCD_Writ_Bus>
    43e0:	0c200513          	li	a0,194
    43e4:	ec1ff0ef          	jal	ra,42a4 <LCD_WR_REG>
    43e8:	4505                	li	a0,1
    43ea:	e39ff0ef          	jal	ra,4222 <LCD_Writ_Bus>
    43ee:	0c300513          	li	a0,195
    43f2:	eb3ff0ef          	jal	ra,42a4 <LCD_WR_REG>
    43f6:	4555                	li	a0,21
    43f8:	e2bff0ef          	jal	ra,4222 <LCD_Writ_Bus>
    43fc:	0c400513          	li	a0,196
    4400:	ea5ff0ef          	jal	ra,42a4 <LCD_WR_REG>
    4404:	02000513          	li	a0,32
    4408:	e1bff0ef          	jal	ra,4222 <LCD_Writ_Bus>
    440c:	0c600513          	li	a0,198
    4410:	e95ff0ef          	jal	ra,42a4 <LCD_WR_REG>
    4414:	453d                	li	a0,15
    4416:	e0dff0ef          	jal	ra,4222 <LCD_Writ_Bus>
    441a:	0d000513          	li	a0,208
    441e:	e87ff0ef          	jal	ra,42a4 <LCD_WR_REG>
    4422:	0a400513          	li	a0,164
    4426:	dfdff0ef          	jal	ra,4222 <LCD_Writ_Bus>
    442a:	0a100513          	li	a0,161
    442e:	df5ff0ef          	jal	ra,4222 <LCD_Writ_Bus>
    4432:	0e000513          	li	a0,224
    4436:	e6fff0ef          	jal	ra,42a4 <LCD_WR_REG>
    443a:	0d000513          	li	a0,208
    443e:	de5ff0ef          	jal	ra,4222 <LCD_Writ_Bus>
    4442:	4521                	li	a0,8
    4444:	ddfff0ef          	jal	ra,4222 <LCD_Writ_Bus>
    4448:	4539                	li	a0,14
    444a:	dd9ff0ef          	jal	ra,4222 <LCD_Writ_Bus>
    444e:	4525                	li	a0,9
    4450:	dd3ff0ef          	jal	ra,4222 <LCD_Writ_Bus>
    4454:	4525                	li	a0,9
    4456:	dcdff0ef          	jal	ra,4222 <LCD_Writ_Bus>
    445a:	4515                	li	a0,5
    445c:	dc7ff0ef          	jal	ra,4222 <LCD_Writ_Bus>
    4460:	03100513          	li	a0,49
    4464:	dbfff0ef          	jal	ra,4222 <LCD_Writ_Bus>
    4468:	03300513          	li	a0,51
    446c:	db7ff0ef          	jal	ra,4222 <LCD_Writ_Bus>
    4470:	04800513          	li	a0,72
    4474:	dafff0ef          	jal	ra,4222 <LCD_Writ_Bus>
    4478:	455d                	li	a0,23
    447a:	da9ff0ef          	jal	ra,4222 <LCD_Writ_Bus>
    447e:	4551                	li	a0,20
    4480:	da3ff0ef          	jal	ra,4222 <LCD_Writ_Bus>
    4484:	4555                	li	a0,21
    4486:	d9dff0ef          	jal	ra,4222 <LCD_Writ_Bus>
    448a:	03100513          	li	a0,49
    448e:	d95ff0ef          	jal	ra,4222 <LCD_Writ_Bus>
    4492:	03400513          	li	a0,52
    4496:	d8dff0ef          	jal	ra,4222 <LCD_Writ_Bus>
    449a:	0e100513          	li	a0,225
    449e:	e07ff0ef          	jal	ra,42a4 <LCD_WR_REG>
    44a2:	0d000513          	li	a0,208
    44a6:	d7dff0ef          	jal	ra,4222 <LCD_Writ_Bus>
    44aa:	4521                	li	a0,8
    44ac:	d77ff0ef          	jal	ra,4222 <LCD_Writ_Bus>
    44b0:	4539                	li	a0,14
    44b2:	d71ff0ef          	jal	ra,4222 <LCD_Writ_Bus>
    44b6:	4525                	li	a0,9
    44b8:	d6bff0ef          	jal	ra,4222 <LCD_Writ_Bus>
    44bc:	4525                	li	a0,9
    44be:	d65ff0ef          	jal	ra,4222 <LCD_Writ_Bus>
    44c2:	4555                	li	a0,21
    44c4:	d5fff0ef          	jal	ra,4222 <LCD_Writ_Bus>
    44c8:	03100513          	li	a0,49
    44cc:	d57ff0ef          	jal	ra,4222 <LCD_Writ_Bus>
    44d0:	03300513          	li	a0,51
    44d4:	d4fff0ef          	jal	ra,4222 <LCD_Writ_Bus>
    44d8:	04800513          	li	a0,72
    44dc:	d47ff0ef          	jal	ra,4222 <LCD_Writ_Bus>
    44e0:	455d                	li	a0,23
    44e2:	d41ff0ef          	jal	ra,4222 <LCD_Writ_Bus>
    44e6:	4551                	li	a0,20
    44e8:	d3bff0ef          	jal	ra,4222 <LCD_Writ_Bus>
    44ec:	4555                	li	a0,21
    44ee:	d35ff0ef          	jal	ra,4222 <LCD_Writ_Bus>
    44f2:	03100513          	li	a0,49
    44f6:	d2dff0ef          	jal	ra,4222 <LCD_Writ_Bus>
    44fa:	03400513          	li	a0,52
    44fe:	d25ff0ef          	jal	ra,4222 <LCD_Writ_Bus>
    4502:	02100513          	li	a0,33
    4506:	d9fff0ef          	jal	ra,42a4 <LCD_WR_REG>
    450a:	4422                	lw	s0,8(sp)
    450c:	40b2                	lw	ra,12(sp)
    450e:	02900513          	li	a0,41
    4512:	0141                	addi	sp,sp,16
    4514:	d91ff06f          	j	42a4 <LCD_WR_REG>

00004518 <Is_Leap_Year>:
    4518:	00357793          	andi	a5,a0,3
    451c:	ef99                	bnez	a5,453a <Is_Leap_Year+0x22>
    451e:	06400713          	li	a4,100
    4522:	02e57733          	remu	a4,a0,a4
    4526:	4785                	li	a5,1
    4528:	e719                	bnez	a4,4536 <Is_Leap_Year+0x1e>
    452a:	19000793          	li	a5,400
    452e:	02f57533          	remu	a0,a0,a5
    4532:	00153793          	seqz	a5,a0
    4536:	853e                	mv	a0,a5
    4538:	8082                	ret
    453a:	4781                	li	a5,0
    453c:	bfed                	j	4536 <Is_Leap_Year+0x1e>

0000453e <RTC_Set>:
    453e:	84e50813          	addi	a6,a0,-1970
    4542:	0842                	slli	a6,a6,0x10
    4544:	01085813          	srli	a6,a6,0x10
    4548:	08100893          	li	a7,129
    454c:	1108e063          	bltu	a7,a6,464c <RTC_Set+0x10e>
    4550:	7139                	addi	sp,sp,-64
    4552:	cc62                	sw	s8,24(sp)
    4554:	ca66                	sw	s9,20(sp)
    4556:	01e13c37          	lui	s8,0x1e13
    455a:	01e28cb7          	lui	s9,0x1e28
    455e:	dc22                	sw	s0,56(sp)
    4560:	da26                	sw	s1,52(sp)
    4562:	d84a                	sw	s2,48(sp)
    4564:	d64e                	sw	s3,44(sp)
    4566:	d452                	sw	s4,40(sp)
    4568:	d256                	sw	s5,36(sp)
    456a:	d05a                	sw	s6,32(sp)
    456c:	ce5e                	sw	s7,28(sp)
    456e:	de06                	sw	ra,60(sp)
    4570:	c86a                	sw	s10,16(sp)
    4572:	c66e                	sw	s11,12(sp)
    4574:	8b3e                	mv	s6,a5
    4576:	843a                	mv	s0,a4
    4578:	8ab6                	mv	s5,a3
    457a:	8932                	mv	s2,a2
    457c:	89ae                	mv	s3,a1
    457e:	8baa                	mv	s7,a0
    4580:	4481                	li	s1,0
    4582:	7b200a13          	li	s4,1970
    4586:	380c0c13          	addi	s8,s8,896 # 1e13380 <_data_lma+0x1e055b8>
    458a:	500c8c93          	addi	s9,s9,1280 # 1e28500 <_data_lma+0x1e1a738>
    458e:	094b9363          	bne	s7,s4,4614 <RTC_Set+0xd6>
    4592:	19fd                	addi	s3,s3,-1
    4594:	6cb9                	lui	s9,0xe
    4596:	6c55                	lui	s8,0x15
    4598:	4a01                	li	s4,0
    459a:	0ff9f993          	andi	s3,s3,255
    459e:	9a8c8c93          	addi	s9,s9,-1624 # d9a8 <mon_table>
    45a2:	180c0c13          	addi	s8,s8,384 # 15180 <_data_lma+0x73b8>
    45a6:	4d85                	li	s11,1
    45a8:	010a1d13          	slli	s10,s4,0x10
    45ac:	010d5d13          	srli	s10,s10,0x10
    45b0:	073d6e63          	bltu	s10,s3,462c <RTC_Set+0xee>
    45b4:	03c00713          	li	a4,60
    45b8:	6685                	lui	a3,0x1
    45ba:	02e40433          	mul	s0,s0,a4
    45be:	e1068693          	addi	a3,a3,-496 # e10 <tos_at_init+0x110>
    45c2:	6655                	lui	a2,0x15
    45c4:	18060613          	addi	a2,a2,384 # 15180 <_data_lma+0x73b8>
    45c8:	197d                	addi	s2,s2,-1
    45ca:	4585                	li	a1,1
    45cc:	18000537          	lui	a0,0x18000
    45d0:	02da8ab3          	mul	s5,s5,a3
    45d4:	945a                	add	s0,s0,s6
    45d6:	02c90933          	mul	s2,s2,a2
    45da:	9456                	add	s0,s0,s5
    45dc:	6ef000ef          	jal	ra,54ca <RCC_APB1PeriphClockCmd>
    45e0:	4505                	li	a0,1
    45e2:	53d000ef          	jal	ra,531e <PWR_BackupAccessCmd>
    45e6:	944a                	add	s0,s0,s2
    45e8:	9426                	add	s0,s0,s1
    45ea:	8522                	mv	a0,s0
    45ec:	7c7000ef          	jal	ra,55b2 <RTC_SetCounter>
    45f0:	014010ef          	jal	ra,5604 <RTC_WaitForLastTask>
    45f4:	50f2                	lw	ra,60(sp)
    45f6:	5462                	lw	s0,56(sp)
    45f8:	54d2                	lw	s1,52(sp)
    45fa:	5942                	lw	s2,48(sp)
    45fc:	59b2                	lw	s3,44(sp)
    45fe:	5a22                	lw	s4,40(sp)
    4600:	5a92                	lw	s5,36(sp)
    4602:	5b02                	lw	s6,32(sp)
    4604:	4bf2                	lw	s7,28(sp)
    4606:	4c62                	lw	s8,24(sp)
    4608:	4cd2                	lw	s9,20(sp)
    460a:	4d42                	lw	s10,16(sp)
    460c:	4db2                	lw	s11,12(sp)
    460e:	4501                	li	a0,0
    4610:	6121                	addi	sp,sp,64
    4612:	8082                	ret
    4614:	8552                	mv	a0,s4
    4616:	f03ff0ef          	jal	ra,4518 <Is_Leap_Year>
    461a:	c519                	beqz	a0,4628 <RTC_Set+0xea>
    461c:	94e6                	add	s1,s1,s9
    461e:	0a05                	addi	s4,s4,1
    4620:	0a42                	slli	s4,s4,0x10
    4622:	010a5a13          	srli	s4,s4,0x10
    4626:	b7a5                	j	458e <RTC_Set+0x50>
    4628:	94e2                	add	s1,s1,s8
    462a:	bfd5                	j	461e <RTC_Set+0xe0>
    462c:	014c87b3          	add	a5,s9,s4
    4630:	0007c783          	lbu	a5,0(a5)
    4634:	855e                	mv	a0,s7
    4636:	038787b3          	mul	a5,a5,s8
    463a:	94be                	add	s1,s1,a5
    463c:	eddff0ef          	jal	ra,4518 <Is_Leap_Year>
    4640:	c501                	beqz	a0,4648 <RTC_Set+0x10a>
    4642:	01bd1363          	bne	s10,s11,4648 <RTC_Set+0x10a>
    4646:	94e2                	add	s1,s1,s8
    4648:	0a05                	addi	s4,s4,1
    464a:	bfb9                	j	45a8 <RTC_Set+0x6a>
    464c:	4505                	li	a0,1
    464e:	8082                	ret

00004650 <RTC_Get_Week>:
    4650:	06400713          	li	a4,100
    4654:	02e577b3          	remu	a5,a0,a4
    4658:	02e55533          	divu	a0,a0,a4
    465c:	474d                	li	a4,19
    465e:	0ff57513          	andi	a0,a0,255
    4662:	00a77463          	bgeu	a4,a0,466a <RTC_Get_Week+0x1a>
    4666:	06478793          	addi	a5,a5,100
    466a:	0027d513          	srli	a0,a5,0x2
    466e:	953e                	add	a0,a0,a5
    4670:	471d                	li	a4,7
    4672:	02e57533          	remu	a0,a0,a4
    4676:	6739                	lui	a4,0xe
    4678:	9b470713          	addi	a4,a4,-1612 # d9b4 <table_week>
    467c:	972e                	add	a4,a4,a1
    467e:	fff74703          	lbu	a4,-1(a4)
    4682:	8b8d                	andi	a5,a5,3
    4684:	963a                	add	a2,a2,a4
    4686:	962a                	add	a2,a2,a0
    4688:	e799                	bnez	a5,4696 <RTC_Get_Week+0x46>
    468a:	4789                	li	a5,2
    468c:	00b7e563          	bltu	a5,a1,4696 <RTC_Get_Week+0x46>
    4690:	167d                	addi	a2,a2,-1
    4692:	0642                	slli	a2,a2,0x10
    4694:	8241                	srli	a2,a2,0x10
    4696:	451d                	li	a0,7
    4698:	02a67533          	remu	a0,a2,a0
    469c:	8082                	ret

0000469e <RTC_Get>:
    469e:	7179                	addi	sp,sp,-48
    46a0:	d422                	sw	s0,40(sp)
    46a2:	6455                	lui	s0,0x15
    46a4:	d226                	sw	s1,36(sp)
    46a6:	d606                	sw	ra,44(sp)
    46a8:	d04a                	sw	s2,32(sp)
    46aa:	ce4e                	sw	s3,28(sp)
    46ac:	cc52                	sw	s4,24(sp)
    46ae:	ca56                	sw	s5,20(sp)
    46b0:	c85a                	sw	s6,16(sp)
    46b2:	c65e                	sw	s7,12(sp)
    46b4:	c462                	sw	s8,8(sp)
    46b6:	18040413          	addi	s0,s0,384 # 15180 <_data_lma+0x73b8>
    46ba:	6c1000ef          	jal	ra,557a <RTC_GetCounter>
    46be:	02855433          	divu	s0,a0,s0
    46c2:	86818793          	addi	a5,gp,-1944 # 200002b8 <daycnt.13964>
    46c6:	0007d703          	lhu	a4,0(a5)
    46ca:	84aa                	mv	s1,a0
    46cc:	06870863          	beq	a4,s0,473c <RTC_Get+0x9e>
    46d0:	00879023          	sh	s0,0(a5)
    46d4:	7b200913          	li	s2,1970
    46d8:	16c00993          	li	s3,364
    46dc:	16d00a13          	li	s4,365
    46e0:	0289f263          	bgeu	s3,s0,4704 <RTC_Get+0x66>
    46e4:	854a                	mv	a0,s2
    46e6:	e33ff0ef          	jal	ra,4518 <Is_Leap_Year>
    46ea:	0905                	addi	s2,s2,1
    46ec:	cd5d                	beqz	a0,47aa <RTC_Get+0x10c>
    46ee:	01440863          	beq	s0,s4,46fe <RTC_Get+0x60>
    46f2:	e9240413          	addi	s0,s0,-366
    46f6:	0942                	slli	s2,s2,0x10
    46f8:	01095913          	srli	s2,s2,0x10
    46fc:	b7d5                	j	46e0 <RTC_Get+0x42>
    46fe:	0942                	slli	s2,s2,0x10
    4700:	01095913          	srli	s2,s2,0x10
    4704:	2000f7b7          	lui	a5,0x2000f
    4708:	e2878713          	addi	a4,a5,-472 # 2000ee28 <calendar>
    470c:	6ab9                	lui	s5,0xe
    470e:	01271223          	sh	s2,4(a4)
    4712:	4981                	li	s3,0
    4714:	e2878913          	addi	s2,a5,-472
    4718:	4b6d                	li	s6,27
    471a:	9a8a8a93          	addi	s5,s5,-1624 # d9a8 <mon_table>
    471e:	4b85                	li	s7,1
    4720:	4c71                	li	s8,28
    4722:	00198a13          	addi	s4,s3,1
    4726:	088b6563          	bltu	s6,s0,47b0 <RTC_Get+0x112>
    472a:	0ffa7a13          	andi	s4,s4,255
    472e:	0405                	addi	s0,s0,1
    4730:	01490323          	sb	s4,6(s2)
    4734:	0ff47413          	andi	s0,s0,255
    4738:	008903a3          	sb	s0,7(s2)
    473c:	67d5                	lui	a5,0x15
    473e:	18078793          	addi	a5,a5,384 # 15180 <_data_lma+0x73b8>
    4742:	02f4f4b3          	remu	s1,s1,a5
    4746:	6785                	lui	a5,0x1
    4748:	e1078793          	addi	a5,a5,-496 # e10 <tos_at_init+0x110>
    474c:	2000f437          	lui	s0,0x2000f
    4750:	02f4d733          	divu	a4,s1,a5
    4754:	02f4f4b3          	remu	s1,s1,a5
    4758:	0ff77713          	andi	a4,a4,255
    475c:	e2e40423          	sb	a4,-472(s0) # 2000ee28 <calendar>
    4760:	03c00713          	li	a4,60
    4764:	e2840413          	addi	s0,s0,-472
    4768:	02e4d7b3          	divu	a5,s1,a4
    476c:	02e4f4b3          	remu	s1,s1,a4
    4770:	0ff7f793          	andi	a5,a5,255
    4774:	00f400a3          	sb	a5,1(s0)
    4778:	00940123          	sb	s1,2(s0)
    477c:	00445503          	lhu	a0,4(s0)
    4780:	00644583          	lbu	a1,6(s0)
    4784:	00744603          	lbu	a2,7(s0)
    4788:	ec9ff0ef          	jal	ra,4650 <RTC_Get_Week>
    478c:	00a40423          	sb	a0,8(s0)
    4790:	50b2                	lw	ra,44(sp)
    4792:	5422                	lw	s0,40(sp)
    4794:	5492                	lw	s1,36(sp)
    4796:	5902                	lw	s2,32(sp)
    4798:	49f2                	lw	s3,28(sp)
    479a:	4a62                	lw	s4,24(sp)
    479c:	4ad2                	lw	s5,20(sp)
    479e:	4b42                	lw	s6,16(sp)
    47a0:	4bb2                	lw	s7,12(sp)
    47a2:	4c22                	lw	s8,8(sp)
    47a4:	4501                	li	a0,0
    47a6:	6145                	addi	sp,sp,48
    47a8:	8082                	ret
    47aa:	e9340413          	addi	s0,s0,-365
    47ae:	b7a1                	j	46f6 <RTC_Get+0x58>
    47b0:	00495503          	lhu	a0,4(s2)
    47b4:	d65ff0ef          	jal	ra,4518 <Is_Leap_Year>
    47b8:	c919                	beqz	a0,47ce <RTC_Get+0x130>
    47ba:	01799a63          	bne	s3,s7,47ce <RTC_Get+0x130>
    47be:	f78406e3          	beq	s0,s8,472a <RTC_Get+0x8c>
    47c2:	140d                	addi	s0,s0,-29
    47c4:	010a1993          	slli	s3,s4,0x10
    47c8:	0109d993          	srli	s3,s3,0x10
    47cc:	bf99                	j	4722 <RTC_Get+0x84>
    47ce:	99d6                	add	s3,s3,s5
    47d0:	0009c783          	lbu	a5,0(s3)
    47d4:	f4f46be3          	bltu	s0,a5,472a <RTC_Get+0x8c>
    47d8:	8c1d                	sub	s0,s0,a5
    47da:	b7ed                	j	47c4 <RTC_Get+0x126>

000047dc <RTC_Init>:
    47dc:	1101                	addi	sp,sp,-32
    47de:	4585                	li	a1,1
    47e0:	18000537          	lui	a0,0x18000
    47e4:	ce06                	sw	ra,28(sp)
    47e6:	cc22                	sw	s0,24(sp)
    47e8:	ca26                	sw	s1,20(sp)
    47ea:	4e1000ef          	jal	ra,54ca <RCC_APB1PeriphClockCmd>
    47ee:	4505                	li	a0,1
    47f0:	32f000ef          	jal	ra,531e <PWR_BackupAccessCmd>
    47f4:	4511                	li	a0,4
    47f6:	17d000ef          	jal	ra,5172 <BKP_ReadBackupRegister>
    47fa:	67a9                	lui	a5,0xa
    47fc:	1a178793          	addi	a5,a5,417 # a1a1 <_sbrk+0x3dd>
    4800:	0af50c63          	beq	a0,a5,48b8 <RTC_Init+0xdc>
    4804:	143000ef          	jal	ra,5146 <BKP_DeInit>
    4808:	4505                	li	a0,1
    480a:	341000ef          	jal	ra,534a <RCC_LSEConfig>
    480e:	4401                	li	s0,0
    4810:	0fa00493          	li	s1,250
    4814:	04100513          	li	a0,65
    4818:	4f1000ef          	jal	ra,5508 <RCC_GetFlagStatus>
    481c:	e105                	bnez	a0,483c <RTC_Init+0x60>
    481e:	00941863          	bne	s0,s1,482e <RTC_Init+0x52>
    4822:	4505                	li	a0,1
    4824:	40f2                	lw	ra,28(sp)
    4826:	4462                	lw	s0,24(sp)
    4828:	44d2                	lw	s1,20(sp)
    482a:	6105                	addi	sp,sp,32
    482c:	8082                	ret
    482e:	0405                	addi	s0,s0,1
    4830:	4551                	li	a0,20
    4832:	0ff47413          	andi	s0,s0,255
    4836:	068010ef          	jal	ra,589e <Delay_Ms>
    483a:	bfe9                	j	4814 <RTC_Init+0x38>
    483c:	0fa00793          	li	a5,250
    4840:	4505                	li	a0,1
    4842:	fef401e3          	beq	s0,a5,4824 <RTC_Init+0x48>
    4846:	10000513          	li	a0,256
    484a:	329000ef          	jal	ra,5372 <RCC_RTCCLKConfig>
    484e:	4505                	li	a0,1
    4850:	32f000ef          	jal	ra,537e <RCC_RTCCLKCmd>
    4854:	5b1000ef          	jal	ra,5604 <RTC_WaitForLastTask>
    4858:	5bd000ef          	jal	ra,5614 <RTC_WaitForSynchro>
    485c:	4585                	li	a1,1
    485e:	4505                	li	a0,1
    4860:	4d7000ef          	jal	ra,5536 <RTC_ITConfig>
    4864:	5a1000ef          	jal	ra,5604 <RTC_WaitForLastTask>
    4868:	4e9000ef          	jal	ra,5550 <RTC_EnterConfigMode>
    486c:	6521                	lui	a0,0x8
    486e:	157d                	addi	a0,a0,-1
    4870:	56b000ef          	jal	ra,55da <RTC_SetPrescaler>
    4874:	591000ef          	jal	ra,5604 <RTC_WaitForLastTask>
    4878:	45a1                	li	a1,8
    487a:	03200793          	li	a5,50
    487e:	03a00713          	li	a4,58
    4882:	46c9                	li	a3,18
    4884:	4619                	li	a2,6
    4886:	7e600513          	li	a0,2022
    488a:	cb5ff0ef          	jal	ra,453e <RTC_Set>
    488e:	4d5000ef          	jal	ra,5562 <RTC_ExitConfigMode>
    4892:	65a9                	lui	a1,0xa
    4894:	1a158593          	addi	a1,a1,417 # a1a1 <_sbrk+0x3dd>
    4898:	4511                	li	a0,4
    489a:	0bd000ef          	jal	ra,5156 <BKP_WriteBackupRegister>
    489e:	c402                	sw	zero,8(sp)
    48a0:	47cd                	li	a5,19
    48a2:	00f10423          	sb	a5,8(sp)
    48a6:	0028                	addi	a0,sp,8
    48a8:	4785                	li	a5,1
    48aa:	c63e                	sw	a5,12(sp)
    48ac:	1bb000ef          	jal	ra,5266 <NVIC_Init>
    48b0:	defff0ef          	jal	ra,469e <RTC_Get>
    48b4:	4501                	li	a0,0
    48b6:	b7bd                	j	4824 <RTC_Init+0x48>
    48b8:	4585                	li	a1,1
    48ba:	18000537          	lui	a0,0x18000
    48be:	40d000ef          	jal	ra,54ca <RCC_APB1PeriphClockCmd>
    48c2:	4501                	li	a0,0
    48c4:	271000ef          	jal	ra,5334 <PWR_WakeUpPinCmd>
    48c8:	54d000ef          	jal	ra,5614 <RTC_WaitForSynchro>
    48cc:	4585                	li	a1,1
    48ce:	4505                	li	a0,1
    48d0:	467000ef          	jal	ra,5536 <RTC_ITConfig>
    48d4:	531000ef          	jal	ra,5604 <RTC_WaitForLastTask>
    48d8:	b7d9                	j	489e <RTC_Init+0xc2>

000048da <DrawClock>:
    48da:	7179                	addi	sp,sp,-48
    48dc:	4701                	li	a4,0
    48de:	0f000693          	li	a3,240
    48e2:	0f000613          	li	a2,240
    48e6:	03000593          	li	a1,48
    48ea:	4501                	li	a0,0
    48ec:	d606                	sw	ra,44(sp)
    48ee:	d422                	sw	s0,40(sp)
    48f0:	d226                	sw	s1,36(sp)
    48f2:	d04a                	sw	s2,32(sp)
    48f4:	ce4e                	sw	s3,28(sp)
    48f6:	cc52                	sw	s4,24(sp)
    48f8:	ca56                	sw	s5,20(sp)
    48fa:	c85a                	sw	s6,16(sp)
    48fc:	c65e                	sw	s7,12(sp)
    48fe:	cbcff0ef          	jal	ra,3dba <LCD_Fill>
    4902:	2000fab7          	lui	s5,0x2000f
    4906:	6689                	lui	a3,0x2
    4908:	b5868693          	addi	a3,a3,-1192 # 1b58 <tos_mutex_post+0x5c>
    490c:	05a00613          	li	a2,90
    4910:	09600593          	li	a1,150
    4914:	e28a8993          	addi	s3,s5,-472 # 2000ee28 <calendar>
    4918:	07800513          	li	a0,120
    491c:	db8ff0ef          	jal	ra,3ed4 <Draw_Circle>
    4920:	0029c483          	lbu	s1,2(s3)
    4924:	4799                	li	a5,6
    4926:	09600913          	li	s2,150
    492a:	02f484b3          	mul	s1,s1,a5
    492e:	0000ea37          	lui	s4,0xe
    4932:	8526                	mv	a0,s1
    4934:	056010ef          	jal	ra,598a <lv_trigo_sin>
    4938:	842a                	mv	s0,a0
    493a:	05a48513          	addi	a0,s1,90
    493e:	04c010ef          	jal	ra,598a <lv_trigo_sin>
    4942:	05a00613          	li	a2,90
    4946:	02c506b3          	mul	a3,a0,a2
    494a:	477d                	li	a4,31
    494c:	09600593          	li	a1,150
    4950:	07800513          	li	a0,120
    4954:	02c40633          	mul	a2,s0,a2
    4958:	86bd                	srai	a3,a3,0xf
    495a:	40d906b3          	sub	a3,s2,a3
    495e:	06c2                	slli	a3,a3,0x10
    4960:	82c1                	srli	a3,a3,0x10
    4962:	863d                	srai	a2,a2,0xf
    4964:	07860613          	addi	a2,a2,120
    4968:	0642                	slli	a2,a2,0x10
    496a:	8241                	srli	a2,a2,0x10
    496c:	cbeff0ef          	jal	ra,3e2a <LCD_DrawLine>
    4970:	0019c503          	lbu	a0,1(s3)
    4974:	03c00993          	li	s3,60
    4978:	0506                	slli	a0,a0,0x1
    497a:	589020ef          	jal	ra,7702 <__floatsidf>
    497e:	8d0a2603          	lw	a2,-1840(s4) # d8d0 <ascii_3216+0x17c4>
    4982:	8d4a2683          	lw	a3,-1836(s4)
    4986:	688020ef          	jal	ra,700e <__muldf3>
    498a:	0000e7b7          	lui	a5,0xe
    498e:	8d87a603          	lw	a2,-1832(a5) # d8d8 <ascii_3216+0x17cc>
    4992:	8dc7a683          	lw	a3,-1828(a5)
    4996:	68f010ef          	jal	ra,6824 <__divdf3>
    499a:	8b2a                	mv	s6,a0
    499c:	0334d533          	divu	a0,s1,s3
    49a0:	8bae                	mv	s7,a1
    49a2:	561020ef          	jal	ra,7702 <__floatsidf>
    49a6:	862a                	mv	a2,a0
    49a8:	86ae                	mv	a3,a1
    49aa:	855a                	mv	a0,s6
    49ac:	85de                	mv	a1,s7
    49ae:	468010ef          	jal	ra,5e16 <__adddf3>
    49b2:	4b3020ef          	jal	ra,7664 <__fixunsdfsi>
    49b6:	01051493          	slli	s1,a0,0x10
    49ba:	80c1                	srli	s1,s1,0x10
    49bc:	01049513          	slli	a0,s1,0x10
    49c0:	8541                	srai	a0,a0,0x10
    49c2:	7c9000ef          	jal	ra,598a <lv_trigo_sin>
    49c6:	842a                	mv	s0,a0
    49c8:	05a48513          	addi	a0,s1,90
    49cc:	0542                	slli	a0,a0,0x10
    49ce:	8541                	srai	a0,a0,0x10
    49d0:	7bb000ef          	jal	ra,598a <lv_trigo_sin>
    49d4:	04800613          	li	a2,72
    49d8:	02c506b3          	mul	a3,a0,a2
    49dc:	09600593          	li	a1,150
    49e0:	07800513          	li	a0,120
    49e4:	02c40633          	mul	a2,s0,a2
    49e8:	86bd                	srai	a3,a3,0xf
    49ea:	40d906b3          	sub	a3,s2,a3
    49ee:	06c2                	slli	a3,a3,0x10
    49f0:	6941                	lui	s2,0x10
    49f2:	fe090713          	addi	a4,s2,-32 # ffe0 <_data_lma+0x2218>
    49f6:	82c1                	srli	a3,a3,0x10
    49f8:	863d                	srai	a2,a2,0xf
    49fa:	07860613          	addi	a2,a2,120
    49fe:	0642                	slli	a2,a2,0x10
    4a00:	8241                	srli	a2,a2,0x10
    4a02:	c28ff0ef          	jal	ra,3e2a <LCD_DrawLine>
    4a06:	e28ac503          	lbu	a0,-472(s5)
    4a0a:	0506                	slli	a0,a0,0x1
    4a0c:	4f7020ef          	jal	ra,7702 <__floatsidf>
    4a10:	8d0a2603          	lw	a2,-1840(s4)
    4a14:	8d4a2683          	lw	a3,-1836(s4)
    4a18:	5f6020ef          	jal	ra,700e <__muldf3>
    4a1c:	0000e7b7          	lui	a5,0xe
    4a20:	8e07a603          	lw	a2,-1824(a5) # d8e0 <ascii_3216+0x17d4>
    4a24:	8e47a683          	lw	a3,-1820(a5)
    4a28:	5fd010ef          	jal	ra,6824 <__divdf3>
    4a2c:	8a2a                	mv	s4,a0
    4a2e:	0334d533          	divu	a0,s1,s3
    4a32:	8aae                	mv	s5,a1
    4a34:	4cf020ef          	jal	ra,7702 <__floatsidf>
    4a38:	862a                	mv	a2,a0
    4a3a:	86ae                	mv	a3,a1
    4a3c:	8552                	mv	a0,s4
    4a3e:	85d6                	mv	a1,s5
    4a40:	3d6010ef          	jal	ra,5e16 <__adddf3>
    4a44:	421020ef          	jal	ra,7664 <__fixunsdfsi>
    4a48:	01051493          	slli	s1,a0,0x10
    4a4c:	80c1                	srli	s1,s1,0x10
    4a4e:	01049513          	slli	a0,s1,0x10
    4a52:	8541                	srai	a0,a0,0x10
    4a54:	737000ef          	jal	ra,598a <lv_trigo_sin>
    4a58:	842a                	mv	s0,a0
    4a5a:	05a48513          	addi	a0,s1,90
    4a5e:	0542                	slli	a0,a0,0x10
    4a60:	8541                	srai	a0,a0,0x10
    4a62:	729000ef          	jal	ra,598a <lv_trigo_sin>
    4a66:	02d00613          	li	a2,45
    4a6a:	02c506b3          	mul	a3,a0,a2
    4a6e:	50b2                	lw	ra,44(sp)
    4a70:	5492                	lw	s1,36(sp)
    4a72:	49f2                	lw	s3,28(sp)
    4a74:	4a62                	lw	s4,24(sp)
    4a76:	4ad2                	lw	s5,20(sp)
    4a78:	4b42                	lw	s6,16(sp)
    4a7a:	4bb2                	lw	s7,12(sp)
    4a7c:	80090713          	addi	a4,s2,-2048
    4a80:	5902                	lw	s2,32(sp)
    4a82:	02c40633          	mul	a2,s0,a2
    4a86:	86bd                	srai	a3,a3,0xf
    4a88:	5422                	lw	s0,40(sp)
    4a8a:	09668693          	addi	a3,a3,150
    4a8e:	06c2                	slli	a3,a3,0x10
    4a90:	82c1                	srli	a3,a3,0x10
    4a92:	09600593          	li	a1,150
    4a96:	07800513          	li	a0,120
    4a9a:	6145                	addi	sp,sp,48
    4a9c:	863d                	srai	a2,a2,0xf
    4a9e:	07860613          	addi	a2,a2,120
    4aa2:	0642                	slli	a2,a2,0x10
    4aa4:	8241                	srli	a2,a2,0x10
    4aa6:	b84ff06f          	j	3e2a <LCD_DrawLine>

00004aaa <clock_entry>:
    4aaa:	7139                	addi	sp,sp,-64
    4aac:	da26                	sw	s1,52(sp)
    4aae:	d84a                	sw	s2,48(sp)
    4ab0:	64c1                	lui	s1,0x10
    4ab2:	2000f937          	lui	s2,0x2000f
    4ab6:	dc22                	sw	s0,56(sp)
    4ab8:	d64e                	sw	s3,44(sp)
    4aba:	d452                	sw	s4,40(sp)
    4abc:	de06                	sw	ra,60(sp)
    4abe:	e2890413          	addi	s0,s2,-472 # 2000ee28 <calendar>
    4ac2:	e19ff0ef          	jal	ra,48da <DrawClock>
    4ac6:	0000ea37          	lui	s4,0xe
    4aca:	14fd                	addi	s1,s1,-1
    4acc:	0000e9b7          	lui	s3,0xe
    4ad0:	4679                	li	a2,30
    4ad2:	4581                	li	a1,0
    4ad4:	850a                	mv	a0,sp
    4ad6:	86bfb0ef          	jal	ra,340 <memset>
    4ada:	00445683          	lhu	a3,4(s0)
    4ade:	00644703          	lbu	a4,6(s0)
    4ae2:	00744783          	lbu	a5,7(s0)
    4ae6:	00844803          	lbu	a6,8(s0)
    4aea:	8e8a0613          	addi	a2,s4,-1816 # d8e8 <ascii_3216+0x17dc>
    4aee:	45f9                	li	a1,30
    4af0:	850a                	mv	a0,sp
    4af2:	32b030ef          	jal	ra,861c <sniprintf>
    4af6:	4801                	li	a6,0
    4af8:	86a6                	mv	a3,s1
    4afa:	47c1                	li	a5,16
    4afc:	4701                	li	a4,0
    4afe:	860a                	mv	a2,sp
    4b00:	4581                	li	a1,0
    4b02:	4501                	li	a0,0
    4b04:	e44ff0ef          	jal	ra,4148 <LCD_ShowString>
    4b08:	4679                	li	a2,30
    4b0a:	4581                	li	a1,0
    4b0c:	850a                	mv	a0,sp
    4b0e:	833fb0ef          	jal	ra,340 <memset>
    4b12:	e2894683          	lbu	a3,-472(s2)
    4b16:	00144703          	lbu	a4,1(s0)
    4b1a:	00244783          	lbu	a5,2(s0)
    4b1e:	90098613          	addi	a2,s3,-1792 # d900 <ascii_3216+0x17f4>
    4b22:	45f9                	li	a1,30
    4b24:	850a                	mv	a0,sp
    4b26:	2f7030ef          	jal	ra,861c <sniprintf>
    4b2a:	4801                	li	a6,0
    4b2c:	47c1                	li	a5,16
    4b2e:	4701                	li	a4,0
    4b30:	86a6                	mv	a3,s1
    4b32:	860a                	mv	a2,sp
    4b34:	02000593          	li	a1,32
    4b38:	4501                	li	a0,0
    4b3a:	e0eff0ef          	jal	ra,4148 <LCD_ShowString>
    4b3e:	3e800513          	li	a0,1000
    4b42:	f8bfd0ef          	jal	ra,2acc <tos_sleep_ms>
    4b46:	b769                	j	4ad0 <clock_entry+0x26>

00004b48 <main>:
    4b48:	1141                	addi	sp,sp,-16
    4b4a:	4509                	li	a0,2
    4b4c:	c606                	sw	ra,12(sp)
    4b4e:	712000ef          	jal	ra,5260 <NVIC_PriorityGroupConfig>
    4b52:	527000ef          	jal	ra,5878 <Delay_Init>
    4b56:	6571                	lui	a0,0x1c
    4b58:	20050513          	addi	a0,a0,512 # 1c200 <_data_lma+0xe438>
    4b5c:	56f000ef          	jal	ra,58ca <USART_Printf_Init>
    4b60:	81c1a583          	lw	a1,-2020(gp) # 2000026c <SystemCoreClock>
    4b64:	0000e537          	lui	a0,0xe
    4b68:	90c50513          	addi	a0,a0,-1780 # d90c <ascii_3216+0x1800>
    4b6c:	127030ef          	jal	ra,8492 <iprintf>
    4b70:	fb2ff0ef          	jal	ra,4322 <LCD_Init>
    4b74:	20c1                	jal	4c34 <SPI_Flash_Init>
    4b76:	0000e5b7          	lui	a1,0xe
    4b7a:	0000e537          	lui	a0,0xe
    4b7e:	91c58593          	addi	a1,a1,-1764 # d91c <ascii_3216+0x1810>
    4b82:	92450513          	addi	a0,a0,-1756 # d924 <ascii_3216+0x1818>
    4b86:	10d030ef          	jal	ra,8492 <iprintf>
    4b8a:	4701                	li	a4,0
    4b8c:	0f000693          	li	a3,240
    4b90:	0f000613          	li	a2,240
    4b94:	4581                	li	a1,0
    4b96:	4501                	li	a0,0
    4b98:	a22ff0ef          	jal	ra,3dba <LCD_Fill>
    4b9c:	4579                	li	a0,30
    4b9e:	5ed000ef          	jal	ra,598a <lv_trigo_sin>
    4ba2:	40f55593          	srai	a1,a0,0xf
    4ba6:	05c2                	slli	a1,a1,0x10
    4ba8:	0000e537          	lui	a0,0xe
    4bac:	85c1                	srai	a1,a1,0x10
    4bae:	94450513          	addi	a0,a0,-1724 # d944 <ascii_3216+0x1838>
    4bb2:	0e1030ef          	jal	ra,8492 <iprintf>
    4bb6:	0000e537          	lui	a0,0xe
    4bba:	95850513          	addi	a0,a0,-1704 # d958 <ascii_3216+0x184c>
    4bbe:	221030ef          	jal	ra,85de <puts>
    4bc2:	c1bff0ef          	jal	ra,47dc <RTC_Init>
    4bc6:	8abfd0ef          	jal	ra,2470 <tos_knl_init>
    4bca:	2000c7b7          	lui	a5,0x2000c
    4bce:	00003637          	lui	a2,0x3
    4bd2:	0000e5b7          	lui	a1,0xe
    4bd6:	2000c537          	lui	a0,0x2000c
    4bda:	4881                	li	a7,0
    4bdc:	6805                	lui	a6,0x1
    4bde:	e2878793          	addi	a5,a5,-472 # 2000be28 <application_task_stk3>
    4be2:	4711                	li	a4,4
    4be4:	4681                	li	a3,0
    4be6:	e8660613          	addi	a2,a2,-378 # 2e86 <application_entry>
    4bea:	96458593          	addi	a1,a1,-1692 # d964 <ascii_3216+0x1858>
    4bee:	da050513          	addi	a0,a0,-608 # 2000bda0 <application_task3>
    4bf2:	97bfd0ef          	jal	ra,256c <tos_task_create>
    4bf6:	2000e7b7          	lui	a5,0x2000e
    4bfa:	00005637          	lui	a2,0x5
    4bfe:	0000e5b7          	lui	a1,0xe
    4c02:	2000f537          	lui	a0,0x2000f
    4c06:	4881                	li	a7,0
    4c08:	6805                	lui	a6,0x1
    4c0a:	e2878793          	addi	a5,a5,-472 # 2000de28 <application_task_stk1>
    4c0e:	4711                	li	a4,4
    4c10:	4681                	li	a3,0
    4c12:	aaa60613          	addi	a2,a2,-1366 # 4aaa <clock_entry>
    4c16:	97858593          	addi	a1,a1,-1672 # d978 <ascii_3216+0x186c>
    4c1a:	e3850513          	addi	a0,a0,-456 # 2000ee38 <application_task1>
    4c1e:	94ffd0ef          	jal	ra,256c <tos_task_create>
    4c22:	f24fd0ef          	jal	ra,2346 <tos_knl_start>
    4c26:	0000e537          	lui	a0,0xe
    4c2a:	98c50513          	addi	a0,a0,-1652 # d98c <ascii_3216+0x1880>
    4c2e:	1b1030ef          	jal	ra,85de <puts>
    4c32:	a001                	j	4c32 <main+0xea>

00004c34 <SPI_Flash_Init>:
    4c34:	7139                	addi	sp,sp,-64
    4c36:	4585                	li	a1,1
    4c38:	4531                	li	a0,12
    4c3a:	de06                	sw	ra,60(sp)
    4c3c:	dc22                	sw	s0,56(sp)
    4c3e:	da26                	sw	s1,52(sp)
    4c40:	d84a                	sw	s2,48(sp)
    4c42:	d64e                	sw	s3,44(sp)
    4c44:	c002                	sw	zero,0(sp)
    4c46:	c202                	sw	zero,4(sp)
    4c48:	c402                	sw	zero,8(sp)
    4c4a:	c602                	sw	zero,12(sp)
    4c4c:	c802                	sw	zero,16(sp)
    4c4e:	ca02                	sw	zero,20(sp)
    4c50:	cc02                	sw	zero,24(sp)
    4c52:	00011e23          	sh	zero,28(sp)
    4c56:	057000ef          	jal	ra,54ac <RCC_APB2PeriphClockCmd>
    4c5a:	4585                	li	a1,1
    4c5c:	6521                	lui	a0,0x8
    4c5e:	06d000ef          	jal	ra,54ca <RCC_APB1PeriphClockCmd>
    4c62:	40011437          	lui	s0,0x40011
    4c66:	77e1                	lui	a5,0xffff8
    4c68:	490d                	li	s2,3
    4c6a:	49c1                	li	s3,16
    4c6c:	858a                	mv	a1,sp
    4c6e:	80040513          	addi	a0,s0,-2048 # 40010800 <_eusrstack+0x20000800>
    4c72:	00f11023          	sh	a5,0(sp)
    4c76:	c44e                	sw	s3,8(sp)
    4c78:	c24a                	sw	s2,4(sp)
    4c7a:	2b19                	jal	5190 <GPIO_Init>
    4c7c:	80040513          	addi	a0,s0,-2048
    4c80:	65a1                	lui	a1,0x8
    4c82:	2bc1                	jal	5252 <GPIO_SetBits>
    4c84:	44e1                	li	s1,24
    4c86:	47a1                	li	a5,8
    4c88:	858a                	mv	a1,sp
    4c8a:	c0040513          	addi	a0,s0,-1024
    4c8e:	00f11023          	sh	a5,0(sp)
    4c92:	c426                	sw	s1,8(sp)
    4c94:	c24a                	sw	s2,4(sp)
    4c96:	29ed                	jal	5190 <GPIO_Init>
    4c98:	4791                	li	a5,4
    4c9a:	858a                	mv	a1,sp
    4c9c:	c0040513          	addi	a0,s0,-1024
    4ca0:	01311023          	sh	s3,0(sp)
    4ca4:	c43e                	sw	a5,8(sp)
    4ca6:	21ed                	jal	5190 <GPIO_Init>
    4ca8:	02000793          	li	a5,32
    4cac:	858a                	mv	a1,sp
    4cae:	c0040513          	addi	a0,s0,-1024
    4cb2:	00f11023          	sh	a5,0(sp)
    4cb6:	c426                	sw	s1,8(sp)
    4cb8:	c24a                	sw	s2,4(sp)
    4cba:	29d9                	jal	5190 <GPIO_Init>
    4cbc:	010407b7          	lui	a5,0x1040
    4cc0:	c63e                	sw	a5,12(sp)
    4cc2:	000207b7          	lui	a5,0x20
    4cc6:	c83e                	sw	a5,16(sp)
    4cc8:	020007b7          	lui	a5,0x2000
    4ccc:	40004437          	lui	s0,0x40004
    4cd0:	0785                	addi	a5,a5,1
    4cd2:	ca3e                	sw	a5,20(sp)
    4cd4:	006c                	addi	a1,sp,12
    4cd6:	479d                	li	a5,7
    4cd8:	c0040513          	addi	a0,s0,-1024 # 40003c00 <_eusrstack+0x1fff3c00>
    4cdc:	cc26                	sw	s1,24(sp)
    4cde:	00f11e23          	sh	a5,28(sp)
    4ce2:	18f000ef          	jal	ra,5670 <SPI_Init>
    4ce6:	c0040513          	addi	a0,s0,-1024
    4cea:	4585                	li	a1,1
    4cec:	1df000ef          	jal	ra,56ca <SPI_Cmd>
    4cf0:	50f2                	lw	ra,60(sp)
    4cf2:	5462                	lw	s0,56(sp)
    4cf4:	54d2                	lw	s1,52(sp)
    4cf6:	5942                	lw	s2,48(sp)
    4cf8:	59b2                	lw	s3,44(sp)
    4cfa:	6121                	addi	sp,sp,64
    4cfc:	8082                	ret

00004cfe <SystemInit>:
    4cfe:	400217b7          	lui	a5,0x40021
    4d02:	4398                	lw	a4,0(a5)
    4d04:	f8ff06b7          	lui	a3,0xf8ff0
    4d08:	1141                	addi	sp,sp,-16
    4d0a:	00176713          	ori	a4,a4,1
    4d0e:	c398                	sw	a4,0(a5)
    4d10:	43d8                	lw	a4,4(a5)
    4d12:	00020637          	lui	a2,0x20
    4d16:	8f75                	and	a4,a4,a3
    4d18:	c3d8                	sw	a4,4(a5)
    4d1a:	4398                	lw	a4,0(a5)
    4d1c:	fef706b7          	lui	a3,0xfef70
    4d20:	16fd                	addi	a3,a3,-1
    4d22:	8f75                	and	a4,a4,a3
    4d24:	c398                	sw	a4,0(a5)
    4d26:	4398                	lw	a4,0(a5)
    4d28:	fffc06b7          	lui	a3,0xfffc0
    4d2c:	16fd                	addi	a3,a3,-1
    4d2e:	8f75                	and	a4,a4,a3
    4d30:	c398                	sw	a4,0(a5)
    4d32:	43d8                	lw	a4,4(a5)
    4d34:	ff8106b7          	lui	a3,0xff810
    4d38:	16fd                	addi	a3,a3,-1
    4d3a:	8f75                	and	a4,a4,a3
    4d3c:	c3d8                	sw	a4,4(a5)
    4d3e:	009f0737          	lui	a4,0x9f0
    4d42:	c798                	sw	a4,8(a5)
    4d44:	c402                	sw	zero,8(sp)
    4d46:	c602                	sw	zero,12(sp)
    4d48:	4398                	lw	a4,0(a5)
    4d4a:	66c1                	lui	a3,0x10
    4d4c:	8f55                	or	a4,a4,a3
    4d4e:	c398                	sw	a4,0(a5)
    4d50:	400216b7          	lui	a3,0x40021
    4d54:	50000713          	li	a4,1280
    4d58:	429c                	lw	a5,0(a3)
    4d5a:	8ff1                	and	a5,a5,a2
    4d5c:	c63e                	sw	a5,12(sp)
    4d5e:	47a2                	lw	a5,8(sp)
    4d60:	0785                	addi	a5,a5,1
    4d62:	c43e                	sw	a5,8(sp)
    4d64:	47b2                	lw	a5,12(sp)
    4d66:	e781                	bnez	a5,4d6e <SystemInit+0x70>
    4d68:	47a2                	lw	a5,8(sp)
    4d6a:	fee797e3          	bne	a5,a4,4d58 <SystemInit+0x5a>
    4d6e:	400217b7          	lui	a5,0x40021
    4d72:	439c                	lw	a5,0(a5)
    4d74:	00e79713          	slli	a4,a5,0xe
    4d78:	08075863          	bgez	a4,4e08 <SystemInit+0x10a>
    4d7c:	4785                	li	a5,1
    4d7e:	c63e                	sw	a5,12(sp)
    4d80:	4732                	lw	a4,12(sp)
    4d82:	4785                	li	a5,1
    4d84:	08f71063          	bne	a4,a5,4e04 <SystemInit+0x106>
    4d88:	400227b7          	lui	a5,0x40022
    4d8c:	4398                	lw	a4,0(a5)
    4d8e:	ffc106b7          	lui	a3,0xffc10
    4d92:	16fd                	addi	a3,a3,-1
    4d94:	01076713          	ori	a4,a4,16
    4d98:	c398                	sw	a4,0(a5)
    4d9a:	4398                	lw	a4,0(a5)
    4d9c:	9b71                	andi	a4,a4,-4
    4d9e:	c398                	sw	a4,0(a5)
    4da0:	4398                	lw	a4,0(a5)
    4da2:	00276713          	ori	a4,a4,2
    4da6:	c398                	sw	a4,0(a5)
    4da8:	400217b7          	lui	a5,0x40021
    4dac:	43d8                	lw	a4,4(a5)
    4dae:	c3d8                	sw	a4,4(a5)
    4db0:	43d8                	lw	a4,4(a5)
    4db2:	c3d8                	sw	a4,4(a5)
    4db4:	43d8                	lw	a4,4(a5)
    4db6:	40076713          	ori	a4,a4,1024
    4dba:	c3d8                	sw	a4,4(a5)
    4dbc:	43d8                	lw	a4,4(a5)
    4dbe:	8f75                	and	a4,a4,a3
    4dc0:	c3d8                	sw	a4,4(a5)
    4dc2:	43d8                	lw	a4,4(a5)
    4dc4:	001d06b7          	lui	a3,0x1d0
    4dc8:	8f55                	or	a4,a4,a3
    4dca:	c3d8                	sw	a4,4(a5)
    4dcc:	40021737          	lui	a4,0x40021
    4dd0:	431c                	lw	a5,0(a4)
    4dd2:	010006b7          	lui	a3,0x1000
    4dd6:	8fd5                	or	a5,a5,a3
    4dd8:	c31c                	sw	a5,0(a4)
    4dda:	400217b7          	lui	a5,0x40021
    4dde:	4398                	lw	a4,0(a5)
    4de0:	00671693          	slli	a3,a4,0x6
    4de4:	fe06dde3          	bgez	a3,4dde <SystemInit+0xe0>
    4de8:	43d8                	lw	a4,4(a5)
    4dea:	400216b7          	lui	a3,0x40021
    4dee:	9b71                	andi	a4,a4,-4
    4df0:	c3d8                	sw	a4,4(a5)
    4df2:	43d8                	lw	a4,4(a5)
    4df4:	00276713          	ori	a4,a4,2
    4df8:	c3d8                	sw	a4,4(a5)
    4dfa:	4721                	li	a4,8
    4dfc:	42dc                	lw	a5,4(a3)
    4dfe:	8bb1                	andi	a5,a5,12
    4e00:	fee79ee3          	bne	a5,a4,4dfc <SystemInit+0xfe>
    4e04:	0141                	addi	sp,sp,16
    4e06:	8082                	ret
    4e08:	c602                	sw	zero,12(sp)
    4e0a:	bf9d                	j	4d80 <SystemInit+0x82>

00004e0c <usart2_init>:
    4e0c:	7139                	addi	sp,sp,-64
    4e0e:	da26                	sw	s1,52(sp)
    4e10:	4585                	li	a1,1
    4e12:	84aa                	mv	s1,a0
    4e14:	00020537          	lui	a0,0x20
    4e18:	de06                	sw	ra,60(sp)
    4e1a:	dc22                	sw	s0,56(sp)
    4e1c:	ca02                	sw	zero,20(sp)
    4e1e:	cc02                	sw	zero,24(sp)
    4e20:	ce02                	sw	zero,28(sp)
    4e22:	d002                	sw	zero,32(sp)
    4e24:	d202                	sw	zero,36(sp)
    4e26:	d402                	sw	zero,40(sp)
    4e28:	d602                	sw	zero,44(sp)
    4e2a:	c602                	sw	zero,12(sp)
    4e2c:	c802                	sw	zero,16(sp)
    4e2e:	2d71                	jal	54ca <RCC_APB1PeriphClockCmd>
    4e30:	4585                	li	a1,1
    4e32:	4511                	li	a0,4
    4e34:	2da5                	jal	54ac <RCC_APB2PeriphClockCmd>
    4e36:	4791                	li	a5,4
    4e38:	00f11a23          	sh	a5,20(sp)
    4e3c:	40011437          	lui	s0,0x40011
    4e40:	478d                	li	a5,3
    4e42:	cc3e                	sw	a5,24(sp)
    4e44:	084c                	addi	a1,sp,20
    4e46:	47e1                	li	a5,24
    4e48:	80040513          	addi	a0,s0,-2048 # 40010800 <_eusrstack+0x20000800>
    4e4c:	ce3e                	sw	a5,28(sp)
    4e4e:	2689                	jal	5190 <GPIO_Init>
    4e50:	47a1                	li	a5,8
    4e52:	00f11a23          	sh	a5,20(sp)
    4e56:	084c                	addi	a1,sp,20
    4e58:	4791                	li	a5,4
    4e5a:	80040513          	addi	a0,s0,-2048
    4e5e:	ce3e                	sw	a5,28(sp)
    4e60:	40004437          	lui	s0,0x40004
    4e64:	2635                	jal	5190 <GPIO_Init>
    4e66:	000c07b7          	lui	a5,0xc0
    4e6a:	100c                	addi	a1,sp,32
    4e6c:	40040513          	addi	a0,s0,1024 # 40004400 <_eusrstack+0x1fff4400>
    4e70:	d43e                	sw	a5,40(sp)
    4e72:	d026                	sw	s1,32(sp)
    4e74:	d202                	sw	zero,36(sp)
    4e76:	02011623          	sh	zero,44(sp)
    4e7a:	06f000ef          	jal	ra,56e8 <USART_Init>
    4e7e:	4605                	li	a2,1
    4e80:	52500593          	li	a1,1317
    4e84:	40040513          	addi	a0,s0,1024
    4e88:	157000ef          	jal	ra,57de <USART_ITConfig>
    4e8c:	13600793          	li	a5,310
    4e90:	00f11623          	sh	a5,12(sp)
    4e94:	4785                	li	a5,1
    4e96:	00f10723          	sb	a5,14(sp)
    4e9a:	0068                	addi	a0,sp,12
    4e9c:	4785                	li	a5,1
    4e9e:	c83e                	sw	a5,16(sp)
    4ea0:	26d9                	jal	5266 <NVIC_Init>
    4ea2:	40040513          	addi	a0,s0,1024
    4ea6:	4585                	li	a1,1
    4ea8:	11b000ef          	jal	ra,57c2 <USART_Cmd>
    4eac:	50f2                	lw	ra,60(sp)
    4eae:	5462                	lw	s0,56(sp)
    4eb0:	54d2                	lw	s1,52(sp)
    4eb2:	6121                	addi	sp,sp,64
    4eb4:	8082                	ret

00004eb6 <uart6_init>:
    4eb6:	7139                	addi	sp,sp,-64
    4eb8:	dc22                	sw	s0,56(sp)
    4eba:	4585                	li	a1,1
    4ebc:	842a                	mv	s0,a0
    4ebe:	04000513          	li	a0,64
    4ec2:	de06                	sw	ra,60(sp)
    4ec4:	da26                	sw	s1,52(sp)
    4ec6:	ca02                	sw	zero,20(sp)
    4ec8:	cc02                	sw	zero,24(sp)
    4eca:	ce02                	sw	zero,28(sp)
    4ecc:	d002                	sw	zero,32(sp)
    4ece:	d202                	sw	zero,36(sp)
    4ed0:	d402                	sw	zero,40(sp)
    4ed2:	d602                	sw	zero,44(sp)
    4ed4:	c602                	sw	zero,12(sp)
    4ed6:	c802                	sw	zero,16(sp)
    4ed8:	2bcd                	jal	54ca <RCC_APB1PeriphClockCmd>
    4eda:	4585                	li	a1,1
    4edc:	4541                	li	a0,16
    4ede:	23f9                	jal	54ac <RCC_APB2PeriphClockCmd>
    4ee0:	478d                	li	a5,3
    4ee2:	4485                	li	s1,1
    4ee4:	cc3e                	sw	a5,24(sp)
    4ee6:	084c                	addi	a1,sp,20
    4ee8:	47e1                	li	a5,24
    4eea:	40011537          	lui	a0,0x40011
    4eee:	00911a23          	sh	s1,20(sp)
    4ef2:	ce3e                	sw	a5,28(sp)
    4ef4:	2c71                	jal	5190 <GPIO_Init>
    4ef6:	4789                	li	a5,2
    4ef8:	00f11a23          	sh	a5,20(sp)
    4efc:	084c                	addi	a1,sp,20
    4efe:	4791                	li	a5,4
    4f00:	40011537          	lui	a0,0x40011
    4f04:	ce3e                	sw	a5,28(sp)
    4f06:	2469                	jal	5190 <GPIO_Init>
    4f08:	d022                	sw	s0,32(sp)
    4f0a:	40002437          	lui	s0,0x40002
    4f0e:	000c07b7          	lui	a5,0xc0
    4f12:	100c                	addi	a1,sp,32
    4f14:	80040513          	addi	a0,s0,-2048 # 40001800 <_eusrstack+0x1fff1800>
    4f18:	d43e                	sw	a5,40(sp)
    4f1a:	d202                	sw	zero,36(sp)
    4f1c:	02011623          	sh	zero,44(sp)
    4f20:	7c8000ef          	jal	ra,56e8 <USART_Init>
    4f24:	4605                	li	a2,1
    4f26:	52500593          	li	a1,1317
    4f2a:	80040513          	addi	a0,s0,-2048
    4f2e:	0b1000ef          	jal	ra,57de <USART_ITConfig>
    4f32:	15700793          	li	a5,343
    4f36:	00f11623          	sh	a5,12(sp)
    4f3a:	0068                	addi	a0,sp,12
    4f3c:	4785                	li	a5,1
    4f3e:	00910723          	sb	s1,14(sp)
    4f42:	c83e                	sw	a5,16(sp)
    4f44:	260d                	jal	5266 <NVIC_Init>
    4f46:	80040513          	addi	a0,s0,-2048
    4f4a:	4585                	li	a1,1
    4f4c:	077000ef          	jal	ra,57c2 <USART_Cmd>
    4f50:	50f2                	lw	ra,60(sp)
    4f52:	5462                	lw	s0,56(sp)
    4f54:	54d2                	lw	s1,52(sp)
    4f56:	6121                	addi	sp,sp,64
    4f58:	8082                	ret

00004f5a <uart7_init>:
    4f5a:	7139                	addi	sp,sp,-64
    4f5c:	dc22                	sw	s0,56(sp)
    4f5e:	4585                	li	a1,1
    4f60:	842a                	mv	s0,a0
    4f62:	08000513          	li	a0,128
    4f66:	de06                	sw	ra,60(sp)
    4f68:	ca02                	sw	zero,20(sp)
    4f6a:	cc02                	sw	zero,24(sp)
    4f6c:	ce02                	sw	zero,28(sp)
    4f6e:	d002                	sw	zero,32(sp)
    4f70:	d202                	sw	zero,36(sp)
    4f72:	d402                	sw	zero,40(sp)
    4f74:	d602                	sw	zero,44(sp)
    4f76:	c602                	sw	zero,12(sp)
    4f78:	c802                	sw	zero,16(sp)
    4f7a:	2b81                	jal	54ca <RCC_APB1PeriphClockCmd>
    4f7c:	4585                	li	a1,1
    4f7e:	4541                	li	a0,16
    4f80:	2335                	jal	54ac <RCC_APB2PeriphClockCmd>
    4f82:	4791                	li	a5,4
    4f84:	00f11a23          	sh	a5,20(sp)
    4f88:	478d                	li	a5,3
    4f8a:	cc3e                	sw	a5,24(sp)
    4f8c:	084c                	addi	a1,sp,20
    4f8e:	47e1                	li	a5,24
    4f90:	40011537          	lui	a0,0x40011
    4f94:	ce3e                	sw	a5,28(sp)
    4f96:	2aed                	jal	5190 <GPIO_Init>
    4f98:	47a1                	li	a5,8
    4f9a:	00f11a23          	sh	a5,20(sp)
    4f9e:	084c                	addi	a1,sp,20
    4fa0:	4791                	li	a5,4
    4fa2:	40011537          	lui	a0,0x40011
    4fa6:	ce3e                	sw	a5,28(sp)
    4fa8:	22e5                	jal	5190 <GPIO_Init>
    4faa:	d022                	sw	s0,32(sp)
    4fac:	40002437          	lui	s0,0x40002
    4fb0:	000c07b7          	lui	a5,0xc0
    4fb4:	100c                	addi	a1,sp,32
    4fb6:	c0040513          	addi	a0,s0,-1024 # 40001c00 <_eusrstack+0x1fff1c00>
    4fba:	d43e                	sw	a5,40(sp)
    4fbc:	d202                	sw	zero,36(sp)
    4fbe:	02011623          	sh	zero,44(sp)
    4fc2:	271d                	jal	56e8 <USART_Init>
    4fc4:	4605                	li	a2,1
    4fc6:	52500593          	li	a1,1317
    4fca:	c0040513          	addi	a0,s0,-1024
    4fce:	011000ef          	jal	ra,57de <USART_ITConfig>
    4fd2:	15800793          	li	a5,344
    4fd6:	00f11623          	sh	a5,12(sp)
    4fda:	4785                	li	a5,1
    4fdc:	00f10723          	sb	a5,14(sp)
    4fe0:	0068                	addi	a0,sp,12
    4fe2:	4785                	li	a5,1
    4fe4:	c83e                	sw	a5,16(sp)
    4fe6:	2441                	jal	5266 <NVIC_Init>
    4fe8:	c0040513          	addi	a0,s0,-1024
    4fec:	4585                	li	a1,1
    4fee:	7d4000ef          	jal	ra,57c2 <USART_Cmd>
    4ff2:	50f2                	lw	ra,60(sp)
    4ff4:	5462                	lw	s0,56(sp)
    4ff6:	6121                	addi	sp,sp,64
    4ff8:	8082                	ret
    4ffa:	a001                	j	4ffa <uart7_init+0xa0>
    4ffc:	a001                	j	4ffc <uart7_init+0xa2>

00004ffe <Ecall_M_Mode_Handler>:
    4ffe:	a001                	j	4ffe <Ecall_M_Mode_Handler>

00005000 <Ecall_U_Mode_Handler>:
    5000:	a001                	j	5000 <Ecall_U_Mode_Handler>

00005002 <Break_Point_Handler>:
    5002:	a001                	j	5002 <Break_Point_Handler>
    5004:	a001                	j	5004 <Break_Point_Handler+0x2>
    5006:	a001                	j	5006 <Break_Point_Handler+0x4>

00005008 <WWDG_IRQHandler>:
    5008:	a001                	j	5008 <WWDG_IRQHandler>

0000500a <PVD_IRQHandler>:
    500a:	a001                	j	500a <PVD_IRQHandler>

0000500c <TAMPER_IRQHandler>:
    500c:	a001                	j	500c <TAMPER_IRQHandler>
    500e:	a001                	j	500e <TAMPER_IRQHandler+0x2>

00005010 <FLASH_IRQHandler>:
    5010:	a001                	j	5010 <FLASH_IRQHandler>

00005012 <RCC_IRQHandler>:
    5012:	a001                	j	5012 <RCC_IRQHandler>

00005014 <EXTI0_IRQHandler>:
    5014:	a001                	j	5014 <EXTI0_IRQHandler>

00005016 <EXTI1_IRQHandler>:
    5016:	a001                	j	5016 <EXTI1_IRQHandler>

00005018 <EXTI2_IRQHandler>:
    5018:	a001                	j	5018 <EXTI2_IRQHandler>

0000501a <EXTI3_IRQHandler>:
    501a:	a001                	j	501a <EXTI3_IRQHandler>

0000501c <EXTI4_IRQHandler>:
    501c:	a001                	j	501c <EXTI4_IRQHandler>

0000501e <DMA1_Channel1_IRQHandler>:
    501e:	a001                	j	501e <DMA1_Channel1_IRQHandler>

00005020 <DMA1_Channel2_IRQHandler>:
    5020:	a001                	j	5020 <DMA1_Channel2_IRQHandler>

00005022 <DMA1_Channel3_IRQHandler>:
    5022:	a001                	j	5022 <DMA1_Channel3_IRQHandler>

00005024 <DMA1_Channel4_IRQHandler>:
    5024:	a001                	j	5024 <DMA1_Channel4_IRQHandler>

00005026 <DMA1_Channel5_IRQHandler>:
    5026:	a001                	j	5026 <DMA1_Channel5_IRQHandler>

00005028 <DMA1_Channel6_IRQHandler>:
    5028:	a001                	j	5028 <DMA1_Channel6_IRQHandler>

0000502a <DMA1_Channel7_IRQHandler>:
    502a:	a001                	j	502a <DMA1_Channel7_IRQHandler>

0000502c <ADC1_2_IRQHandler>:
    502c:	a001                	j	502c <ADC1_2_IRQHandler>

0000502e <USB_HP_CAN1_TX_IRQHandler>:
    502e:	a001                	j	502e <USB_HP_CAN1_TX_IRQHandler>

00005030 <USB_LP_CAN1_RX0_IRQHandler>:
    5030:	a001                	j	5030 <USB_LP_CAN1_RX0_IRQHandler>

00005032 <CAN1_RX1_IRQHandler>:
    5032:	a001                	j	5032 <CAN1_RX1_IRQHandler>

00005034 <CAN1_SCE_IRQHandler>:
    5034:	a001                	j	5034 <CAN1_SCE_IRQHandler>

00005036 <EXTI9_5_IRQHandler>:
    5036:	a001                	j	5036 <EXTI9_5_IRQHandler>

00005038 <TIM1_BRK_IRQHandler>:
    5038:	a001                	j	5038 <TIM1_BRK_IRQHandler>

0000503a <TIM1_UP_IRQHandler>:
    503a:	a001                	j	503a <TIM1_UP_IRQHandler>

0000503c <TIM1_TRG_COM_IRQHandler>:
    503c:	a001                	j	503c <TIM1_TRG_COM_IRQHandler>

0000503e <TIM1_CC_IRQHandler>:
    503e:	a001                	j	503e <TIM1_CC_IRQHandler>

00005040 <TIM2_IRQHandler>:
    5040:	a001                	j	5040 <TIM2_IRQHandler>

00005042 <TIM3_IRQHandler>:
    5042:	a001                	j	5042 <TIM3_IRQHandler>

00005044 <TIM4_IRQHandler>:
    5044:	a001                	j	5044 <TIM4_IRQHandler>

00005046 <I2C1_EV_IRQHandler>:
    5046:	a001                	j	5046 <I2C1_EV_IRQHandler>

00005048 <I2C1_ER_IRQHandler>:
    5048:	a001                	j	5048 <I2C1_ER_IRQHandler>

0000504a <I2C2_EV_IRQHandler>:
    504a:	a001                	j	504a <I2C2_EV_IRQHandler>

0000504c <I2C2_ER_IRQHandler>:
    504c:	a001                	j	504c <I2C2_ER_IRQHandler>

0000504e <SPI1_IRQHandler>:
    504e:	a001                	j	504e <SPI1_IRQHandler>

00005050 <SPI2_IRQHandler>:
    5050:	a001                	j	5050 <SPI2_IRQHandler>

00005052 <USART1_IRQHandler>:
    5052:	a001                	j	5052 <USART1_IRQHandler>
    5054:	a001                	j	5054 <USART1_IRQHandler+0x2>

00005056 <USART3_IRQHandler>:
    5056:	a001                	j	5056 <USART3_IRQHandler>

00005058 <EXTI15_10_IRQHandler>:
    5058:	a001                	j	5058 <EXTI15_10_IRQHandler>

0000505a <RTCAlarm_IRQHandler>:
    505a:	a001                	j	505a <RTCAlarm_IRQHandler>

0000505c <USBWakeUp_IRQHandler>:
    505c:	a001                	j	505c <USBWakeUp_IRQHandler>

0000505e <TIM8_BRK_IRQHandler>:
    505e:	a001                	j	505e <TIM8_BRK_IRQHandler>

00005060 <TIM8_UP_IRQHandler>:
    5060:	a001                	j	5060 <TIM8_UP_IRQHandler>

00005062 <TIM8_TRG_COM_IRQHandler>:
    5062:	a001                	j	5062 <TIM8_TRG_COM_IRQHandler>

00005064 <TIM8_CC_IRQHandler>:
    5064:	a001                	j	5064 <TIM8_CC_IRQHandler>

00005066 <RNG_IRQHandler>:
    5066:	a001                	j	5066 <RNG_IRQHandler>

00005068 <FSMC_IRQHandler>:
    5068:	a001                	j	5068 <FSMC_IRQHandler>

0000506a <SDIO_IRQHandler>:
    506a:	a001                	j	506a <SDIO_IRQHandler>

0000506c <TIM5_IRQHandler>:
    506c:	a001                	j	506c <TIM5_IRQHandler>

0000506e <SPI3_IRQHandler>:
    506e:	a001                	j	506e <SPI3_IRQHandler>

00005070 <UART4_IRQHandler>:
    5070:	a001                	j	5070 <UART4_IRQHandler>

00005072 <UART5_IRQHandler>:
    5072:	a001                	j	5072 <UART5_IRQHandler>

00005074 <TIM6_IRQHandler>:
    5074:	a001                	j	5074 <TIM6_IRQHandler>

00005076 <TIM7_IRQHandler>:
    5076:	a001                	j	5076 <TIM7_IRQHandler>

00005078 <DMA2_Channel1_IRQHandler>:
    5078:	a001                	j	5078 <DMA2_Channel1_IRQHandler>

0000507a <DMA2_Channel2_IRQHandler>:
    507a:	a001                	j	507a <DMA2_Channel2_IRQHandler>

0000507c <DMA2_Channel3_IRQHandler>:
    507c:	a001                	j	507c <DMA2_Channel3_IRQHandler>

0000507e <DMA2_Channel4_IRQHandler>:
    507e:	a001                	j	507e <DMA2_Channel4_IRQHandler>

00005080 <DMA2_Channel5_IRQHandler>:
    5080:	a001                	j	5080 <DMA2_Channel5_IRQHandler>

00005082 <ETH_IRQHandler>:
    5082:	a001                	j	5082 <ETH_IRQHandler>

00005084 <ETH_WKUP_IRQHandler>:
    5084:	a001                	j	5084 <ETH_WKUP_IRQHandler>

00005086 <CAN2_TX_IRQHandler>:
    5086:	a001                	j	5086 <CAN2_TX_IRQHandler>

00005088 <CAN2_RX0_IRQHandler>:
    5088:	a001                	j	5088 <CAN2_RX0_IRQHandler>

0000508a <CAN2_RX1_IRQHandler>:
    508a:	a001                	j	508a <CAN2_RX1_IRQHandler>

0000508c <CAN2_SCE_IRQHandler>:
    508c:	a001                	j	508c <CAN2_SCE_IRQHandler>

0000508e <OTG_FS_IRQHandler>:
    508e:	a001                	j	508e <OTG_FS_IRQHandler>

00005090 <USBHSWakeup_IRQHandler>:
    5090:	a001                	j	5090 <USBHSWakeup_IRQHandler>

00005092 <USBHS_IRQHandler>:
    5092:	a001                	j	5092 <USBHS_IRQHandler>

00005094 <DVP_IRQHandler>:
    5094:	a001                	j	5094 <DVP_IRQHandler>
    5096:	a001                	j	5096 <DVP_IRQHandler+0x2>
    5098:	a001                	j	5098 <DVP_IRQHandler+0x4>

0000509a <UART8_IRQHandler>:
    509a:	a001                	j	509a <UART8_IRQHandler>

0000509c <TIM9_BRK_IRQHandler>:
    509c:	a001                	j	509c <TIM9_BRK_IRQHandler>

0000509e <TIM9_UP_IRQHandler>:
    509e:	a001                	j	509e <TIM9_UP_IRQHandler>

000050a0 <TIM9_TRG_COM_IRQHandler>:
    50a0:	a001                	j	50a0 <TIM9_TRG_COM_IRQHandler>

000050a2 <TIM9_CC_IRQHandler>:
    50a2:	a001                	j	50a2 <TIM9_CC_IRQHandler>

000050a4 <TIM10_BRK_IRQHandler>:
    50a4:	a001                	j	50a4 <TIM10_BRK_IRQHandler>

000050a6 <TIM10_UP_IRQHandler>:
    50a6:	a001                	j	50a6 <TIM10_UP_IRQHandler>

000050a8 <TIM10_TRG_COM_IRQHandler>:
    50a8:	a001                	j	50a8 <TIM10_TRG_COM_IRQHandler>

000050aa <TIM10_CC_IRQHandler>:
    50aa:	a001                	j	50aa <TIM10_CC_IRQHandler>

000050ac <DMA2_Channel6_IRQHandler>:
    50ac:	a001                	j	50ac <DMA2_Channel6_IRQHandler>

000050ae <DMA2_Channel7_IRQHandler>:
    50ae:	a001                	j	50ae <DMA2_Channel7_IRQHandler>

000050b0 <DMA2_Channel8_IRQHandler>:
    50b0:	a001                	j	50b0 <DMA2_Channel8_IRQHandler>

000050b2 <DMA2_Channel9_IRQHandler>:
    50b2:	a001                	j	50b2 <DMA2_Channel9_IRQHandler>

000050b4 <DMA2_Channel10_IRQHandler>:
    50b4:	a001                	j	50b4 <DMA2_Channel10_IRQHandler>

000050b6 <DMA2_Channel11_IRQHandler>:
    50b6:	a001                	j	50b6 <DMA2_Channel11_IRQHandler>

000050b8 <handle_reset>:
    50b8:	1fffc197          	auipc	gp,0x1fffc
    50bc:	99818193          	addi	gp,gp,-1640 # 20000a50 <__global_pointer$>
    50c0:	2000b117          	auipc	sp,0x2000b
    50c4:	f4010113          	addi	sp,sp,-192 # 20010000 <_eusrstack>
    50c8:	00009517          	auipc	a0,0x9
    50cc:	d0050513          	addi	a0,a0,-768 # ddc8 <_data_lma>
    50d0:	1fffb597          	auipc	a1,0x1fffb
    50d4:	f3058593          	addi	a1,a1,-208 # 20000000 <_data_vma>
    50d8:	83818613          	addi	a2,gp,-1992 # 20000288 <_edata>
    50dc:	00c5fa63          	bgeu	a1,a2,50f0 <handle_reset+0x38>
    50e0:	00052283          	lw	t0,0(a0)
    50e4:	0055a023          	sw	t0,0(a1)
    50e8:	0511                	addi	a0,a0,4
    50ea:	0591                	addi	a1,a1,4
    50ec:	fec5eae3          	bltu	a1,a2,50e0 <handle_reset+0x28>
    50f0:	83818513          	addi	a0,gp,-1992 # 20000288 <_edata>
    50f4:	2000a597          	auipc	a1,0x2000a
    50f8:	e5858593          	addi	a1,a1,-424 # 2000ef4c <_ebss>
    50fc:	00b57763          	bgeu	a0,a1,510a <handle_reset+0x52>
    5100:	00052023          	sw	zero,0(a0)
    5104:	0511                	addi	a0,a0,4
    5106:	feb56de3          	bltu	a0,a1,5100 <handle_reset+0x48>
    510a:	42fd                	li	t0,31
    510c:	bc029073          	csrw	0xbc0,t0
    5110:	42fd                	li	t0,31
    5112:	80429073          	csrw	0x804,t0
    5116:	000082b7          	lui	t0,0x8
    511a:	80028293          	addi	t0,t0,-2048 # 7800 <__sflush_r+0x8c>
    511e:	3002a073          	csrs	mstatus,t0
    5122:	ffffb297          	auipc	t0,0xffffb
    5126:	f1628293          	addi	t0,t0,-234 # 38 <_einit>
    512a:	0032e293          	ori	t0,t0,3
    512e:	30529073          	csrw	mtvec,t0
    5132:	bcdff0ef          	jal	ra,4cfe <SystemInit>
    5136:	00000297          	auipc	t0,0x0
    513a:	a1228293          	addi	t0,t0,-1518 # 4b48 <main>
    513e:	34129073          	csrw	mepc,t0
    5142:	30200073          	mret

00005146 <BKP_DeInit>:
    5146:	1141                	addi	sp,sp,-16
    5148:	4505                	li	a0,1
    514a:	c606                	sw	ra,12(sp)
    514c:	2e71                	jal	54e8 <RCC_BackupResetCmd>
    514e:	40b2                	lw	ra,12(sp)
    5150:	4501                	li	a0,0
    5152:	0141                	addi	sp,sp,16
    5154:	ae51                	j	54e8 <RCC_BackupResetCmd>

00005156 <BKP_WriteBackupRegister>:
    5156:	1141                	addi	sp,sp,-16
    5158:	400077b7          	lui	a5,0x40007
    515c:	c602                	sw	zero,12(sp)
    515e:	c0078793          	addi	a5,a5,-1024 # 40006c00 <_eusrstack+0x1fff6c00>
    5162:	c63e                	sw	a5,12(sp)
    5164:	47b2                	lw	a5,12(sp)
    5166:	953e                	add	a0,a0,a5
    5168:	c62a                	sw	a0,12(sp)
    516a:	47b2                	lw	a5,12(sp)
    516c:	c38c                	sw	a1,0(a5)
    516e:	0141                	addi	sp,sp,16
    5170:	8082                	ret

00005172 <BKP_ReadBackupRegister>:
    5172:	1141                	addi	sp,sp,-16
    5174:	400077b7          	lui	a5,0x40007
    5178:	c602                	sw	zero,12(sp)
    517a:	c0078793          	addi	a5,a5,-1024 # 40006c00 <_eusrstack+0x1fff6c00>
    517e:	c63e                	sw	a5,12(sp)
    5180:	47b2                	lw	a5,12(sp)
    5182:	953e                	add	a0,a0,a5
    5184:	c62a                	sw	a0,12(sp)
    5186:	47b2                	lw	a5,12(sp)
    5188:	0007d503          	lhu	a0,0(a5)
    518c:	0141                	addi	sp,sp,16
    518e:	8082                	ret

00005190 <GPIO_Init>:
    5190:	459c                	lw	a5,8(a1)
    5192:	0107f713          	andi	a4,a5,16
    5196:	00f7f813          	andi	a6,a5,15
    519a:	c701                	beqz	a4,51a2 <GPIO_Init+0x12>
    519c:	41d8                	lw	a4,4(a1)
    519e:	00e86833          	or	a6,a6,a4
    51a2:	0005d583          	lhu	a1,0(a1)
    51a6:	0ff5f713          	andi	a4,a1,255
    51aa:	c339                	beqz	a4,51f0 <GPIO_Init+0x60>
    51ac:	4118                	lw	a4,0(a0)
    51ae:	4681                	li	a3,0
    51b0:	4e85                	li	t4,1
    51b2:	4f3d                	li	t5,15
    51b4:	02800f93          	li	t6,40
    51b8:	04800293          	li	t0,72
    51bc:	4e21                	li	t3,8
    51be:	00de9633          	sll	a2,t4,a3
    51c2:	00c5f8b3          	and	a7,a1,a2
    51c6:	03161163          	bne	a2,a7,51e8 <GPIO_Init+0x58>
    51ca:	00269893          	slli	a7,a3,0x2
    51ce:	011f1333          	sll	t1,t5,a7
    51d2:	fff34313          	not	t1,t1
    51d6:	00e37733          	and	a4,t1,a4
    51da:	011818b3          	sll	a7,a6,a7
    51de:	00e8e733          	or	a4,a7,a4
    51e2:	05f79f63          	bne	a5,t6,5240 <GPIO_Init+0xb0>
    51e6:	c950                	sw	a2,20(a0)
    51e8:	0685                	addi	a3,a3,1
    51ea:	fdc69ae3          	bne	a3,t3,51be <GPIO_Init+0x2e>
    51ee:	c118                	sw	a4,0(a0)
    51f0:	0ff00713          	li	a4,255
    51f4:	04b77563          	bgeu	a4,a1,523e <GPIO_Init+0xae>
    51f8:	4154                	lw	a3,4(a0)
    51fa:	4621                	li	a2,8
    51fc:	4e85                	li	t4,1
    51fe:	4f3d                	li	t5,15
    5200:	02800f93          	li	t6,40
    5204:	04800293          	li	t0,72
    5208:	4e41                	li	t3,16
    520a:	00ce98b3          	sll	a7,t4,a2
    520e:	0115f733          	and	a4,a1,a7
    5212:	02e89263          	bne	a7,a4,5236 <GPIO_Init+0xa6>
    5216:	00261713          	slli	a4,a2,0x2
    521a:	1701                	addi	a4,a4,-32
    521c:	00ef1333          	sll	t1,t5,a4
    5220:	fff34313          	not	t1,t1
    5224:	00d376b3          	and	a3,t1,a3
    5228:	00e81733          	sll	a4,a6,a4
    522c:	8ed9                	or	a3,a3,a4
    522e:	01f79d63          	bne	a5,t6,5248 <GPIO_Init+0xb8>
    5232:	01152a23          	sw	a7,20(a0)
    5236:	0605                	addi	a2,a2,1
    5238:	fdc619e3          	bne	a2,t3,520a <GPIO_Init+0x7a>
    523c:	c154                	sw	a3,4(a0)
    523e:	8082                	ret
    5240:	fa5794e3          	bne	a5,t0,51e8 <GPIO_Init+0x58>
    5244:	c910                	sw	a2,16(a0)
    5246:	b74d                	j	51e8 <GPIO_Init+0x58>
    5248:	fe5797e3          	bne	a5,t0,5236 <GPIO_Init+0xa6>
    524c:	01152823          	sw	a7,16(a0)
    5250:	b7dd                	j	5236 <GPIO_Init+0xa6>

00005252 <GPIO_SetBits>:
    5252:	c90c                	sw	a1,16(a0)
    5254:	8082                	ret

00005256 <GPIO_WriteBit>:
    5256:	c219                	beqz	a2,525c <GPIO_WriteBit+0x6>
    5258:	c90c                	sw	a1,16(a0)
    525a:	8082                	ret
    525c:	c94c                	sw	a1,20(a0)
    525e:	8082                	ret

00005260 <NVIC_PriorityGroupConfig>:
    5260:	86a1a623          	sw	a0,-1940(gp) # 200002bc <NVIC_Priority_Group>
    5264:	8082                	ret

00005266 <NVIC_Init>:
    5266:	86c18793          	addi	a5,gp,-1940 # 200002bc <NVIC_Priority_Group>
    526a:	4394                	lw	a3,0(a5)
    526c:	00054703          	lbu	a4,0(a0)
    5270:	e689                	bnez	a3,527a <NVIC_Init+0x14>
    5272:	00254783          	lbu	a5,2(a0)
    5276:	0792                	slli	a5,a5,0x4
    5278:	a831                	j	5294 <NVIC_Init+0x2e>
    527a:	4394                	lw	a3,0(a5)
    527c:	4605                	li	a2,1
    527e:	04c69163          	bne	a3,a2,52c0 <NVIC_Init+0x5a>
    5282:	00254783          	lbu	a5,2(a0)
    5286:	00154603          	lbu	a2,1(a0)
    528a:	0792                	slli	a5,a5,0x4
    528c:	00d61463          	bne	a2,a3,5294 <NVIC_Init+0x2e>
    5290:	f807e793          	ori	a5,a5,-128
    5294:	e000e6b7          	lui	a3,0xe000e
    5298:	0ff7f793          	andi	a5,a5,255
    529c:	96ba                	add	a3,a3,a4
    529e:	40f68023          	sb	a5,1024(a3) # e000e400 <_eusrstack+0xbfffe400>
    52a2:	4685                	li	a3,1
    52a4:	00575793          	srli	a5,a4,0x5
    52a8:	00e69733          	sll	a4,a3,a4
    52ac:	4154                	lw	a3,4(a0)
    52ae:	c6ad                	beqz	a3,5318 <NVIC_Init+0xb2>
    52b0:	04078793          	addi	a5,a5,64
    52b4:	078a                	slli	a5,a5,0x2
    52b6:	e000e6b7          	lui	a3,0xe000e
    52ba:	97b6                	add	a5,a5,a3
    52bc:	c398                	sw	a4,0(a5)
    52be:	8082                	ret
    52c0:	438c                	lw	a1,0(a5)
    52c2:	4689                	li	a3,2
    52c4:	02d59363          	bne	a1,a3,52ea <NVIC_Init+0x84>
    52c8:	00154683          	lbu	a3,1(a0)
    52cc:	00254783          	lbu	a5,2(a0)
    52d0:	00d66563          	bltu	a2,a3,52da <NVIC_Init+0x74>
    52d4:	068a                	slli	a3,a3,0x2
    52d6:	97b6                	add	a5,a5,a3
    52d8:	bf79                	j	5276 <NVIC_Init+0x10>
    52da:	03e68693          	addi	a3,a3,62 # e000e03e <_eusrstack+0xbfffe03e>
    52de:	068a                	slli	a3,a3,0x2
    52e0:	97b6                	add	a5,a5,a3
    52e2:	0ff7f793          	andi	a5,a5,255
    52e6:	0792                	slli	a5,a5,0x4
    52e8:	b765                	j	5290 <NVIC_Init+0x2a>
    52ea:	4390                	lw	a2,0(a5)
    52ec:	468d                	li	a3,3
    52ee:	00d61e63          	bne	a2,a3,530a <NVIC_Init+0xa4>
    52f2:	00154683          	lbu	a3,1(a0)
    52f6:	00254783          	lbu	a5,2(a0)
    52fa:	00d66463          	bltu	a2,a3,5302 <NVIC_Init+0x9c>
    52fe:	0686                	slli	a3,a3,0x1
    5300:	bfd9                	j	52d6 <NVIC_Init+0x70>
    5302:	07c68693          	addi	a3,a3,124
    5306:	0686                	slli	a3,a3,0x1
    5308:	bfe1                	j	52e0 <NVIC_Init+0x7a>
    530a:	4394                	lw	a3,0(a5)
    530c:	4791                	li	a5,4
    530e:	f8f69ae3          	bne	a3,a5,52a2 <NVIC_Init+0x3c>
    5312:	00154783          	lbu	a5,1(a0)
    5316:	b785                	j	5276 <NVIC_Init+0x10>
    5318:	06078793          	addi	a5,a5,96
    531c:	bf61                	j	52b4 <NVIC_Init+0x4e>

0000531e <PWR_BackupAccessCmd>:
    531e:	40007737          	lui	a4,0x40007
    5322:	431c                	lw	a5,0(a4)
    5324:	c509                	beqz	a0,532e <PWR_BackupAccessCmd+0x10>
    5326:	1007e793          	ori	a5,a5,256
    532a:	c31c                	sw	a5,0(a4)
    532c:	8082                	ret
    532e:	eff7f793          	andi	a5,a5,-257
    5332:	bfe5                	j	532a <PWR_BackupAccessCmd+0xc>

00005334 <PWR_WakeUpPinCmd>:
    5334:	40007737          	lui	a4,0x40007
    5338:	435c                	lw	a5,4(a4)
    533a:	c509                	beqz	a0,5344 <PWR_WakeUpPinCmd+0x10>
    533c:	1007e793          	ori	a5,a5,256
    5340:	c35c                	sw	a5,4(a4)
    5342:	8082                	ret
    5344:	eff7f793          	andi	a5,a5,-257
    5348:	bfe5                	j	5340 <PWR_WakeUpPinCmd+0xc>

0000534a <RCC_LSEConfig>:
    534a:	400217b7          	lui	a5,0x40021
    534e:	02078023          	sb	zero,32(a5) # 40021020 <_eusrstack+0x20011020>
    5352:	02078023          	sb	zero,32(a5)
    5356:	4705                	li	a4,1
    5358:	00e50663          	beq	a0,a4,5364 <RCC_LSEConfig+0x1a>
    535c:	4711                	li	a4,4
    535e:	00e50663          	beq	a0,a4,536a <RCC_LSEConfig+0x20>
    5362:	8082                	ret
    5364:	02a78023          	sb	a0,32(a5)
    5368:	8082                	ret
    536a:	4715                	li	a4,5
    536c:	02e78023          	sb	a4,32(a5)
    5370:	8082                	ret

00005372 <RCC_RTCCLKConfig>:
    5372:	40021737          	lui	a4,0x40021
    5376:	531c                	lw	a5,32(a4)
    5378:	8d5d                	or	a0,a0,a5
    537a:	d308                	sw	a0,32(a4)
    537c:	8082                	ret

0000537e <RCC_RTCCLKCmd>:
    537e:	c901                	beqz	a0,538e <RCC_RTCCLKCmd+0x10>
    5380:	40021737          	lui	a4,0x40021
    5384:	531c                	lw	a5,32(a4)
    5386:	66a1                	lui	a3,0x8
    5388:	8fd5                	or	a5,a5,a3
    538a:	d31c                	sw	a5,32(a4)
    538c:	8082                	ret
    538e:	400216b7          	lui	a3,0x40021
    5392:	529c                	lw	a5,32(a3)
    5394:	7761                	lui	a4,0xffff8
    5396:	177d                	addi	a4,a4,-1
    5398:	8ff9                	and	a5,a5,a4
    539a:	d29c                	sw	a5,32(a3)
    539c:	8082                	ret

0000539e <RCC_GetClocksFreq>:
    539e:	40021737          	lui	a4,0x40021
    53a2:	435c                	lw	a5,4(a4)
    53a4:	4691                	li	a3,4
    53a6:	8bb1                	andi	a5,a5,12
    53a8:	00d78563          	beq	a5,a3,53b2 <RCC_GetClocksFreq+0x14>
    53ac:	46a1                	li	a3,8
    53ae:	06d78663          	beq	a5,a3,541a <RCC_GetClocksFreq+0x7c>
    53b2:	007a17b7          	lui	a5,0x7a1
    53b6:	20078793          	addi	a5,a5,512 # 7a1200 <_data_lma+0x793438>
    53ba:	c11c                	sw	a5,0(a0)
    53bc:	40021637          	lui	a2,0x40021
    53c0:	425c                	lw	a5,4(a2)
    53c2:	20000737          	lui	a4,0x20000
    53c6:	07070713          	addi	a4,a4,112 # 20000070 <APBAHBPrescTable>
    53ca:	8391                	srli	a5,a5,0x4
    53cc:	8bbd                	andi	a5,a5,15
    53ce:	97ba                	add	a5,a5,a4
    53d0:	0007c683          	lbu	a3,0(a5)
    53d4:	411c                	lw	a5,0(a0)
    53d6:	00d7d7b3          	srl	a5,a5,a3
    53da:	c15c                	sw	a5,4(a0)
    53dc:	4254                	lw	a3,4(a2)
    53de:	82a1                	srli	a3,a3,0x8
    53e0:	8a9d                	andi	a3,a3,7
    53e2:	96ba                	add	a3,a3,a4
    53e4:	0006c683          	lbu	a3,0(a3) # 40021000 <_eusrstack+0x20011000>
    53e8:	00d7d6b3          	srl	a3,a5,a3
    53ec:	c514                	sw	a3,8(a0)
    53ee:	4254                	lw	a3,4(a2)
    53f0:	82ad                	srli	a3,a3,0xb
    53f2:	8a9d                	andi	a3,a3,7
    53f4:	9736                	add	a4,a4,a3
    53f6:	00074703          	lbu	a4,0(a4)
    53fa:	00e7d7b3          	srl	a5,a5,a4
    53fe:	c55c                	sw	a5,12(a0)
    5400:	4258                	lw	a4,4(a2)
    5402:	8339                	srli	a4,a4,0xe
    5404:	00377693          	andi	a3,a4,3
    5408:	82018713          	addi	a4,gp,-2016 # 20000270 <ADCPrescTable>
    540c:	9736                	add	a4,a4,a3
    540e:	00074703          	lbu	a4,0(a4)
    5412:	02e7d7b3          	divu	a5,a5,a4
    5416:	c91c                	sw	a5,16(a0)
    5418:	8082                	ret
    541a:	435c                	lw	a5,4(a4)
    541c:	4354                	lw	a3,4(a4)
    541e:	6741                	lui	a4,0x10
    5420:	83c9                	srli	a5,a5,0x12
    5422:	8ef9                	and	a3,a3,a4
    5424:	1ffff737          	lui	a4,0x1ffff
    5428:	70c72703          	lw	a4,1804(a4) # 1ffff70c <_data_lma+0x1fff1944>
    542c:	8bbd                	andi	a5,a5,15
    542e:	0789                	addi	a5,a5,2
    5430:	01171613          	slli	a2,a4,0x11
    5434:	00064863          	bltz	a2,5444 <RCC_GetClocksFreq+0xa6>
    5438:	4645                	li	a2,17
    543a:	4701                	li	a4,0
    543c:	02c79263          	bne	a5,a2,5460 <RCC_GetClocksFreq+0xc2>
    5440:	47c9                	li	a5,18
    5442:	a839                	j	5460 <RCC_GetClocksFreq+0xc2>
    5444:	4709                	li	a4,2
    5446:	02e78963          	beq	a5,a4,5478 <RCC_GetClocksFreq+0xda>
    544a:	473d                	li	a4,15
    544c:	02e78863          	beq	a5,a4,547c <RCC_GetClocksFreq+0xde>
    5450:	4741                	li	a4,16
    5452:	02e78863          	beq	a5,a4,5482 <RCC_GetClocksFreq+0xe4>
    5456:	4645                	li	a2,17
    5458:	4701                	li	a4,0
    545a:	00c79363          	bne	a5,a2,5460 <RCC_GetClocksFreq+0xc2>
    545e:	47c1                	li	a5,16
    5460:	e685                	bnez	a3,5488 <RCC_GetClocksFreq+0xea>
    5462:	400246b7          	lui	a3,0x40024
    5466:	8006a683          	lw	a3,-2048(a3) # 40023800 <_eusrstack+0x20013800>
    546a:	8ac1                	andi	a3,a3,16
    546c:	c68d                	beqz	a3,5496 <RCC_GetClocksFreq+0xf8>
    546e:	007a16b7          	lui	a3,0x7a1
    5472:	20068693          	addi	a3,a3,512 # 7a1200 <_data_lma+0x793438>
    5476:	a025                	j	549e <RCC_GetClocksFreq+0x100>
    5478:	4701                	li	a4,0
    547a:	b7d9                	j	5440 <RCC_GetClocksFreq+0xa2>
    547c:	4705                	li	a4,1
    547e:	47b5                	li	a5,13
    5480:	b7c5                	j	5460 <RCC_GetClocksFreq+0xc2>
    5482:	4701                	li	a4,0
    5484:	47bd                	li	a5,15
    5486:	bfe9                	j	5460 <RCC_GetClocksFreq+0xc2>
    5488:	400216b7          	lui	a3,0x40021
    548c:	42d4                	lw	a3,4(a3)
    548e:	00e69613          	slli	a2,a3,0xe
    5492:	fc065ee3          	bgez	a2,546e <RCC_GetClocksFreq+0xd0>
    5496:	003d16b7          	lui	a3,0x3d1
    549a:	90068693          	addi	a3,a3,-1792 # 3d0900 <_data_lma+0x3c2b38>
    549e:	02d787b3          	mul	a5,a5,a3
    54a2:	c11c                	sw	a5,0(a0)
    54a4:	df01                	beqz	a4,53bc <RCC_GetClocksFreq+0x1e>
    54a6:	411c                	lw	a5,0(a0)
    54a8:	8385                	srli	a5,a5,0x1
    54aa:	bf01                	j	53ba <RCC_GetClocksFreq+0x1c>

000054ac <RCC_APB2PeriphClockCmd>:
    54ac:	c599                	beqz	a1,54ba <RCC_APB2PeriphClockCmd+0xe>
    54ae:	40021737          	lui	a4,0x40021
    54b2:	4f1c                	lw	a5,24(a4)
    54b4:	8d5d                	or	a0,a0,a5
    54b6:	cf08                	sw	a0,24(a4)
    54b8:	8082                	ret
    54ba:	400217b7          	lui	a5,0x40021
    54be:	4f98                	lw	a4,24(a5)
    54c0:	fff54513          	not	a0,a0
    54c4:	8d79                	and	a0,a0,a4
    54c6:	cf88                	sw	a0,24(a5)
    54c8:	8082                	ret

000054ca <RCC_APB1PeriphClockCmd>:
    54ca:	c599                	beqz	a1,54d8 <RCC_APB1PeriphClockCmd+0xe>
    54cc:	40021737          	lui	a4,0x40021
    54d0:	4f5c                	lw	a5,28(a4)
    54d2:	8d5d                	or	a0,a0,a5
    54d4:	cf48                	sw	a0,28(a4)
    54d6:	8082                	ret
    54d8:	400217b7          	lui	a5,0x40021
    54dc:	4fd8                	lw	a4,28(a5)
    54de:	fff54513          	not	a0,a0
    54e2:	8d79                	and	a0,a0,a4
    54e4:	cfc8                	sw	a0,28(a5)
    54e6:	8082                	ret

000054e8 <RCC_BackupResetCmd>:
    54e8:	c901                	beqz	a0,54f8 <RCC_BackupResetCmd+0x10>
    54ea:	40021737          	lui	a4,0x40021
    54ee:	531c                	lw	a5,32(a4)
    54f0:	66c1                	lui	a3,0x10
    54f2:	8fd5                	or	a5,a5,a3
    54f4:	d31c                	sw	a5,32(a4)
    54f6:	8082                	ret
    54f8:	400216b7          	lui	a3,0x40021
    54fc:	529c                	lw	a5,32(a3)
    54fe:	7741                	lui	a4,0xffff0
    5500:	177d                	addi	a4,a4,-1
    5502:	8ff9                	and	a5,a5,a4
    5504:	d29c                	sw	a5,32(a3)
    5506:	8082                	ret

00005508 <RCC_GetFlagStatus>:
    5508:	00555793          	srli	a5,a0,0x5
    550c:	4705                	li	a4,1
    550e:	00e79963          	bne	a5,a4,5520 <RCC_GetFlagStatus+0x18>
    5512:	400217b7          	lui	a5,0x40021
    5516:	439c                	lw	a5,0(a5)
    5518:	00a7d533          	srl	a0,a5,a0
    551c:	8905                	andi	a0,a0,1
    551e:	8082                	ret
    5520:	4709                	li	a4,2
    5522:	00e79663          	bne	a5,a4,552e <RCC_GetFlagStatus+0x26>
    5526:	400217b7          	lui	a5,0x40021
    552a:	539c                	lw	a5,32(a5)
    552c:	b7f5                	j	5518 <RCC_GetFlagStatus+0x10>
    552e:	400217b7          	lui	a5,0x40021
    5532:	53dc                	lw	a5,36(a5)
    5534:	b7d5                	j	5518 <RCC_GetFlagStatus+0x10>

00005536 <RTC_ITConfig>:
    5536:	400037b7          	lui	a5,0x40003
    553a:	8007d703          	lhu	a4,-2048(a5) # 40002800 <_eusrstack+0x1fff2800>
    553e:	c589                	beqz	a1,5548 <RTC_ITConfig+0x12>
    5540:	8d59                	or	a0,a0,a4
    5542:	80a79023          	sh	a0,-2048(a5)
    5546:	8082                	ret
    5548:	fff54513          	not	a0,a0
    554c:	8d79                	and	a0,a0,a4
    554e:	bfd5                	j	5542 <RTC_ITConfig+0xc>

00005550 <RTC_EnterConfigMode>:
    5550:	400037b7          	lui	a5,0x40003
    5554:	8047d703          	lhu	a4,-2044(a5) # 40002804 <_eusrstack+0x1fff2804>
    5558:	01076713          	ori	a4,a4,16
    555c:	80e79223          	sh	a4,-2044(a5)
    5560:	8082                	ret

00005562 <RTC_ExitConfigMode>:
    5562:	40003737          	lui	a4,0x40003
    5566:	80475783          	lhu	a5,-2044(a4) # 40002804 <_eusrstack+0x1fff2804>
    556a:	07c2                	slli	a5,a5,0x10
    556c:	83c1                	srli	a5,a5,0x10
    556e:	9bbd                	andi	a5,a5,-17
    5570:	07c2                	slli	a5,a5,0x10
    5572:	83c1                	srli	a5,a5,0x10
    5574:	80f71223          	sh	a5,-2044(a4)
    5578:	8082                	ret

0000557a <RTC_GetCounter>:
    557a:	400036b7          	lui	a3,0x40003
    557e:	8186d783          	lhu	a5,-2024(a3) # 40002818 <_eusrstack+0x1fff2818>
    5582:	81c6d503          	lhu	a0,-2020(a3)
    5586:	8186d703          	lhu	a4,-2024(a3)
    558a:	07c2                	slli	a5,a5,0x10
    558c:	01051613          	slli	a2,a0,0x10
    5590:	0742                	slli	a4,a4,0x10
    5592:	83c1                	srli	a5,a5,0x10
    5594:	8341                	srli	a4,a4,0x10
    5596:	8241                	srli	a2,a2,0x10
    5598:	80068693          	addi	a3,a3,-2048
    559c:	00e78763          	beq	a5,a4,55aa <RTC_GetCounter+0x30>
    55a0:	01c6d503          	lhu	a0,28(a3)
    55a4:	0742                	slli	a4,a4,0x10
    55a6:	8d59                	or	a0,a0,a4
    55a8:	8082                	ret
    55aa:	01079513          	slli	a0,a5,0x10
    55ae:	8d51                	or	a0,a0,a2
    55b0:	8082                	ret

000055b2 <RTC_SetCounter>:
    55b2:	1101                	addi	sp,sp,-32
    55b4:	ce06                	sw	ra,28(sp)
    55b6:	c62a                	sw	a0,12(sp)
    55b8:	f99ff0ef          	jal	ra,5550 <RTC_EnterConfigMode>
    55bc:	4532                	lw	a0,12(sp)
    55be:	400037b7          	lui	a5,0x40003
    55c2:	40f2                	lw	ra,28(sp)
    55c4:	01055713          	srli	a4,a0,0x10
    55c8:	0542                	slli	a0,a0,0x10
    55ca:	80e79c23          	sh	a4,-2024(a5) # 40002818 <_eusrstack+0x1fff2818>
    55ce:	8141                	srli	a0,a0,0x10
    55d0:	80a79e23          	sh	a0,-2020(a5)
    55d4:	6105                	addi	sp,sp,32
    55d6:	f8dff06f          	j	5562 <RTC_ExitConfigMode>

000055da <RTC_SetPrescaler>:
    55da:	1101                	addi	sp,sp,-32
    55dc:	ce06                	sw	ra,28(sp)
    55de:	c62a                	sw	a0,12(sp)
    55e0:	f71ff0ef          	jal	ra,5550 <RTC_EnterConfigMode>
    55e4:	4532                	lw	a0,12(sp)
    55e6:	400037b7          	lui	a5,0x40003
    55ea:	40f2                	lw	ra,28(sp)
    55ec:	01055713          	srli	a4,a0,0x10
    55f0:	8b3d                	andi	a4,a4,15
    55f2:	0542                	slli	a0,a0,0x10
    55f4:	80e79423          	sh	a4,-2040(a5) # 40002808 <_eusrstack+0x1fff2808>
    55f8:	8141                	srli	a0,a0,0x10
    55fa:	80a79623          	sh	a0,-2036(a5)
    55fe:	6105                	addi	sp,sp,32
    5600:	f63ff06f          	j	5562 <RTC_ExitConfigMode>

00005604 <RTC_WaitForLastTask>:
    5604:	40003737          	lui	a4,0x40003
    5608:	80475783          	lhu	a5,-2044(a4) # 40002804 <_eusrstack+0x1fff2804>
    560c:	0207f793          	andi	a5,a5,32
    5610:	dfe5                	beqz	a5,5608 <RTC_WaitForLastTask+0x4>
    5612:	8082                	ret

00005614 <RTC_WaitForSynchro>:
    5614:	40003737          	lui	a4,0x40003
    5618:	80475783          	lhu	a5,-2044(a4) # 40002804 <_eusrstack+0x1fff2804>
    561c:	07c2                	slli	a5,a5,0x10
    561e:	83c1                	srli	a5,a5,0x10
    5620:	9bdd                	andi	a5,a5,-9
    5622:	07c2                	slli	a5,a5,0x10
    5624:	83c1                	srli	a5,a5,0x10
    5626:	80f71223          	sh	a5,-2044(a4)
    562a:	40003737          	lui	a4,0x40003
    562e:	80475783          	lhu	a5,-2044(a4) # 40002804 <_eusrstack+0x1fff2804>
    5632:	8ba1                	andi	a5,a5,8
    5634:	dfed                	beqz	a5,562e <RTC_WaitForSynchro+0x1a>
    5636:	8082                	ret

00005638 <RTC_ClearFlag>:
    5638:	400037b7          	lui	a5,0x40003
    563c:	8047d703          	lhu	a4,-2044(a5) # 40002804 <_eusrstack+0x1fff2804>
    5640:	fff54513          	not	a0,a0
    5644:	8d79                	and	a0,a0,a4
    5646:	80a79223          	sh	a0,-2044(a5)
    564a:	8082                	ret

0000564c <RTC_GetITStatus>:
    564c:	40003737          	lui	a4,0x40003
    5650:	80475783          	lhu	a5,-2044(a4) # 40002804 <_eusrstack+0x1fff2804>
    5654:	80075703          	lhu	a4,-2048(a4)
    5658:	07c2                	slli	a5,a5,0x10
    565a:	8f69                	and	a4,a4,a0
    565c:	83c1                	srli	a5,a5,0x10
    565e:	c709                	beqz	a4,5668 <RTC_GetITStatus+0x1c>
    5660:	8d7d                	and	a0,a0,a5
    5662:	00a03533          	snez	a0,a0
    5666:	8082                	ret
    5668:	4501                	li	a0,0
    566a:	8082                	ret

0000566c <RTC_ClearITPendingBit>:
    566c:	fcdff06f          	j	5638 <RTC_ClearFlag>

00005670 <SPI_Init>:
    5670:	00055703          	lhu	a4,0(a0)
    5674:	678d                	lui	a5,0x3
    5676:	04078793          	addi	a5,a5,64 # 3040 <esp8266_tencent_firmware_module_mqtt_conn+0x36>
    567a:	0025d683          	lhu	a3,2(a1)
    567e:	8f7d                	and	a4,a4,a5
    5680:	0005d783          	lhu	a5,0(a1)
    5684:	8fd5                	or	a5,a5,a3
    5686:	0045d683          	lhu	a3,4(a1)
    568a:	8fd5                	or	a5,a5,a3
    568c:	0065d683          	lhu	a3,6(a1)
    5690:	8fd5                	or	a5,a5,a3
    5692:	0085d683          	lhu	a3,8(a1)
    5696:	8fd5                	or	a5,a5,a3
    5698:	00a5d683          	lhu	a3,10(a1)
    569c:	8fd5                	or	a5,a5,a3
    569e:	00c5d683          	lhu	a3,12(a1)
    56a2:	8fd5                	or	a5,a5,a3
    56a4:	00e5d683          	lhu	a3,14(a1)
    56a8:	8fd5                	or	a5,a5,a3
    56aa:	8fd9                	or	a5,a5,a4
    56ac:	00f51023          	sh	a5,0(a0)
    56b0:	01c55703          	lhu	a4,28(a0)
    56b4:	77fd                	lui	a5,0xfffff
    56b6:	7ff78793          	addi	a5,a5,2047 # fffff7ff <_eusrstack+0xdffef7ff>
    56ba:	8ff9                	and	a5,a5,a4
    56bc:	00f51e23          	sh	a5,28(a0)
    56c0:	0105d783          	lhu	a5,16(a1)
    56c4:	00f51823          	sh	a5,16(a0)
    56c8:	8082                	ret

000056ca <SPI_Cmd>:
    56ca:	00055783          	lhu	a5,0(a0)
    56ce:	c591                	beqz	a1,56da <SPI_Cmd+0x10>
    56d0:	0407e793          	ori	a5,a5,64
    56d4:	00f51023          	sh	a5,0(a0)
    56d8:	8082                	ret
    56da:	07c2                	slli	a5,a5,0x10
    56dc:	83c1                	srli	a5,a5,0x10
    56de:	fbf7f793          	andi	a5,a5,-65
    56e2:	07c2                	slli	a5,a5,0x10
    56e4:	83c1                	srli	a5,a5,0x10
    56e6:	b7fd                	j	56d4 <SPI_Cmd+0xa>

000056e8 <USART_Init>:
    56e8:	01055683          	lhu	a3,16(a0)
    56ec:	77f5                	lui	a5,0xffffd
    56ee:	17fd                	addi	a5,a5,-1
    56f0:	8ff5                	and	a5,a5,a3
    56f2:	0065d683          	lhu	a3,6(a1)
    56f6:	7139                	addi	sp,sp,-64
    56f8:	dc22                	sw	s0,56(sp)
    56fa:	de06                	sw	ra,60(sp)
    56fc:	8fd5                	or	a5,a5,a3
    56fe:	00c5d703          	lhu	a4,12(a1)
    5702:	00f51823          	sh	a5,16(a0)
    5706:	00c55683          	lhu	a3,12(a0)
    570a:	77fd                	lui	a5,0xfffff
    570c:	9f378793          	addi	a5,a5,-1549 # ffffe9f3 <_eusrstack+0xdffee9f3>
    5710:	8ff5                	and	a5,a5,a3
    5712:	0045d683          	lhu	a3,4(a1)
    5716:	842a                	mv	s0,a0
    5718:	c62e                	sw	a1,12(sp)
    571a:	8fd5                	or	a5,a5,a3
    571c:	0085d683          	lhu	a3,8(a1)
    5720:	8fd5                	or	a5,a5,a3
    5722:	00a5d683          	lhu	a3,10(a1)
    5726:	8fd5                	or	a5,a5,a3
    5728:	00f51623          	sh	a5,12(a0)
    572c:	01455783          	lhu	a5,20(a0)
    5730:	07c2                	slli	a5,a5,0x10
    5732:	83c1                	srli	a5,a5,0x10
    5734:	cff7f793          	andi	a5,a5,-769
    5738:	8fd9                	or	a5,a5,a4
    573a:	00f51a23          	sh	a5,20(a0)
    573e:	0868                	addi	a0,sp,28
    5740:	c5fff0ef          	jal	ra,539e <RCC_GetClocksFreq>
    5744:	400147b7          	lui	a5,0x40014
    5748:	80078793          	addi	a5,a5,-2048 # 40013800 <_eusrstack+0x20003800>
    574c:	45b2                	lw	a1,12(sp)
    574e:	04f41e63          	bne	s0,a5,57aa <USART_Init+0xc2>
    5752:	57a2                	lw	a5,40(sp)
    5754:	00c45683          	lhu	a3,12(s0)
    5758:	4765                	li	a4,25
    575a:	02e787b3          	mul	a5,a5,a4
    575e:	06c2                	slli	a3,a3,0x10
    5760:	86c1                	srai	a3,a3,0x10
    5762:	4198                	lw	a4,0(a1)
    5764:	0406d563          	bgez	a3,57ae <USART_Init+0xc6>
    5768:	0706                	slli	a4,a4,0x1
    576a:	00c45603          	lhu	a2,12(s0)
    576e:	0642                	slli	a2,a2,0x10
    5770:	02e7d7b3          	divu	a5,a5,a4
    5774:	06400713          	li	a4,100
    5778:	8641                	srai	a2,a2,0x10
    577a:	02e7d6b3          	divu	a3,a5,a4
    577e:	02e7f7b3          	remu	a5,a5,a4
    5782:	0692                	slli	a3,a3,0x4
    5784:	02065763          	bgez	a2,57b2 <USART_Init+0xca>
    5788:	078e                	slli	a5,a5,0x3
    578a:	03278793          	addi	a5,a5,50
    578e:	02e7d7b3          	divu	a5,a5,a4
    5792:	0077f713          	andi	a4,a5,7
    5796:	00d767b3          	or	a5,a4,a3
    579a:	07c2                	slli	a5,a5,0x10
    579c:	83c1                	srli	a5,a5,0x10
    579e:	00f41423          	sh	a5,8(s0)
    57a2:	50f2                	lw	ra,60(sp)
    57a4:	5462                	lw	s0,56(sp)
    57a6:	6121                	addi	sp,sp,64
    57a8:	8082                	ret
    57aa:	5792                	lw	a5,36(sp)
    57ac:	b765                	j	5754 <USART_Init+0x6c>
    57ae:	070a                	slli	a4,a4,0x2
    57b0:	bf6d                	j	576a <USART_Init+0x82>
    57b2:	0792                	slli	a5,a5,0x4
    57b4:	03278793          	addi	a5,a5,50
    57b8:	02e7d7b3          	divu	a5,a5,a4
    57bc:	8bbd                	andi	a5,a5,15
    57be:	8fd5                	or	a5,a5,a3
    57c0:	bfe9                	j	579a <USART_Init+0xb2>

000057c2 <USART_Cmd>:
    57c2:	c981                	beqz	a1,57d2 <USART_Cmd+0x10>
    57c4:	00c55783          	lhu	a5,12(a0)
    57c8:	6709                	lui	a4,0x2
    57ca:	8fd9                	or	a5,a5,a4
    57cc:	00f51623          	sh	a5,12(a0)
    57d0:	8082                	ret
    57d2:	00c55703          	lhu	a4,12(a0)
    57d6:	77f9                	lui	a5,0xffffe
    57d8:	17fd                	addi	a5,a5,-1
    57da:	8ff9                	and	a5,a5,a4
    57dc:	bfc5                	j	57cc <USART_Cmd+0xa>

000057de <USART_ITConfig>:
    57de:	0ff5f713          	andi	a4,a1,255
    57e2:	4785                	li	a5,1
    57e4:	8315                	srli	a4,a4,0x5
    57e6:	00b795b3          	sll	a1,a5,a1
    57ea:	00f71963          	bne	a4,a5,57fc <USART_ITConfig+0x1e>
    57ee:	00c50793          	addi	a5,a0,12
    57f2:	4398                	lw	a4,0(a5)
    57f4:	ce01                	beqz	a2,580c <USART_ITConfig+0x2e>
    57f6:	8dd9                	or	a1,a1,a4
    57f8:	c38c                	sw	a1,0(a5)
    57fa:	8082                	ret
    57fc:	4689                	li	a3,2
    57fe:	01450793          	addi	a5,a0,20
    5802:	fed718e3          	bne	a4,a3,57f2 <USART_ITConfig+0x14>
    5806:	01050793          	addi	a5,a0,16
    580a:	b7e5                	j	57f2 <USART_ITConfig+0x14>
    580c:	fff5c593          	not	a1,a1
    5810:	8df9                	and	a1,a1,a4
    5812:	b7dd                	j	57f8 <USART_ITConfig+0x1a>

00005814 <USART_SendData>:
    5814:	1ff5f593          	andi	a1,a1,511
    5818:	00b51223          	sh	a1,4(a0)
    581c:	8082                	ret

0000581e <USART_ReceiveData>:
    581e:	00455503          	lhu	a0,4(a0)
    5822:	1ff57513          	andi	a0,a0,511
    5826:	8082                	ret

00005828 <USART_GetFlagStatus>:
    5828:	00055503          	lhu	a0,0(a0)
    582c:	8d6d                	and	a0,a0,a1
    582e:	00a03533          	snez	a0,a0
    5832:	8082                	ret

00005834 <USART_GetITStatus>:
    5834:	0ff5f713          	andi	a4,a1,255
    5838:	4685                	li	a3,1
    583a:	8315                	srli	a4,a4,0x5
    583c:	00b697b3          	sll	a5,a3,a1
    5840:	02d71363          	bne	a4,a3,5866 <USART_GetITStatus+0x32>
    5844:	00c55703          	lhu	a4,12(a0)
    5848:	8ff9                	and	a5,a5,a4
    584a:	00055703          	lhu	a4,0(a0)
    584e:	4501                	li	a0,0
    5850:	0742                	slli	a4,a4,0x10
    5852:	8341                	srli	a4,a4,0x10
    5854:	cb81                	beqz	a5,5864 <USART_GetITStatus+0x30>
    5856:	4505                	li	a0,1
    5858:	81a1                	srli	a1,a1,0x8
    585a:	00b515b3          	sll	a1,a0,a1
    585e:	8f6d                	and	a4,a4,a1
    5860:	00e03533          	snez	a0,a4
    5864:	8082                	ret
    5866:	4689                	li	a3,2
    5868:	00d71563          	bne	a4,a3,5872 <USART_GetITStatus+0x3e>
    586c:	01055703          	lhu	a4,16(a0)
    5870:	bfe1                	j	5848 <USART_GetITStatus+0x14>
    5872:	01455703          	lhu	a4,20(a0)
    5876:	bfc9                	j	5848 <USART_GetITStatus+0x14>

00005878 <Delay_Init>:
    5878:	81c1a783          	lw	a5,-2020(gp) # 2000026c <SystemCoreClock>
    587c:	007a1737          	lui	a4,0x7a1
    5880:	20070713          	addi	a4,a4,512 # 7a1200 <_data_lma+0x793438>
    5884:	02e7d7b3          	divu	a5,a5,a4
    5888:	0ff7f793          	andi	a5,a5,255
    588c:	86f18923          	sb	a5,-1934(gp) # 200002c2 <p_us>
    5890:	3e800713          	li	a4,1000
    5894:	02e787b3          	mul	a5,a5,a4
    5898:	86f19823          	sh	a5,-1936(gp) # 200002c0 <p_ms>
    589c:	8082                	ret

0000589e <Delay_Ms>:
    589e:	e000f7b7          	lui	a5,0xe000f
    58a2:	4741                	li	a4,16
    58a4:	c398                	sw	a4,0(a5)
    58a6:	8701d703          	lhu	a4,-1936(gp) # 200002c0 <p_ms>
    58aa:	4681                	li	a3,0
    58ac:	02a70633          	mul	a2,a4,a0
    58b0:	cb90                	sw	a2,16(a5)
    58b2:	cbd4                	sw	a3,20(a5)
    58b4:	4398                	lw	a4,0(a5)
    58b6:	02176713          	ori	a4,a4,33
    58ba:	c398                	sw	a4,0(a5)
    58bc:	43d8                	lw	a4,4(a5)
    58be:	8b05                	andi	a4,a4,1
    58c0:	df75                	beqz	a4,58bc <Delay_Ms+0x1e>
    58c2:	43d8                	lw	a4,4(a5)
    58c4:	9b79                	andi	a4,a4,-2
    58c6:	c3d8                	sw	a4,4(a5)
    58c8:	8082                	ret

000058ca <USART_Printf_Init>:
    58ca:	7179                	addi	sp,sp,-48
    58cc:	d422                	sw	s0,40(sp)
    58ce:	842a                	mv	s0,a0
    58d0:	6511                	lui	a0,0x4
    58d2:	4585                	li	a1,1
    58d4:	0511                	addi	a0,a0,4
    58d6:	d606                	sw	ra,44(sp)
    58d8:	bd5ff0ef          	jal	ra,54ac <RCC_APB2PeriphClockCmd>
    58dc:	20000793          	li	a5,512
    58e0:	00f11223          	sh	a5,4(sp)
    58e4:	40011537          	lui	a0,0x40011
    58e8:	478d                	li	a5,3
    58ea:	c43e                	sw	a5,8(sp)
    58ec:	004c                	addi	a1,sp,4
    58ee:	47e1                	li	a5,24
    58f0:	80050513          	addi	a0,a0,-2048 # 40010800 <_eusrstack+0x20000800>
    58f4:	c63e                	sw	a5,12(sp)
    58f6:	89bff0ef          	jal	ra,5190 <GPIO_Init>
    58fa:	c822                	sw	s0,16(sp)
    58fc:	40014437          	lui	s0,0x40014
    5900:	000807b7          	lui	a5,0x80
    5904:	080c                	addi	a1,sp,16
    5906:	80040513          	addi	a0,s0,-2048 # 40013800 <_eusrstack+0x20003800>
    590a:	cc3e                	sw	a5,24(sp)
    590c:	ca02                	sw	zero,20(sp)
    590e:	00011e23          	sh	zero,28(sp)
    5912:	dd7ff0ef          	jal	ra,56e8 <USART_Init>
    5916:	80040513          	addi	a0,s0,-2048
    591a:	4585                	li	a1,1
    591c:	ea7ff0ef          	jal	ra,57c2 <USART_Cmd>
    5920:	50b2                	lw	ra,44(sp)
    5922:	5422                	lw	s0,40(sp)
    5924:	6145                	addi	sp,sp,48
    5926:	8082                	ret

00005928 <_write>:
    5928:	1101                	addi	sp,sp,-32
    592a:	ca26                	sw	s1,20(sp)
    592c:	400144b7          	lui	s1,0x40014
    5930:	cc22                	sw	s0,24(sp)
    5932:	c84a                	sw	s2,16(sp)
    5934:	c64e                	sw	s3,12(sp)
    5936:	ce06                	sw	ra,28(sp)
    5938:	89ae                	mv	s3,a1
    593a:	8932                	mv	s2,a2
    593c:	4401                	li	s0,0
    593e:	80048493          	addi	s1,s1,-2048 # 40013800 <_eusrstack+0x20003800>
    5942:	01244a63          	blt	s0,s2,5956 <_write+0x2e>
    5946:	40f2                	lw	ra,28(sp)
    5948:	4462                	lw	s0,24(sp)
    594a:	854a                	mv	a0,s2
    594c:	44d2                	lw	s1,20(sp)
    594e:	4942                	lw	s2,16(sp)
    5950:	49b2                	lw	s3,12(sp)
    5952:	6105                	addi	sp,sp,32
    5954:	8082                	ret
    5956:	04000593          	li	a1,64
    595a:	8526                	mv	a0,s1
    595c:	ecdff0ef          	jal	ra,5828 <USART_GetFlagStatus>
    5960:	d97d                	beqz	a0,5956 <_write+0x2e>
    5962:	008987b3          	add	a5,s3,s0
    5966:	00078583          	lb	a1,0(a5) # 80000 <_data_lma+0x72238>
    596a:	8526                	mv	a0,s1
    596c:	0405                	addi	s0,s0,1
    596e:	05c2                	slli	a1,a1,0x10
    5970:	81c1                	srli	a1,a1,0x10
    5972:	ea3ff0ef          	jal	ra,5814 <USART_SendData>
    5976:	b7f1                	j	5942 <_write+0x1a>

00005978 <__get_MEPC>:
    5978:	34102573          	csrr	a0,mepc
    597c:	8082                	ret

0000597e <__get_MCAUSE>:
    597e:	34202573          	csrr	a0,mcause
    5982:	8082                	ret

00005984 <__get_MTVAL>:
    5984:	34302573          	csrr	a0,mtval
    5988:	8082                	ret

0000598a <lv_trigo_sin>:
    598a:	16800793          	li	a5,360
    598e:	02f56533          	rem	a0,a0,a5
    5992:	00055463          	bgez	a0,599a <lv_trigo_sin+0x10>
    5996:	16850513          	addi	a0,a0,360
    599a:	67b9                	lui	a5,0xe
    599c:	05900693          	li	a3,89
    59a0:	9c078793          	addi	a5,a5,-1600 # d9c0 <sin0_90_table>
    59a4:	00a6c763          	blt	a3,a0,59b2 <lv_trigo_sin+0x28>
    59a8:	0506                	slli	a0,a0,0x1
    59aa:	953e                	add	a0,a0,a5
    59ac:	00051503          	lh	a0,0(a0)
    59b0:	8082                	ret
    59b2:	0542                	slli	a0,a0,0x10
    59b4:	8141                	srli	a0,a0,0x10
    59b6:	fa650713          	addi	a4,a0,-90
    59ba:	0742                	slli	a4,a4,0x10
    59bc:	8341                	srli	a4,a4,0x10
    59be:	00e6ed63          	bltu	a3,a4,59d8 <lv_trigo_sin+0x4e>
    59c2:	0b400713          	li	a4,180
    59c6:	40a70533          	sub	a0,a4,a0
    59ca:	0542                	slli	a0,a0,0x10
    59cc:	8141                	srli	a0,a0,0x10
    59ce:	0506                	slli	a0,a0,0x1
    59d0:	97aa                	add	a5,a5,a0
    59d2:	00079503          	lh	a0,0(a5)
    59d6:	8082                	ret
    59d8:	f4c50713          	addi	a4,a0,-180
    59dc:	0742                	slli	a4,a4,0x10
    59de:	8341                	srli	a4,a4,0x10
    59e0:	00e6eb63          	bltu	a3,a4,59f6 <lv_trigo_sin+0x6c>
    59e4:	0706                	slli	a4,a4,0x1
    59e6:	97ba                	add	a5,a5,a4
    59e8:	0007d503          	lhu	a0,0(a5)
    59ec:	40a00533          	neg	a0,a0
    59f0:	0542                	slli	a0,a0,0x10
    59f2:	8541                	srai	a0,a0,0x10
    59f4:	8082                	ret
    59f6:	16800713          	li	a4,360
    59fa:	40a70533          	sub	a0,a4,a0
    59fe:	0542                	slli	a0,a0,0x10
    5a00:	8141                	srli	a0,a0,0x10
    5a02:	0506                	slli	a0,a0,0x1
    5a04:	97aa                	add	a5,a5,a0
    5a06:	b7cd                	j	59e8 <lv_trigo_sin+0x5e>

00005a08 <__clzsi2>:
    5a08:	67c1                	lui	a5,0x10
    5a0a:	02f57e63          	bgeu	a0,a5,5a46 <__clzsi2+0x3e>
    5a0e:	0ff00793          	li	a5,255
    5a12:	02000713          	li	a4,32
    5a16:	00a7ec63          	bltu	a5,a0,5a2e <__clzsi2+0x26>
    5a1a:	00008797          	auipc	a5,0x8
    5a1e:	05e78793          	addi	a5,a5,94 # da78 <__clz_tab>
    5a22:	97aa                	add	a5,a5,a0
    5a24:	0007c503          	lbu	a0,0(a5)
    5a28:	40a70533          	sub	a0,a4,a0
    5a2c:	8082                	ret
    5a2e:	8121                	srli	a0,a0,0x8
    5a30:	00008797          	auipc	a5,0x8
    5a34:	04878793          	addi	a5,a5,72 # da78 <__clz_tab>
    5a38:	97aa                	add	a5,a5,a0
    5a3a:	0007c503          	lbu	a0,0(a5)
    5a3e:	4761                	li	a4,24
    5a40:	40a70533          	sub	a0,a4,a0
    5a44:	8082                	ret
    5a46:	010007b7          	lui	a5,0x1000
    5a4a:	00f56e63          	bltu	a0,a5,5a66 <__clzsi2+0x5e>
    5a4e:	8161                	srli	a0,a0,0x18
    5a50:	00008797          	auipc	a5,0x8
    5a54:	02878793          	addi	a5,a5,40 # da78 <__clz_tab>
    5a58:	97aa                	add	a5,a5,a0
    5a5a:	0007c503          	lbu	a0,0(a5)
    5a5e:	4721                	li	a4,8
    5a60:	40a70533          	sub	a0,a4,a0
    5a64:	8082                	ret
    5a66:	8141                	srli	a0,a0,0x10
    5a68:	00008797          	auipc	a5,0x8
    5a6c:	01078793          	addi	a5,a5,16 # da78 <__clz_tab>
    5a70:	97aa                	add	a5,a5,a0
    5a72:	0007c503          	lbu	a0,0(a5)
    5a76:	4741                	li	a4,16
    5a78:	40a70533          	sub	a0,a4,a0
    5a7c:	8082                	ret

00005a7e <__udivdi3>:
    5a7e:	87b6                	mv	a5,a3
    5a80:	88b2                	mv	a7,a2
    5a82:	832a                	mv	t1,a0
    5a84:	882e                	mv	a6,a1
    5a86:	14069d63          	bnez	a3,5be0 <__udivdi3+0x162>
    5a8a:	0ac5f963          	bgeu	a1,a2,5b3c <__udivdi3+0xbe>
    5a8e:	6741                	lui	a4,0x10
    5a90:	1ae66e63          	bltu	a2,a4,5c4c <__udivdi3+0x1ce>
    5a94:	010007b7          	lui	a5,0x1000
    5a98:	34f66363          	bltu	a2,a5,5dde <__udivdi3+0x360>
    5a9c:	01865693          	srli	a3,a2,0x18
    5aa0:	47e1                	li	a5,24
    5aa2:	00008717          	auipc	a4,0x8
    5aa6:	fd670713          	addi	a4,a4,-42 # da78 <__clz_tab>
    5aaa:	9736                	add	a4,a4,a3
    5aac:	00074703          	lbu	a4,0(a4)
    5ab0:	97ba                	add	a5,a5,a4
    5ab2:	02000713          	li	a4,32
    5ab6:	8f1d                	sub	a4,a4,a5
    5ab8:	cb19                	beqz	a4,5ace <__udivdi3+0x50>
    5aba:	00e59833          	sll	a6,a1,a4
    5abe:	00f557b3          	srl	a5,a0,a5
    5ac2:	00e618b3          	sll	a7,a2,a4
    5ac6:	0107e833          	or	a6,a5,a6
    5aca:	00e51333          	sll	t1,a0,a4
    5ace:	0108d613          	srli	a2,a7,0x10
    5ad2:	02c85533          	divu	a0,a6,a2
    5ad6:	01089693          	slli	a3,a7,0x10
    5ada:	82c1                	srli	a3,a3,0x10
    5adc:	01035793          	srli	a5,t1,0x10
    5ae0:	02c87733          	remu	a4,a6,a2
    5ae4:	02a685b3          	mul	a1,a3,a0
    5ae8:	0742                	slli	a4,a4,0x10
    5aea:	00f76833          	or	a6,a4,a5
    5aee:	00b87a63          	bgeu	a6,a1,5b02 <__udivdi3+0x84>
    5af2:	9846                	add	a6,a6,a7
    5af4:	fff50793          	addi	a5,a0,-1
    5af8:	01186463          	bltu	a6,a7,5b00 <__udivdi3+0x82>
    5afc:	30b86763          	bltu	a6,a1,5e0a <__udivdi3+0x38c>
    5b00:	853e                	mv	a0,a5
    5b02:	40b80833          	sub	a6,a6,a1
    5b06:	02c85733          	divu	a4,a6,a2
    5b0a:	0342                	slli	t1,t1,0x10
    5b0c:	01035313          	srli	t1,t1,0x10
    5b10:	02c87833          	remu	a6,a6,a2
    5b14:	02e686b3          	mul	a3,a3,a4
    5b18:	0842                	slli	a6,a6,0x10
    5b1a:	00686833          	or	a6,a6,t1
    5b1e:	00d87b63          	bgeu	a6,a3,5b34 <__udivdi3+0xb6>
    5b22:	9846                	add	a6,a6,a7
    5b24:	fff70793          	addi	a5,a4,-1
    5b28:	01186563          	bltu	a6,a7,5b32 <__udivdi3+0xb4>
    5b2c:	1779                	addi	a4,a4,-2
    5b2e:	00d86363          	bltu	a6,a3,5b34 <__udivdi3+0xb6>
    5b32:	873e                	mv	a4,a5
    5b34:	0542                	slli	a0,a0,0x10
    5b36:	8d59                	or	a0,a0,a4
    5b38:	4581                	li	a1,0
    5b3a:	8082                	ret
    5b3c:	e601                	bnez	a2,5b44 <__udivdi3+0xc6>
    5b3e:	4705                	li	a4,1
    5b40:	02c758b3          	divu	a7,a4,a2
    5b44:	6741                	lui	a4,0x10
    5b46:	0ee8ea63          	bltu	a7,a4,5c3a <__udivdi3+0x1bc>
    5b4a:	010007b7          	lui	a5,0x1000
    5b4e:	28f8ec63          	bltu	a7,a5,5de6 <__udivdi3+0x368>
    5b52:	0188d693          	srli	a3,a7,0x18
    5b56:	47e1                	li	a5,24
    5b58:	00008717          	auipc	a4,0x8
    5b5c:	f2070713          	addi	a4,a4,-224 # da78 <__clz_tab>
    5b60:	9736                	add	a4,a4,a3
    5b62:	00074683          	lbu	a3,0(a4)
    5b66:	96be                	add	a3,a3,a5
    5b68:	02000793          	li	a5,32
    5b6c:	8f95                	sub	a5,a5,a3
    5b6e:	ebe5                	bnez	a5,5c5e <__udivdi3+0x1e0>
    5b70:	01089e93          	slli	t4,a7,0x10
    5b74:	41158733          	sub	a4,a1,a7
    5b78:	0108df13          	srli	t5,a7,0x10
    5b7c:	010ede93          	srli	t4,t4,0x10
    5b80:	4585                	li	a1,1
    5b82:	01035793          	srli	a5,t1,0x10
    5b86:	03e75533          	divu	a0,a4,t5
    5b8a:	03e77733          	remu	a4,a4,t5
    5b8e:	03d506b3          	mul	a3,a0,t4
    5b92:	0742                	slli	a4,a4,0x10
    5b94:	8fd9                	or	a5,a5,a4
    5b96:	00d7fa63          	bgeu	a5,a3,5baa <__udivdi3+0x12c>
    5b9a:	97c6                	add	a5,a5,a7
    5b9c:	fff50713          	addi	a4,a0,-1
    5ba0:	0117e463          	bltu	a5,a7,5ba8 <__udivdi3+0x12a>
    5ba4:	26d7e663          	bltu	a5,a3,5e10 <__udivdi3+0x392>
    5ba8:	853a                	mv	a0,a4
    5baa:	8f95                	sub	a5,a5,a3
    5bac:	03e7d733          	divu	a4,a5,t5
    5bb0:	0342                	slli	t1,t1,0x10
    5bb2:	01035313          	srli	t1,t1,0x10
    5bb6:	03e7f7b3          	remu	a5,a5,t5
    5bba:	03d70eb3          	mul	t4,a4,t4
    5bbe:	07c2                	slli	a5,a5,0x10
    5bc0:	0067e7b3          	or	a5,a5,t1
    5bc4:	01d7fb63          	bgeu	a5,t4,5bda <__udivdi3+0x15c>
    5bc8:	97c6                	add	a5,a5,a7
    5bca:	fff70693          	addi	a3,a4,-1
    5bce:	0117e563          	bltu	a5,a7,5bd8 <__udivdi3+0x15a>
    5bd2:	1779                	addi	a4,a4,-2
    5bd4:	01d7e363          	bltu	a5,t4,5bda <__udivdi3+0x15c>
    5bd8:	8736                	mv	a4,a3
    5bda:	0542                	slli	a0,a0,0x10
    5bdc:	8d59                	or	a0,a0,a4
    5bde:	8082                	ret
    5be0:	04d5e263          	bltu	a1,a3,5c24 <__udivdi3+0x1a6>
    5be4:	67c1                	lui	a5,0x10
    5be6:	04f6e263          	bltu	a3,a5,5c2a <__udivdi3+0x1ac>
    5bea:	010007b7          	lui	a5,0x1000
    5bee:	1ef6e463          	bltu	a3,a5,5dd6 <__udivdi3+0x358>
    5bf2:	0186d713          	srli	a4,a3,0x18
    5bf6:	4861                	li	a6,24
    5bf8:	00008797          	auipc	a5,0x8
    5bfc:	e8078793          	addi	a5,a5,-384 # da78 <__clz_tab>
    5c00:	97ba                	add	a5,a5,a4
    5c02:	0007c703          	lbu	a4,0(a5)
    5c06:	02000e13          	li	t3,32
    5c0a:	9742                	add	a4,a4,a6
    5c0c:	40ee0e33          	sub	t3,t3,a4
    5c10:	0c0e1a63          	bnez	t3,5ce4 <__udivdi3+0x266>
    5c14:	1cb6ed63          	bltu	a3,a1,5dee <__udivdi3+0x370>
    5c18:	00c53533          	sltu	a0,a0,a2
    5c1c:	00154513          	xori	a0,a0,1
    5c20:	4581                	li	a1,0
    5c22:	8082                	ret
    5c24:	4581                	li	a1,0
    5c26:	4501                	li	a0,0
    5c28:	8082                	ret
    5c2a:	0ff00793          	li	a5,255
    5c2e:	1cd7f363          	bgeu	a5,a3,5df4 <__udivdi3+0x376>
    5c32:	0086d713          	srli	a4,a3,0x8
    5c36:	4821                	li	a6,8
    5c38:	b7c1                	j	5bf8 <__udivdi3+0x17a>
    5c3a:	0ff00713          	li	a4,255
    5c3e:	86c6                	mv	a3,a7
    5c40:	f1177ce3          	bgeu	a4,a7,5b58 <__udivdi3+0xda>
    5c44:	0088d693          	srli	a3,a7,0x8
    5c48:	47a1                	li	a5,8
    5c4a:	b739                	j	5b58 <__udivdi3+0xda>
    5c4c:	0ff00713          	li	a4,255
    5c50:	86b2                	mv	a3,a2
    5c52:	e4c778e3          	bgeu	a4,a2,5aa2 <__udivdi3+0x24>
    5c56:	00865693          	srli	a3,a2,0x8
    5c5a:	47a1                	li	a5,8
    5c5c:	b599                	j	5aa2 <__udivdi3+0x24>
    5c5e:	00f898b3          	sll	a7,a7,a5
    5c62:	00d5d633          	srl	a2,a1,a3
    5c66:	0108df13          	srli	t5,a7,0x10
    5c6a:	03e65e33          	divu	t3,a2,t5
    5c6e:	00f59733          	sll	a4,a1,a5
    5c72:	00d556b3          	srl	a3,a0,a3
    5c76:	8f55                	or	a4,a4,a3
    5c78:	01089e93          	slli	t4,a7,0x10
    5c7c:	010ede93          	srli	t4,t4,0x10
    5c80:	00f51333          	sll	t1,a0,a5
    5c84:	01075593          	srli	a1,a4,0x10
    5c88:	03e676b3          	remu	a3,a2,t5
    5c8c:	03ce87b3          	mul	a5,t4,t3
    5c90:	06c2                	slli	a3,a3,0x10
    5c92:	8ecd                	or	a3,a3,a1
    5c94:	00f6fb63          	bgeu	a3,a5,5caa <__udivdi3+0x22c>
    5c98:	96c6                	add	a3,a3,a7
    5c9a:	fffe0613          	addi	a2,t3,-1
    5c9e:	1716e463          	bltu	a3,a7,5e06 <__udivdi3+0x388>
    5ca2:	16f6f263          	bgeu	a3,a5,5e06 <__udivdi3+0x388>
    5ca6:	1e79                	addi	t3,t3,-2
    5ca8:	96c6                	add	a3,a3,a7
    5caa:	8e9d                	sub	a3,a3,a5
    5cac:	03e6d633          	divu	a2,a3,t5
    5cb0:	01071793          	slli	a5,a4,0x10
    5cb4:	83c1                	srli	a5,a5,0x10
    5cb6:	03e6f6b3          	remu	a3,a3,t5
    5cba:	02ce8533          	mul	a0,t4,a2
    5cbe:	01069713          	slli	a4,a3,0x10
    5cc2:	8f5d                	or	a4,a4,a5
    5cc4:	00a77b63          	bgeu	a4,a0,5cda <__udivdi3+0x25c>
    5cc8:	9746                	add	a4,a4,a7
    5cca:	fff60793          	addi	a5,a2,-1 # 40020fff <_eusrstack+0x20010fff>
    5cce:	13176863          	bltu	a4,a7,5dfe <__udivdi3+0x380>
    5cd2:	12a77663          	bgeu	a4,a0,5dfe <__udivdi3+0x380>
    5cd6:	1679                	addi	a2,a2,-2
    5cd8:	9746                	add	a4,a4,a7
    5cda:	010e1593          	slli	a1,t3,0x10
    5cde:	8f09                	sub	a4,a4,a0
    5ce0:	8dd1                	or	a1,a1,a2
    5ce2:	b545                	j	5b82 <__udivdi3+0x104>
    5ce4:	00e657b3          	srl	a5,a2,a4
    5ce8:	01c696b3          	sll	a3,a3,t3
    5cec:	8edd                	or	a3,a3,a5
    5cee:	00e5d333          	srl	t1,a1,a4
    5cf2:	0106df13          	srli	t5,a3,0x10
    5cf6:	03e357b3          	divu	a5,t1,t5
    5cfa:	01069e93          	slli	t4,a3,0x10
    5cfe:	010ede93          	srli	t4,t4,0x10
    5d02:	01c59833          	sll	a6,a1,t3
    5d06:	00e55733          	srl	a4,a0,a4
    5d0a:	01076833          	or	a6,a4,a6
    5d0e:	01085893          	srli	a7,a6,0x10
    5d12:	01c61633          	sll	a2,a2,t3
    5d16:	03e37333          	remu	t1,t1,t5
    5d1a:	02fe85b3          	mul	a1,t4,a5
    5d1e:	0342                	slli	t1,t1,0x10
    5d20:	011368b3          	or	a7,t1,a7
    5d24:	00b8fb63          	bgeu	a7,a1,5d3a <__udivdi3+0x2bc>
    5d28:	98b6                	add	a7,a7,a3
    5d2a:	fff78713          	addi	a4,a5,-1
    5d2e:	0cd8ea63          	bltu	a7,a3,5e02 <__udivdi3+0x384>
    5d32:	0cb8f863          	bgeu	a7,a1,5e02 <__udivdi3+0x384>
    5d36:	17f9                	addi	a5,a5,-2
    5d38:	98b6                	add	a7,a7,a3
    5d3a:	40b888b3          	sub	a7,a7,a1
    5d3e:	03e8d733          	divu	a4,a7,t5
    5d42:	0842                	slli	a6,a6,0x10
    5d44:	01085813          	srli	a6,a6,0x10
    5d48:	03e8f8b3          	remu	a7,a7,t5
    5d4c:	02ee8333          	mul	t1,t4,a4
    5d50:	08c2                	slli	a7,a7,0x10
    5d52:	0108e5b3          	or	a1,a7,a6
    5d56:	0065fb63          	bgeu	a1,t1,5d6c <__udivdi3+0x2ee>
    5d5a:	95b6                	add	a1,a1,a3
    5d5c:	fff70813          	addi	a6,a4,-1
    5d60:	08d5ed63          	bltu	a1,a3,5dfa <__udivdi3+0x37c>
    5d64:	0865fb63          	bgeu	a1,t1,5dfa <__udivdi3+0x37c>
    5d68:	1779                	addi	a4,a4,-2
    5d6a:	95b6                	add	a1,a1,a3
    5d6c:	07c2                	slli	a5,a5,0x10
    5d6e:	6f41                	lui	t5,0x10
    5d70:	8fd9                	or	a5,a5,a4
    5d72:	ffff0713          	addi	a4,t5,-1 # ffff <_data_lma+0x2237>
    5d76:	00e7f6b3          	and	a3,a5,a4
    5d7a:	0107d893          	srli	a7,a5,0x10
    5d7e:	8f71                	and	a4,a4,a2
    5d80:	8241                	srli	a2,a2,0x10
    5d82:	02e68eb3          	mul	t4,a3,a4
    5d86:	406585b3          	sub	a1,a1,t1
    5d8a:	02c686b3          	mul	a3,a3,a2
    5d8e:	010ed813          	srli	a6,t4,0x10
    5d92:	02e88733          	mul	a4,a7,a4
    5d96:	96ba                	add	a3,a3,a4
    5d98:	96c2                	add	a3,a3,a6
    5d9a:	02c88633          	mul	a2,a7,a2
    5d9e:	00e6f363          	bgeu	a3,a4,5da4 <__udivdi3+0x326>
    5da2:	967a                	add	a2,a2,t5
    5da4:	0106d893          	srli	a7,a3,0x10
    5da8:	9646                	add	a2,a2,a7
    5daa:	02c5e263          	bltu	a1,a2,5dce <__udivdi3+0x350>
    5dae:	00c58563          	beq	a1,a2,5db8 <__udivdi3+0x33a>
    5db2:	853e                	mv	a0,a5
    5db4:	4581                	li	a1,0
    5db6:	8082                	ret
    5db8:	6741                	lui	a4,0x10
    5dba:	177d                	addi	a4,a4,-1
    5dbc:	8ef9                	and	a3,a3,a4
    5dbe:	06c2                	slli	a3,a3,0x10
    5dc0:	00eefeb3          	and	t4,t4,a4
    5dc4:	01c51533          	sll	a0,a0,t3
    5dc8:	96f6                	add	a3,a3,t4
    5dca:	fed574e3          	bgeu	a0,a3,5db2 <__udivdi3+0x334>
    5dce:	fff78513          	addi	a0,a5,-1
    5dd2:	4581                	li	a1,0
    5dd4:	8082                	ret
    5dd6:	0106d713          	srli	a4,a3,0x10
    5dda:	4841                	li	a6,16
    5ddc:	bd31                	j	5bf8 <__udivdi3+0x17a>
    5dde:	01065693          	srli	a3,a2,0x10
    5de2:	47c1                	li	a5,16
    5de4:	b97d                	j	5aa2 <__udivdi3+0x24>
    5de6:	0108d693          	srli	a3,a7,0x10
    5dea:	47c1                	li	a5,16
    5dec:	b3b5                	j	5b58 <__udivdi3+0xda>
    5dee:	4581                	li	a1,0
    5df0:	4505                	li	a0,1
    5df2:	8082                	ret
    5df4:	8736                	mv	a4,a3
    5df6:	4801                	li	a6,0
    5df8:	b501                	j	5bf8 <__udivdi3+0x17a>
    5dfa:	8742                	mv	a4,a6
    5dfc:	bf85                	j	5d6c <__udivdi3+0x2ee>
    5dfe:	863e                	mv	a2,a5
    5e00:	bde9                	j	5cda <__udivdi3+0x25c>
    5e02:	87ba                	mv	a5,a4
    5e04:	bf1d                	j	5d3a <__udivdi3+0x2bc>
    5e06:	8e32                	mv	t3,a2
    5e08:	b54d                	j	5caa <__udivdi3+0x22c>
    5e0a:	1579                	addi	a0,a0,-2
    5e0c:	9846                	add	a6,a6,a7
    5e0e:	b9d5                	j	5b02 <__udivdi3+0x84>
    5e10:	1579                	addi	a0,a0,-2
    5e12:	97c6                	add	a5,a5,a7
    5e14:	bb59                	j	5baa <__udivdi3+0x12c>

00005e16 <__adddf3>:
    5e16:	1101                	addi	sp,sp,-32
    5e18:	ce06                	sw	ra,28(sp)
    5e1a:	cc22                	sw	s0,24(sp)
    5e1c:	ca26                	sw	s1,20(sp)
    5e1e:	c84a                	sw	s2,16(sp)
    5e20:	c64e                	sw	s3,12(sp)
    5e22:	c452                	sw	s4,8(sp)
    5e24:	002029f3          	frrm	s3
    5e28:	001008b7          	lui	a7,0x100
    5e2c:	18fd                	addi	a7,a7,-1
    5e2e:	00b8f7b3          	and	a5,a7,a1
    5e32:	0146de13          	srli	t3,a3,0x14
    5e36:	00d8f8b3          	and	a7,a7,a3
    5e3a:	0145d413          	srli	s0,a1,0x14
    5e3e:	01d65313          	srli	t1,a2,0x1d
    5e42:	078e                	slli	a5,a5,0x3
    5e44:	01d55713          	srli	a4,a0,0x1d
    5e48:	088e                	slli	a7,a7,0x3
    5e4a:	01f5d913          	srli	s2,a1,0x1f
    5e4e:	7ff47413          	andi	s0,s0,2047
    5e52:	7ffe7593          	andi	a1,t3,2047
    5e56:	82fd                	srli	a3,a3,0x1f
    5e58:	011368b3          	or	a7,t1,a7
    5e5c:	8f5d                	or	a4,a4,a5
    5e5e:	00351813          	slli	a6,a0,0x3
    5e62:	00361e13          	slli	t3,a2,0x3
    5e66:	40b40333          	sub	t1,s0,a1
    5e6a:	1cd90563          	beq	s2,a3,6034 <__adddf3+0x21e>
    5e6e:	16605363          	blez	t1,5fd4 <__adddf3+0x1be>
    5e72:	20058763          	beqz	a1,6080 <__adddf3+0x26a>
    5e76:	008006b7          	lui	a3,0x800
    5e7a:	7ff00793          	li	a5,2047
    5e7e:	00d8e8b3          	or	a7,a7,a3
    5e82:	3ef40063          	beq	s0,a5,6262 <__adddf3+0x44c>
    5e86:	03800793          	li	a5,56
    5e8a:	3867c863          	blt	a5,t1,621a <__adddf3+0x404>
    5e8e:	47fd                	li	a5,31
    5e90:	5267cc63          	blt	a5,t1,63c8 <__adddf3+0x5b2>
    5e94:	02000793          	li	a5,32
    5e98:	406787b3          	sub	a5,a5,t1
    5e9c:	00f894b3          	sll	s1,a7,a5
    5ea0:	006e56b3          	srl	a3,t3,t1
    5ea4:	00fe17b3          	sll	a5,t3,a5
    5ea8:	8cd5                	or	s1,s1,a3
    5eaa:	00f03e33          	snez	t3,a5
    5eae:	0068d8b3          	srl	a7,a7,t1
    5eb2:	01c4e4b3          	or	s1,s1,t3
    5eb6:	41170733          	sub	a4,a4,a7
    5eba:	409804b3          	sub	s1,a6,s1
    5ebe:	00983833          	sltu	a6,a6,s1
    5ec2:	41070733          	sub	a4,a4,a6
    5ec6:	00871793          	slli	a5,a4,0x8
    5eca:	2407d863          	bgez	a5,611a <__adddf3+0x304>
    5ece:	00971a13          	slli	s4,a4,0x9
    5ed2:	009a5a13          	srli	s4,s4,0x9
    5ed6:	300a0a63          	beqz	s4,61ea <__adddf3+0x3d4>
    5eda:	8552                	mv	a0,s4
    5edc:	b2dff0ef          	jal	ra,5a08 <__clzsi2>
    5ee0:	1561                	addi	a0,a0,-8
    5ee2:	02000793          	li	a5,32
    5ee6:	8f89                	sub	a5,a5,a0
    5ee8:	00aa1733          	sll	a4,s4,a0
    5eec:	00f4d7b3          	srl	a5,s1,a5
    5ef0:	8fd9                	or	a5,a5,a4
    5ef2:	00a49a33          	sll	s4,s1,a0
    5ef6:	30854763          	blt	a0,s0,6204 <__adddf3+0x3ee>
    5efa:	8d01                	sub	a0,a0,s0
    5efc:	00150713          	addi	a4,a0,1
    5f00:	46fd                	li	a3,31
    5f02:	48e6ce63          	blt	a3,a4,639e <__adddf3+0x588>
    5f06:	02000693          	li	a3,32
    5f0a:	8e99                	sub	a3,a3,a4
    5f0c:	00d794b3          	sll	s1,a5,a3
    5f10:	00ea5633          	srl	a2,s4,a4
    5f14:	00da16b3          	sll	a3,s4,a3
    5f18:	8cd1                	or	s1,s1,a2
    5f1a:	00d036b3          	snez	a3,a3
    5f1e:	8cd5                	or	s1,s1,a3
    5f20:	00e7d733          	srl	a4,a5,a4
    5f24:	00e4e7b3          	or	a5,s1,a4
    5f28:	cff5                	beqz	a5,6024 <__adddf3+0x20e>
    5f2a:	0074f793          	andi	a5,s1,7
    5f2e:	00149593          	slli	a1,s1,0x1
    5f32:	00171613          	slli	a2,a4,0x1
    5f36:	01f4d693          	srli	a3,s1,0x1f
    5f3a:	0075f513          	andi	a0,a1,7
    5f3e:	96b2                	add	a3,a3,a2
    5f40:	4301                	li	t1,0
    5f42:	c911                	beqz	a0,5f56 <__adddf3+0x140>
    5f44:	4609                	li	a2,2
    5f46:	60c98363          	beq	s3,a2,654c <__adddf3+0x736>
    5f4a:	460d                	li	a2,3
    5f4c:	4305                	li	t1,1
    5f4e:	62c98363          	beq	s3,a2,6574 <__adddf3+0x75e>
    5f52:	60098663          	beqz	s3,655e <__adddf3+0x748>
    5f56:	01000637          	lui	a2,0x1000
    5f5a:	8ef1                	and	a3,a3,a2
    5f5c:	0016b613          	seqz	a2,a3
    5f60:	0a0786e3          	beqz	a5,680c <__adddf3+0x9f6>
    5f64:	4401                	li	s0,0
    5f66:	4789                	li	a5,2
    5f68:	24f98e63          	beq	s3,a5,61c4 <__adddf3+0x3ae>
    5f6c:	478d                	li	a5,3
    5f6e:	4305                	li	t1,1
    5f70:	26f98a63          	beq	s3,a5,61e4 <__adddf3+0x3ce>
    5f74:	22098c63          	beqz	s3,61ac <__adddf3+0x396>
    5f78:	008007b7          	lui	a5,0x800
    5f7c:	8ff9                	and	a5,a5,a4
    5f7e:	c219                	beqz	a2,5f84 <__adddf3+0x16e>
    5f80:	00236313          	ori	t1,t1,2
    5f84:	060787e3          	beqz	a5,67f2 <__adddf3+0x9dc>
    5f88:	0405                	addi	s0,s0,1
    5f8a:	7ff00793          	li	a5,2047
    5f8e:	1af40863          	beq	s0,a5,613e <__adddf3+0x328>
    5f92:	ff8007b7          	lui	a5,0xff800
    5f96:	17fd                	addi	a5,a5,-1
    5f98:	8ff9                	and	a5,a5,a4
    5f9a:	01d79813          	slli	a6,a5,0x1d
    5f9e:	808d                	srli	s1,s1,0x3
    5fa0:	07a6                	slli	a5,a5,0x9
    5fa2:	00986833          	or	a6,a6,s1
    5fa6:	83b1                	srli	a5,a5,0xc
    5fa8:	7ff47413          	andi	s0,s0,2047
    5fac:	00c79713          	slli	a4,a5,0xc
    5fb0:	0452                	slli	s0,s0,0x14
    5fb2:	8331                	srli	a4,a4,0xc
    5fb4:	097e                	slli	s2,s2,0x1f
    5fb6:	8f41                	or	a4,a4,s0
    5fb8:	01276733          	or	a4,a4,s2
    5fbc:	8542                	mv	a0,a6
    5fbe:	85ba                	mv	a1,a4
    5fc0:	28031563          	bnez	t1,624a <__adddf3+0x434>
    5fc4:	40f2                	lw	ra,28(sp)
    5fc6:	4462                	lw	s0,24(sp)
    5fc8:	44d2                	lw	s1,20(sp)
    5fca:	4942                	lw	s2,16(sp)
    5fcc:	49b2                	lw	s3,12(sp)
    5fce:	4a22                	lw	s4,8(sp)
    5fd0:	6105                	addi	sp,sp,32
    5fd2:	8082                	ret
    5fd4:	0c031463          	bnez	t1,609c <__adddf3+0x286>
    5fd8:	00140793          	addi	a5,s0,1
    5fdc:	7fe7f793          	andi	a5,a5,2046
    5fe0:	2c079163          	bnez	a5,62a2 <__adddf3+0x48c>
    5fe4:	01076eb3          	or	t4,a4,a6
    5fe8:	01c8e7b3          	or	a5,a7,t3
    5fec:	5c041463          	bnez	s0,65b4 <__adddf3+0x79e>
    5ff0:	4e0e8663          	beqz	t4,64dc <__adddf3+0x6c6>
    5ff4:	4e078a63          	beqz	a5,64e8 <__adddf3+0x6d2>
    5ff8:	41c805b3          	sub	a1,a6,t3
    5ffc:	00b837b3          	sltu	a5,a6,a1
    6000:	41170633          	sub	a2,a4,a7
    6004:	8e1d                	sub	a2,a2,a5
    6006:	00861793          	slli	a5,a2,0x8
    600a:	6e07d863          	bgez	a5,66fa <__adddf3+0x8e4>
    600e:	410e04b3          	sub	s1,t3,a6
    6012:	009e37b3          	sltu	a5,t3,s1
    6016:	40e88733          	sub	a4,a7,a4
    601a:	8f1d                	sub	a4,a4,a5
    601c:	00e4e7b3          	or	a5,s1,a4
    6020:	8936                	mv	s2,a3
    6022:	f781                	bnez	a5,5f2a <__adddf3+0x114>
    6024:	4801                	li	a6,0
    6026:	4401                	li	s0,0
    6028:	4301                	li	t1,0
    602a:	07b2                	slli	a5,a5,0xc
    602c:	83b1                	srli	a5,a5,0xc
    602e:	7ff47413          	andi	s0,s0,2047
    6032:	bfad                	j	5fac <__adddf3+0x196>
    6034:	12605663          	blez	t1,6160 <__adddf3+0x34a>
    6038:	c9dd                	beqz	a1,60ee <__adddf3+0x2d8>
    603a:	008006b7          	lui	a3,0x800
    603e:	7ff00793          	li	a5,2047
    6042:	00d8e8b3          	or	a7,a7,a3
    6046:	20f40e63          	beq	s0,a5,6262 <__adddf3+0x44c>
    604a:	03800793          	li	a5,56
    604e:	3067c663          	blt	a5,t1,635a <__adddf3+0x544>
    6052:	47fd                	li	a5,31
    6054:	3e67da63          	bge	a5,t1,6448 <__adddf3+0x632>
    6058:	fe030493          	addi	s1,t1,-32
    605c:	02000693          	li	a3,32
    6060:	0098d7b3          	srl	a5,a7,s1
    6064:	00d30a63          	beq	t1,a3,6078 <__adddf3+0x262>
    6068:	04000693          	li	a3,64
    606c:	40668333          	sub	t1,a3,t1
    6070:	006898b3          	sll	a7,a7,t1
    6074:	011e6e33          	or	t3,t3,a7
    6078:	01c034b3          	snez	s1,t3
    607c:	8cdd                	or	s1,s1,a5
    607e:	a4d5                	j	6362 <__adddf3+0x54c>
    6080:	01c8e7b3          	or	a5,a7,t3
    6084:	1a078063          	beqz	a5,6224 <__adddf3+0x40e>
    6088:	fff30793          	addi	a5,t1,-1
    608c:	48078363          	beqz	a5,6512 <__adddf3+0x6fc>
    6090:	7ff00693          	li	a3,2047
    6094:	1cd30763          	beq	t1,a3,6262 <__adddf3+0x44c>
    6098:	833e                	mv	t1,a5
    609a:	b3f5                	j	5e86 <__adddf3+0x70>
    609c:	408587b3          	sub	a5,a1,s0
    60a0:	28041163          	bnez	s0,6322 <__adddf3+0x50c>
    60a4:	01076533          	or	a0,a4,a6
    60a8:	c12d                	beqz	a0,610a <__adddf3+0x2f4>
    60aa:	fff78513          	addi	a0,a5,-1 # ff7fffff <_eusrstack+0xdf7effff>
    60ae:	56050d63          	beqz	a0,6628 <__adddf3+0x812>
    60b2:	7ff00313          	li	t1,2047
    60b6:	42678b63          	beq	a5,t1,64ec <__adddf3+0x6d6>
    60ba:	87aa                	mv	a5,a0
    60bc:	03800613          	li	a2,56
    60c0:	32f64863          	blt	a2,a5,63f0 <__adddf3+0x5da>
    60c4:	467d                	li	a2,31
    60c6:	52f64d63          	blt	a2,a5,6600 <__adddf3+0x7ea>
    60ca:	02000613          	li	a2,32
    60ce:	8e1d                	sub	a2,a2,a5
    60d0:	00c714b3          	sll	s1,a4,a2
    60d4:	00f85533          	srl	a0,a6,a5
    60d8:	00c81633          	sll	a2,a6,a2
    60dc:	8cc9                	or	s1,s1,a0
    60de:	00c03633          	snez	a2,a2
    60e2:	00f757b3          	srl	a5,a4,a5
    60e6:	8cd1                	or	s1,s1,a2
    60e8:	40f888b3          	sub	a7,a7,a5
    60ec:	a631                	j	63f8 <__adddf3+0x5e2>
    60ee:	01c8e7b3          	or	a5,a7,t3
    60f2:	12078963          	beqz	a5,6224 <__adddf3+0x40e>
    60f6:	fff30793          	addi	a5,t1,-1
    60fa:	36078a63          	beqz	a5,646e <__adddf3+0x658>
    60fe:	7ff00693          	li	a3,2047
    6102:	4cd30e63          	beq	t1,a3,65de <__adddf3+0x7c8>
    6106:	833e                	mv	t1,a5
    6108:	b789                	j	604a <__adddf3+0x234>
    610a:	7ff00713          	li	a4,2047
    610e:	62e78b63          	beq	a5,a4,6744 <__adddf3+0x92e>
    6112:	8746                	mv	a4,a7
    6114:	84f2                	mv	s1,t3
    6116:	843e                	mv	s0,a5
    6118:	8936                	mv	s2,a3
    611a:	00e4e7b3          	or	a5,s1,a4
    611e:	e00405e3          	beqz	s0,5f28 <__adddf3+0x112>
    6122:	0074f793          	andi	a5,s1,7
    6126:	4601                	li	a2,0
    6128:	e2079fe3          	bnez	a5,5f66 <__adddf3+0x150>
    612c:	008007b7          	lui	a5,0x800
    6130:	8ff9                	and	a5,a5,a4
    6132:	4301                	li	t1,0
    6134:	bd81                	j	5f84 <__adddf3+0x16e>
    6136:	478d                	li	a5,3
    6138:	0af98063          	beq	s3,a5,61d8 <__adddf3+0x3c2>
    613c:	4315                	li	t1,5
    613e:	10098b63          	beqz	s3,6254 <__adddf3+0x43e>
    6142:	478d                	li	a5,3
    6144:	10f98663          	beq	s3,a5,6250 <__adddf3+0x43a>
    6148:	4789                	li	a5,2
    614a:	34f98d63          	beq	s3,a5,64a4 <__adddf3+0x68e>
    614e:	00536313          	ori	t1,t1,5
    6152:	200007b7          	lui	a5,0x20000
    6156:	587d                	li	a6,-1
    6158:	17fd                	addi	a5,a5,-1
    615a:	7fe00413          	li	s0,2046
    615e:	b5f1                	j	602a <__adddf3+0x214>
    6160:	16031863          	bnez	t1,62d0 <__adddf3+0x4ba>
    6164:	00140693          	addi	a3,s0,1
    6168:	7fe6f793          	andi	a5,a3,2046
    616c:	40079763          	bnez	a5,657a <__adddf3+0x764>
    6170:	010766b3          	or	a3,a4,a6
    6174:	32041d63          	bnez	s0,64ae <__adddf3+0x698>
    6178:	01c8e7b3          	or	a5,a7,t3
    617c:	4a068f63          	beqz	a3,663a <__adddf3+0x824>
    6180:	36078463          	beqz	a5,64e8 <__adddf3+0x6d2>
    6184:	01c804b3          	add	s1,a6,t3
    6188:	011707b3          	add	a5,a4,a7
    618c:	0104b833          	sltu	a6,s1,a6
    6190:	01078733          	add	a4,a5,a6
    6194:	00871793          	slli	a5,a4,0x8
    6198:	d807d6e3          	bgez	a5,5f24 <__adddf3+0x10e>
    619c:	ff8007b7          	lui	a5,0xff800
    61a0:	17fd                	addi	a5,a5,-1
    61a2:	8f7d                	and	a4,a4,a5
    61a4:	4405                	li	s0,1
    61a6:	0074f793          	andi	a5,s1,7
    61aa:	bfb5                	j	6126 <__adddf3+0x310>
    61ac:	00f4f793          	andi	a5,s1,15
    61b0:	4691                	li	a3,4
    61b2:	dcd783e3          	beq	a5,a3,5f78 <__adddf3+0x162>
    61b6:	00448793          	addi	a5,s1,4
    61ba:	0097b4b3          	sltu	s1,a5,s1
    61be:	9726                	add	a4,a4,s1
    61c0:	84be                	mv	s1,a5
    61c2:	bb5d                	j	5f78 <__adddf3+0x162>
    61c4:	4305                	li	t1,1
    61c6:	da0909e3          	beqz	s2,5f78 <__adddf3+0x162>
    61ca:	00848793          	addi	a5,s1,8
    61ce:	0097b4b3          	sltu	s1,a5,s1
    61d2:	9726                	add	a4,a4,s1
    61d4:	84be                	mv	s1,a5
    61d6:	b34d                	j	5f78 <__adddf3+0x162>
    61d8:	577d                	li	a4,-1
    61da:	54fd                	li	s1,-1
    61dc:	7fe00413          	li	s0,2046
    61e0:	4601                	li	a2,0
    61e2:	4315                	li	t1,5
    61e4:	fe0903e3          	beqz	s2,61ca <__adddf3+0x3b4>
    61e8:	bb41                	j	5f78 <__adddf3+0x162>
    61ea:	8526                	mv	a0,s1
    61ec:	81dff0ef          	jal	ra,5a08 <__clzsi2>
    61f0:	ff850793          	addi	a5,a0,-8
    61f4:	477d                	li	a4,31
    61f6:	0561                	addi	a0,a0,24
    61f8:	00f497b3          	sll	a5,s1,a5
    61fc:	cea753e3          	bge	a4,a0,5ee2 <__adddf3+0xcc>
    6200:	ce855de3          	bge	a0,s0,5efa <__adddf3+0xe4>
    6204:	ff800737          	lui	a4,0xff800
    6208:	177d                	addi	a4,a4,-1
    620a:	8f7d                	and	a4,a4,a5
    620c:	84d2                	mv	s1,s4
    620e:	8c09                	sub	s0,s0,a0
    6210:	00e4e7b3          	or	a5,s1,a4
    6214:	d0040ae3          	beqz	s0,5f28 <__adddf3+0x112>
    6218:	b729                	j	6122 <__adddf3+0x30c>
    621a:	01c8e8b3          	or	a7,a7,t3
    621e:	011034b3          	snez	s1,a7
    6222:	b961                	j	5eba <__adddf3+0xa4>
    6224:	7ff00793          	li	a5,2047
    6228:	30f30363          	beq	t1,a5,652e <__adddf3+0x718>
    622c:	008007b7          	lui	a5,0x800
    6230:	841a                	mv	s0,t1
    6232:	8ff9                	and	a5,a5,a4
    6234:	84c2                	mv	s1,a6
    6236:	4301                	li	t1,0
    6238:	b3b1                	j	5f84 <__adddf3+0x16e>
    623a:	46858863          	beq	a1,s0,66aa <__adddf3+0x894>
    623e:	46079f63          	bnez	a5,66bc <__adddf3+0x8a6>
    6242:	4501                	li	a0,0
    6244:	7ff805b7          	lui	a1,0x7ff80
    6248:	4341                	li	t1,16
    624a:	00132073          	csrs	fflags,t1
    624e:	bb9d                	j	5fc4 <__adddf3+0x1ae>
    6250:	ee091fe3          	bnez	s2,614e <__adddf3+0x338>
    6254:	00536313          	ori	t1,t1,5
    6258:	7ff00413          	li	s0,2047
    625c:	4781                	li	a5,0
    625e:	4801                	li	a6,0
    6260:	b3b1                	j	5fac <__adddf3+0x196>
    6262:	01076833          	or	a6,a4,a6
    6266:	02080c63          	beqz	a6,629e <__adddf3+0x488>
    626a:	00400337          	lui	t1,0x400
    626e:	050e                	slli	a0,a0,0x3
    6270:	00677333          	and	t1,a4,t1
    6274:	01d71813          	slli	a6,a4,0x1d
    6278:	810d                	srli	a0,a0,0x3
    627a:	00133313          	seqz	t1,t1
    627e:	00a86833          	or	a6,a6,a0
    6282:	00375793          	srli	a5,a4,0x3
    6286:	0312                	slli	t1,t1,0x4
    6288:	0107e7b3          	or	a5,a5,a6
    628c:	d7f1                	beqz	a5,6258 <__adddf3+0x442>
    628e:	4901                	li	s2,0
    6290:	7ff00413          	li	s0,2047
    6294:	000807b7          	lui	a5,0x80
    6298:	4801                	li	a6,0
    629a:	bb09                	j	5fac <__adddf3+0x196>
    629c:	8936                	mv	s2,a3
    629e:	4301                	li	t1,0
    62a0:	bf65                	j	6258 <__adddf3+0x442>
    62a2:	41c804b3          	sub	s1,a6,t3
    62a6:	009837b3          	sltu	a5,a6,s1
    62aa:	41170a33          	sub	s4,a4,a7
    62ae:	40fa0a33          	sub	s4,s4,a5
    62b2:	008a1793          	slli	a5,s4,0x8
    62b6:	2e07c563          	bltz	a5,65a0 <__adddf3+0x78a>
    62ba:	0144e7b3          	or	a5,s1,s4
    62be:	c0079ce3          	bnez	a5,5ed6 <__adddf3+0xc0>
    62c2:	ffe98913          	addi	s2,s3,-2
    62c6:	00193913          	seqz	s2,s2
    62ca:	4801                	li	a6,0
    62cc:	4401                	li	s0,0
    62ce:	bbb1                	j	602a <__adddf3+0x214>
    62d0:	408587b3          	sub	a5,a1,s0
    62d4:	12040b63          	beqz	s0,640a <__adddf3+0x5f4>
    62d8:	00800537          	lui	a0,0x800
    62dc:	7ff00693          	li	a3,2047
    62e0:	8f49                	or	a4,a4,a0
    62e2:	34d58f63          	beq	a1,a3,6640 <__adddf3+0x82a>
    62e6:	03800693          	li	a3,56
    62ea:	30f6c663          	blt	a3,a5,65f6 <__adddf3+0x7e0>
    62ee:	46fd                	li	a3,31
    62f0:	40f6cf63          	blt	a3,a5,670e <__adddf3+0x8f8>
    62f4:	02000693          	li	a3,32
    62f8:	8e9d                	sub	a3,a3,a5
    62fa:	00d714b3          	sll	s1,a4,a3
    62fe:	00f85633          	srl	a2,a6,a5
    6302:	00d816b3          	sll	a3,a6,a3
    6306:	8cd1                	or	s1,s1,a2
    6308:	00d036b3          	snez	a3,a3
    630c:	00f757b3          	srl	a5,a4,a5
    6310:	8cd5                	or	s1,s1,a3
    6312:	98be                	add	a7,a7,a5
    6314:	94f2                	add	s1,s1,t3
    6316:	01c4b7b3          	sltu	a5,s1,t3
    631a:	01178733          	add	a4,a5,a7
    631e:	842e                	mv	s0,a1
    6320:	a0a9                	j	636a <__adddf3+0x554>
    6322:	00800337          	lui	t1,0x800
    6326:	7ff00513          	li	a0,2047
    632a:	00676733          	or	a4,a4,t1
    632e:	d8a597e3          	bne	a1,a0,60bc <__adddf3+0x2a6>
    6332:	01c8e7b3          	or	a5,a7,t3
    6336:	d3bd                	beqz	a5,629c <__adddf3+0x486>
    6338:	00361813          	slli	a6,a2,0x3
    633c:	01d89793          	slli	a5,a7,0x1d
    6340:	00385813          	srli	a6,a6,0x3
    6344:	00989713          	slli	a4,a7,0x9
    6348:	00f86833          	or	a6,a6,a5
    634c:	8936                	mv	s2,a3
    634e:	0038d793          	srli	a5,a7,0x3
    6352:	1a074e63          	bltz	a4,650e <__adddf3+0x6f8>
    6356:	4341                	li	t1,16
    6358:	bf05                	j	6288 <__adddf3+0x472>
    635a:	01c8e8b3          	or	a7,a7,t3
    635e:	011034b3          	snez	s1,a7
    6362:	94c2                	add	s1,s1,a6
    6364:	0104b833          	sltu	a6,s1,a6
    6368:	9742                	add	a4,a4,a6
    636a:	00871793          	slli	a5,a4,0x8
    636e:	da07d6e3          	bgez	a5,611a <__adddf3+0x304>
    6372:	0405                	addi	s0,s0,1
    6374:	7ff00793          	li	a5,2047
    6378:	0af40763          	beq	s0,a5,6426 <__adddf3+0x610>
    637c:	ff8007b7          	lui	a5,0xff800
    6380:	17fd                	addi	a5,a5,-1
    6382:	8ff9                	and	a5,a5,a4
    6384:	0014d713          	srli	a4,s1,0x1
    6388:	8885                	andi	s1,s1,1
    638a:	8cd9                	or	s1,s1,a4
    638c:	01f79813          	slli	a6,a5,0x1f
    6390:	009864b3          	or	s1,a6,s1
    6394:	0017d713          	srli	a4,a5,0x1
    6398:	0074f793          	andi	a5,s1,7
    639c:	b369                	j	6126 <__adddf3+0x310>
    639e:	1505                	addi	a0,a0,-31
    63a0:	02000693          	li	a3,32
    63a4:	00a7d533          	srl	a0,a5,a0
    63a8:	00d70a63          	beq	a4,a3,63bc <__adddf3+0x5a6>
    63ac:	04000693          	li	a3,64
    63b0:	40e68733          	sub	a4,a3,a4
    63b4:	00e797b3          	sll	a5,a5,a4
    63b8:	00fa6a33          	or	s4,s4,a5
    63bc:	014037b3          	snez	a5,s4
    63c0:	8fc9                	or	a5,a5,a0
    63c2:	84be                	mv	s1,a5
    63c4:	4701                	li	a4,0
    63c6:	b68d                	j	5f28 <__adddf3+0x112>
    63c8:	fe030493          	addi	s1,t1,-32 # 7fffe0 <_data_lma+0x7f2218>
    63cc:	02000693          	li	a3,32
    63d0:	0098d7b3          	srl	a5,a7,s1
    63d4:	00d30a63          	beq	t1,a3,63e8 <__adddf3+0x5d2>
    63d8:	04000693          	li	a3,64
    63dc:	40668333          	sub	t1,a3,t1
    63e0:	006898b3          	sll	a7,a7,t1
    63e4:	011e6e33          	or	t3,t3,a7
    63e8:	01c034b3          	snez	s1,t3
    63ec:	8cdd                	or	s1,s1,a5
    63ee:	b4f1                	j	5eba <__adddf3+0xa4>
    63f0:	010764b3          	or	s1,a4,a6
    63f4:	009034b3          	snez	s1,s1
    63f8:	409e04b3          	sub	s1,t3,s1
    63fc:	009e37b3          	sltu	a5,t3,s1
    6400:	40f88733          	sub	a4,a7,a5
    6404:	842e                	mv	s0,a1
    6406:	8936                	mv	s2,a3
    6408:	bc7d                	j	5ec6 <__adddf3+0xb0>
    640a:	010766b3          	or	a3,a4,a6
    640e:	24068d63          	beqz	a3,6668 <__adddf3+0x852>
    6412:	fff78693          	addi	a3,a5,-1 # ff7fffff <_eusrstack+0xdf7effff>
    6416:	32068063          	beqz	a3,6736 <__adddf3+0x920>
    641a:	7ff00513          	li	a0,2047
    641e:	22a78163          	beq	a5,a0,6640 <__adddf3+0x82a>
    6422:	87b6                	mv	a5,a3
    6424:	b5c9                	j	62e6 <__adddf3+0x4d0>
    6426:	1a098a63          	beqz	s3,65da <__adddf3+0x7c4>
    642a:	478d                	li	a5,3
    642c:	38f98c63          	beq	s3,a5,67c4 <__adddf3+0x9ae>
    6430:	4789                	li	a5,2
    6432:	38f98063          	beq	s3,a5,67b2 <__adddf3+0x99c>
    6436:	d00990e3          	bnez	s3,6136 <__adddf3+0x320>
    643a:	4601                	li	a2,0
    643c:	54fd                	li	s1,-1
    643e:	4315                	li	t1,5
    6440:	7fe00413          	li	s0,2046
    6444:	577d                	li	a4,-1
    6446:	bb85                	j	61b6 <__adddf3+0x3a0>
    6448:	02000793          	li	a5,32
    644c:	406787b3          	sub	a5,a5,t1
    6450:	00f894b3          	sll	s1,a7,a5
    6454:	006e56b3          	srl	a3,t3,t1
    6458:	00fe17b3          	sll	a5,t3,a5
    645c:	8cd5                	or	s1,s1,a3
    645e:	00f03e33          	snez	t3,a5
    6462:	0068d8b3          	srl	a7,a7,t1
    6466:	01c4e4b3          	or	s1,s1,t3
    646a:	9746                	add	a4,a4,a7
    646c:	bddd                	j	6362 <__adddf3+0x54c>
    646e:	01c804b3          	add	s1,a6,t3
    6472:	011707b3          	add	a5,a4,a7
    6476:	0104b833          	sltu	a6,s1,a6
    647a:	01078733          	add	a4,a5,a6
    647e:	00871793          	slli	a5,a4,0x8
    6482:	4405                	li	s0,1
    6484:	c807dfe3          	bgez	a5,6122 <__adddf3+0x30c>
    6488:	ff8007b7          	lui	a5,0xff800
    648c:	17fd                	addi	a5,a5,-1
    648e:	8ff9                	and	a5,a5,a4
    6490:	01f79713          	slli	a4,a5,0x1f
    6494:	8085                	srli	s1,s1,0x1
    6496:	8cd9                	or	s1,s1,a4
    6498:	4409                	li	s0,2
    649a:	0017d713          	srli	a4,a5,0x1
    649e:	0074f793          	andi	a5,s1,7
    64a2:	b151                	j	6126 <__adddf3+0x310>
    64a4:	00536313          	ori	t1,t1,5
    64a8:	ca0905e3          	beqz	s2,6152 <__adddf3+0x33c>
    64ac:	b375                	j	6258 <__adddf3+0x442>
    64ae:	7ff00793          	li	a5,2047
    64b2:	2cf40263          	beq	s0,a5,6776 <__adddf3+0x960>
    64b6:	2ef58463          	beq	a1,a5,679e <__adddf3+0x988>
    64ba:	22068563          	beqz	a3,66e4 <__adddf3+0x8ce>
    64be:	01c8e8b3          	or	a7,a7,t3
    64c2:	dc0896e3          	bnez	a7,628e <__adddf3+0x478>
    64c6:	00351813          	slli	a6,a0,0x3
    64ca:	01d71793          	slli	a5,a4,0x1d
    64ce:	00385813          	srli	a6,a6,0x3
    64d2:	00f86833          	or	a6,a6,a5
    64d6:	00375793          	srli	a5,a4,0x3
    64da:	b37d                	j	6288 <__adddf3+0x472>
    64dc:	de0783e3          	beqz	a5,62c2 <__adddf3+0x4ac>
    64e0:	4781                	li	a5,0
    64e2:	8746                	mv	a4,a7
    64e4:	8872                	mv	a6,t3
    64e6:	8936                	mv	s2,a3
    64e8:	84c2                	mv	s1,a6
    64ea:	b491                	j	5f2e <__adddf3+0x118>
    64ec:	01c8e7b3          	or	a5,a7,t3
    64f0:	da0786e3          	beqz	a5,629c <__adddf3+0x486>
    64f4:	060e                	slli	a2,a2,0x3
    64f6:	01d89813          	slli	a6,a7,0x1d
    64fa:	820d                	srli	a2,a2,0x3
    64fc:	00989713          	slli	a4,a7,0x9
    6500:	00c86833          	or	a6,a6,a2
    6504:	0038d793          	srli	a5,a7,0x3
    6508:	8936                	mv	s2,a3
    650a:	e40756e3          	bgez	a4,6356 <__adddf3+0x540>
    650e:	4301                	li	t1,0
    6510:	bba5                	j	6288 <__adddf3+0x472>
    6512:	41c804b3          	sub	s1,a6,t3
    6516:	411707b3          	sub	a5,a4,a7
    651a:	00983833          	sltu	a6,a6,s1
    651e:	41078733          	sub	a4,a5,a6
    6522:	00871793          	slli	a5,a4,0x8
    6526:	4405                	li	s0,1
    6528:	9a07c3e3          	bltz	a5,5ece <__adddf3+0xb8>
    652c:	bedd                	j	6122 <__adddf3+0x30c>
    652e:	010767b3          	or	a5,a4,a6
    6532:	ebd5                	bnez	a5,65e6 <__adddf3+0x7d0>
    6534:	4701                	li	a4,0
    6536:	4801                	li	a6,0
    6538:	4301                	li	t1,0
    653a:	01d71793          	slli	a5,a4,0x1d
    653e:	00385813          	srli	a6,a6,0x3
    6542:	00f86833          	or	a6,a6,a5
    6546:	00375793          	srli	a5,a4,0x3
    654a:	bb3d                	j	6288 <__adddf3+0x472>
    654c:	4305                	li	t1,1
    654e:	a00904e3          	beqz	s2,5f56 <__adddf3+0x140>
    6552:	ff85b613          	sltiu	a2,a1,-8
    6556:	00164613          	xori	a2,a2,1
    655a:	96b2                	add	a3,a3,a2
    655c:	baed                	j	5f56 <__adddf3+0x140>
    655e:	00f5f613          	andi	a2,a1,15
    6562:	4511                	li	a0,4
    6564:	9ea609e3          	beq	a2,a0,5f56 <__adddf3+0x140>
    6568:	ffc5b593          	sltiu	a1,a1,-4
    656c:	0015c593          	xori	a1,a1,1
    6570:	96ae                	add	a3,a3,a1
    6572:	b2d5                	j	5f56 <__adddf3+0x140>
    6574:	9e0911e3          	bnez	s2,5f56 <__adddf3+0x140>
    6578:	bfe9                	j	6552 <__adddf3+0x73c>
    657a:	7ff00793          	li	a5,2047
    657e:	0ef68d63          	beq	a3,a5,6678 <__adddf3+0x862>
    6582:	01c807b3          	add	a5,a6,t3
    6586:	0107b833          	sltu	a6,a5,a6
    658a:	9746                	add	a4,a4,a7
    658c:	9742                	add	a4,a4,a6
    658e:	01f71493          	slli	s1,a4,0x1f
    6592:	8385                	srli	a5,a5,0x1
    6594:	8cdd                	or	s1,s1,a5
    6596:	8305                	srli	a4,a4,0x1
    6598:	0074f793          	andi	a5,s1,7
    659c:	8436                	mv	s0,a3
    659e:	b661                	j	6126 <__adddf3+0x310>
    65a0:	410e04b3          	sub	s1,t3,a6
    65a4:	40e888b3          	sub	a7,a7,a4
    65a8:	009e37b3          	sltu	a5,t3,s1
    65ac:	40f88a33          	sub	s4,a7,a5
    65b0:	8936                	mv	s2,a3
    65b2:	b215                	j	5ed6 <__adddf3+0xc0>
    65b4:	7ff00813          	li	a6,2047
    65b8:	0d040e63          	beq	s0,a6,6694 <__adddf3+0x87e>
    65bc:	0f058763          	beq	a1,a6,66aa <__adddf3+0x894>
    65c0:	c60e8fe3          	beqz	t4,623e <__adddf3+0x428>
    65c4:	cc0795e3          	bnez	a5,628e <__adddf3+0x478>
    65c8:	050e                	slli	a0,a0,0x3
    65ca:	01d71813          	slli	a6,a4,0x1d
    65ce:	810d                	srli	a0,a0,0x3
    65d0:	00a86833          	or	a6,a6,a0
    65d4:	00375793          	srli	a5,a4,0x3
    65d8:	b945                	j	6288 <__adddf3+0x472>
    65da:	4315                	li	t1,5
    65dc:	b9b5                	j	6258 <__adddf3+0x442>
    65de:	010767b3          	or	a5,a4,a6
    65e2:	ca078ee3          	beqz	a5,629e <__adddf3+0x488>
    65e6:	00400337          	lui	t1,0x400
    65ea:	00677333          	and	t1,a4,t1
    65ee:	00133313          	seqz	t1,t1
    65f2:	0312                	slli	t1,t1,0x4
    65f4:	b799                	j	653a <__adddf3+0x724>
    65f6:	010764b3          	or	s1,a4,a6
    65fa:	009034b3          	snez	s1,s1
    65fe:	bb19                	j	6314 <__adddf3+0x4fe>
    6600:	fe078613          	addi	a2,a5,-32 # ff7fffe0 <_eusrstack+0xdf7effe0>
    6604:	02000513          	li	a0,32
    6608:	00c75633          	srl	a2,a4,a2
    660c:	00a78a63          	beq	a5,a0,6620 <__adddf3+0x80a>
    6610:	04000513          	li	a0,64
    6614:	40f507b3          	sub	a5,a0,a5
    6618:	00f717b3          	sll	a5,a4,a5
    661c:	00f86833          	or	a6,a6,a5
    6620:	010034b3          	snez	s1,a6
    6624:	8cd1                	or	s1,s1,a2
    6626:	bbc9                	j	63f8 <__adddf3+0x5e2>
    6628:	410e04b3          	sub	s1,t3,a6
    662c:	40e88733          	sub	a4,a7,a4
    6630:	009e37b3          	sltu	a5,t3,s1
    6634:	8f1d                	sub	a4,a4,a5
    6636:	8936                	mv	s2,a3
    6638:	b5ed                	j	6522 <__adddf3+0x70c>
    663a:	8746                	mv	a4,a7
    663c:	84f2                	mv	s1,t3
    663e:	b0ed                	j	5f28 <__adddf3+0x112>
    6640:	01c8e7b3          	or	a5,a7,t3
    6644:	c4078de3          	beqz	a5,629e <__adddf3+0x488>
    6648:	00400337          	lui	t1,0x400
    664c:	060e                	slli	a2,a2,0x3
    664e:	0068f333          	and	t1,a7,t1
    6652:	01d89813          	slli	a6,a7,0x1d
    6656:	820d                	srli	a2,a2,0x3
    6658:	00133313          	seqz	t1,t1
    665c:	00c86833          	or	a6,a6,a2
    6660:	0038d793          	srli	a5,a7,0x3
    6664:	0312                	slli	t1,t1,0x4
    6666:	b10d                	j	6288 <__adddf3+0x472>
    6668:	7ff00713          	li	a4,2047
    666c:	0ee78963          	beq	a5,a4,675e <__adddf3+0x948>
    6670:	8746                	mv	a4,a7
    6672:	84f2                	mv	s1,t3
    6674:	843e                	mv	s0,a5
    6676:	b455                	j	611a <__adddf3+0x304>
    6678:	f60981e3          	beqz	s3,65da <__adddf3+0x7c4>
    667c:	478d                	li	a5,3
    667e:	daf999e3          	bne	s3,a5,6430 <__adddf3+0x61a>
    6682:	f4090ce3          	beqz	s2,65da <__adddf3+0x7c4>
    6686:	4601                	li	a2,0
    6688:	7fe00413          	li	s0,2046
    668c:	4315                	li	t1,5
    668e:	577d                	li	a4,-1
    6690:	54fd                	li	s1,-1
    6692:	b0dd                	j	5f78 <__adddf3+0x162>
    6694:	ba0e83e3          	beqz	t4,623a <__adddf3+0x424>
    6698:	00971413          	slli	s0,a4,0x9
    669c:	00044363          	bltz	s0,66a2 <__adddf3+0x88c>
    66a0:	4341                	li	t1,16
    66a2:	7ff00813          	li	a6,2047
    66a6:	f1059fe3          	bne	a1,a6,65c4 <__adddf3+0x7ae>
    66aa:	12078763          	beqz	a5,67d8 <__adddf3+0x9c2>
    66ae:	00989793          	slli	a5,a7,0x9
    66b2:	0007c363          	bltz	a5,66b8 <__adddf3+0x8a2>
    66b6:	4341                	li	t1,16
    66b8:	bc0e9be3          	bnez	t4,628e <__adddf3+0x478>
    66bc:	060e                	slli	a2,a2,0x3
    66be:	01d89813          	slli	a6,a7,0x1d
    66c2:	820d                	srli	a2,a2,0x3
    66c4:	00c86833          	or	a6,a6,a2
    66c8:	0038d793          	srli	a5,a7,0x3
    66cc:	8936                	mv	s2,a3
    66ce:	be6d                	j	6288 <__adddf3+0x472>
    66d0:	00859a63          	bne	a1,s0,66e4 <__adddf3+0x8ce>
    66d4:	01c8e7b3          	or	a5,a7,t3
    66d8:	c791                	beqz	a5,66e4 <__adddf3+0x8ce>
    66da:	00989793          	slli	a5,a7,0x9
    66de:	0007c363          	bltz	a5,66e4 <__adddf3+0x8ce>
    66e2:	4341                	li	t1,16
    66e4:	00361813          	slli	a6,a2,0x3
    66e8:	01d89793          	slli	a5,a7,0x1d
    66ec:	00385813          	srli	a6,a6,0x3
    66f0:	00f86833          	or	a6,a6,a5
    66f4:	0038d793          	srli	a5,a7,0x3
    66f8:	be41                	j	6288 <__adddf3+0x472>
    66fa:	00c5e7b3          	or	a5,a1,a2
    66fe:	bc0782e3          	beqz	a5,62c2 <__adddf3+0x4ac>
    6702:	882e                	mv	a6,a1
    6704:	0075f793          	andi	a5,a1,7
    6708:	8732                	mv	a4,a2
    670a:	84c2                	mv	s1,a6
    670c:	b00d                	j	5f2e <__adddf3+0x118>
    670e:	fe078693          	addi	a3,a5,-32
    6712:	02000613          	li	a2,32
    6716:	00d756b3          	srl	a3,a4,a3
    671a:	00c78a63          	beq	a5,a2,672e <__adddf3+0x918>
    671e:	04000613          	li	a2,64
    6722:	40f607b3          	sub	a5,a2,a5
    6726:	00f717b3          	sll	a5,a4,a5
    672a:	00f86833          	or	a6,a6,a5
    672e:	010034b3          	snez	s1,a6
    6732:	8cd5                	or	s1,s1,a3
    6734:	b6c5                	j	6314 <__adddf3+0x4fe>
    6736:	01c804b3          	add	s1,a6,t3
    673a:	9746                	add	a4,a4,a7
    673c:	01c4b7b3          	sltu	a5,s1,t3
    6740:	973e                	add	a4,a4,a5
    6742:	bb35                	j	647e <__adddf3+0x668>
    6744:	01c8e833          	or	a6,a7,t3
    6748:	08080b63          	beqz	a6,67de <__adddf3+0x9c8>
    674c:	00989793          	slli	a5,a7,0x9
    6750:	8746                	mv	a4,a7
    6752:	8872                	mv	a6,t3
    6754:	8936                	mv	s2,a3
    6756:	0007ce63          	bltz	a5,6772 <__adddf3+0x95c>
    675a:	4341                	li	t1,16
    675c:	bbf9                	j	653a <__adddf3+0x724>
    675e:	01c8e833          	or	a6,a7,t3
    6762:	08080563          	beqz	a6,67ec <__adddf3+0x9d6>
    6766:	00989793          	slli	a5,a7,0x9
    676a:	8746                	mv	a4,a7
    676c:	8872                	mv	a6,t3
    676e:	fe07d6e3          	bgez	a5,675a <__adddf3+0x944>
    6772:	4301                	li	t1,0
    6774:	b3d9                	j	653a <__adddf3+0x724>
    6776:	dea9                	beqz	a3,66d0 <__adddf3+0x8ba>
    6778:	00971793          	slli	a5,a4,0x9
    677c:	0007c363          	bltz	a5,6782 <__adddf3+0x96c>
    6780:	4341                	li	t1,16
    6782:	7ff00793          	li	a5,2047
    6786:	d2f59ce3          	bne	a1,a5,64be <__adddf3+0x6a8>
    678a:	01c8e7b3          	or	a5,a7,t3
    678e:	d2078ce3          	beqz	a5,64c6 <__adddf3+0x6b0>
    6792:	00989793          	slli	a5,a7,0x9
    6796:	0007dc63          	bgez	a5,67ae <__adddf3+0x998>
    679a:	d6a9                	beqz	a3,66e4 <__adddf3+0x8ce>
    679c:	bccd                	j	628e <__adddf3+0x478>
    679e:	01c8e7b3          	or	a5,a7,t3
    67a2:	c3b1                	beqz	a5,67e6 <__adddf3+0x9d0>
    67a4:	00989793          	slli	a5,a7,0x9
    67a8:	fe07c9e3          	bltz	a5,679a <__adddf3+0x984>
    67ac:	da9d                	beqz	a3,66e2 <__adddf3+0x8cc>
    67ae:	4341                	li	t1,16
    67b0:	bcf9                	j	628e <__adddf3+0x478>
    67b2:	e20914e3          	bnez	s2,65da <__adddf3+0x7c4>
    67b6:	7fe00413          	li	s0,2046
    67ba:	577d                	li	a4,-1
    67bc:	54fd                	li	s1,-1
    67be:	4315                	li	t1,5
    67c0:	fc8ff06f          	j	5f88 <__adddf3+0x172>
    67c4:	e0090be3          	beqz	s2,65da <__adddf3+0x7c4>
    67c8:	7fe00413          	li	s0,2046
    67cc:	4601                	li	a2,0
    67ce:	4315                	li	t1,5
    67d0:	577d                	li	a4,-1
    67d2:	54fd                	li	s1,-1
    67d4:	fa4ff06f          	j	5f78 <__adddf3+0x162>
    67d8:	a60e85e3          	beqz	t4,6242 <__adddf3+0x42c>
    67dc:	b3f5                	j	65c8 <__adddf3+0x7b2>
    67de:	4701                	li	a4,0
    67e0:	8936                	mv	s2,a3
    67e2:	4301                	li	t1,0
    67e4:	bb99                	j	653a <__adddf3+0x724>
    67e6:	ee068fe3          	beqz	a3,66e4 <__adddf3+0x8ce>
    67ea:	b9f1                	j	64c6 <__adddf3+0x6b0>
    67ec:	4701                	li	a4,0
    67ee:	4301                	li	t1,0
    67f0:	b3a9                	j	653a <__adddf3+0x724>
    67f2:	01d71693          	slli	a3,a4,0x1d
    67f6:	0034d813          	srli	a6,s1,0x3
    67fa:	7ff00613          	li	a2,2047
    67fe:	0106e833          	or	a6,a3,a6
    6802:	00375793          	srli	a5,a4,0x3
    6806:	a8c401e3          	beq	s0,a2,6288 <__adddf3+0x472>
    680a:	b005                	j	602a <__adddf3+0x214>
    680c:	008007b7          	lui	a5,0x800
    6810:	8ff9                	and	a5,a5,a4
    6812:	4401                	li	s0,0
    6814:	f6069863          	bnez	a3,5f84 <__adddf3+0x16e>
    6818:	f6030663          	beqz	t1,5f84 <__adddf3+0x16e>
    681c:	00236313          	ori	t1,t1,2
    6820:	f64ff06f          	j	5f84 <__adddf3+0x16e>

00006824 <__divdf3>:
    6824:	7139                	addi	sp,sp,-64
    6826:	da26                	sw	s1,52(sp)
    6828:	de06                	sw	ra,60(sp)
    682a:	dc22                	sw	s0,56(sp)
    682c:	d84a                	sw	s2,48(sp)
    682e:	d64e                	sw	s3,44(sp)
    6830:	d452                	sw	s4,40(sp)
    6832:	d256                	sw	s5,36(sp)
    6834:	d05a                	sw	s6,32(sp)
    6836:	ce5e                	sw	s7,28(sp)
    6838:	cc62                	sw	s8,24(sp)
    683a:	ca66                	sw	s9,20(sp)
    683c:	84aa                	mv	s1,a0
    683e:	00202b73          	frrm	s6
    6842:	0145d513          	srli	a0,a1,0x14
    6846:	00c59413          	slli	s0,a1,0xc
    684a:	7ff57513          	andi	a0,a0,2047
    684e:	8031                	srli	s0,s0,0xc
    6850:	01f5da13          	srli	s4,a1,0x1f
    6854:	c979                	beqz	a0,692a <__divdf3+0x106>
    6856:	7ff00793          	li	a5,2047
    685a:	10f50d63          	beq	a0,a5,6974 <__divdf3+0x150>
    685e:	01d4db93          	srli	s7,s1,0x1d
    6862:	040e                	slli	s0,s0,0x3
    6864:	008be433          	or	s0,s7,s0
    6868:	00800bb7          	lui	s7,0x800
    686c:	00349c13          	slli	s8,s1,0x3
    6870:	01746bb3          	or	s7,s0,s7
    6874:	c0150993          	addi	s3,a0,-1023 # 7ffc01 <_data_lma+0x7f1e39>
    6878:	4481                	li	s1,0
    687a:	4c81                	li	s9,0
    687c:	4901                	li	s2,0
    687e:	0146d793          	srli	a5,a3,0x14
    6882:	00c69413          	slli	s0,a3,0xc
    6886:	7ff7f793          	andi	a5,a5,2047
    688a:	85b2                	mv	a1,a2
    688c:	8031                	srli	s0,s0,0xc
    688e:	01f6da93          	srli	s5,a3,0x1f
    6892:	c3a5                	beqz	a5,68f2 <__divdf3+0xce>
    6894:	7ff00713          	li	a4,2047
    6898:	04e78063          	beq	a5,a4,68d8 <__divdf3+0xb4>
    689c:	00341513          	slli	a0,s0,0x3
    68a0:	01d65413          	srli	s0,a2,0x1d
    68a4:	8c49                	or	s0,s0,a0
    68a6:	c0178793          	addi	a5,a5,-1023 # 7ffc01 <_data_lma+0x7f1e39>
    68aa:	00800537          	lui	a0,0x800
    68ae:	00361593          	slli	a1,a2,0x3
    68b2:	8c49                	or	s0,s0,a0
    68b4:	40f989b3          	sub	s3,s3,a5
    68b8:	4601                	li	a2,0
    68ba:	015a46b3          	xor	a3,s4,s5
    68be:	47bd                	li	a5,15
    68c0:	8836                	mv	a6,a3
    68c2:	1c97e663          	bltu	a5,s1,6a8e <__divdf3+0x26a>
    68c6:	00007717          	auipc	a4,0x7
    68ca:	2b270713          	addi	a4,a4,690 # db78 <__clz_tab+0x100>
    68ce:	048a                	slli	s1,s1,0x2
    68d0:	94ba                	add	s1,s1,a4
    68d2:	409c                	lw	a5,0(s1)
    68d4:	97ba                	add	a5,a5,a4
    68d6:	8782                	jr	a5
    68d8:	8e41                	or	a2,a2,s0
    68da:	80198993          	addi	s3,s3,-2047
    68de:	ce79                	beqz	a2,69bc <__divdf3+0x198>
    68e0:	00c41793          	slli	a5,s0,0xc
    68e4:	0034e493          	ori	s1,s1,3
    68e8:	460d                	li	a2,3
    68ea:	fc07c8e3          	bltz	a5,68ba <__divdf3+0x96>
    68ee:	4941                	li	s2,16
    68f0:	b7e9                	j	68ba <__divdf3+0x96>
    68f2:	00c467b3          	or	a5,s0,a2
    68f6:	cfcd                	beqz	a5,69b0 <__divdf3+0x18c>
    68f8:	36040363          	beqz	s0,6c5e <__divdf3+0x43a>
    68fc:	8522                	mv	a0,s0
    68fe:	c432                	sw	a2,8(sp)
    6900:	908ff0ef          	jal	ra,5a08 <__clzsi2>
    6904:	4622                	lw	a2,8(sp)
    6906:	ff550713          	addi	a4,a0,-11 # 7ffff5 <_data_lma+0x7f222d>
    690a:	47f5                	li	a5,29
    690c:	ff850593          	addi	a1,a0,-8
    6910:	8f99                	sub	a5,a5,a4
    6912:	00b41433          	sll	s0,s0,a1
    6916:	00f657b3          	srl	a5,a2,a5
    691a:	8c5d                	or	s0,s0,a5
    691c:	00b615b3          	sll	a1,a2,a1
    6920:	954e                	add	a0,a0,s3
    6922:	3f350993          	addi	s3,a0,1011
    6926:	4601                	li	a2,0
    6928:	bf49                	j	68ba <__divdf3+0x96>
    692a:	00946bb3          	or	s7,s0,s1
    692e:	060b8b63          	beqz	s7,69a4 <__divdf3+0x180>
    6932:	c636                	sw	a3,12(sp)
    6934:	c432                	sw	a2,8(sp)
    6936:	30040263          	beqz	s0,6c3a <__divdf3+0x416>
    693a:	8522                	mv	a0,s0
    693c:	8ccff0ef          	jal	ra,5a08 <__clzsi2>
    6940:	4622                	lw	a2,8(sp)
    6942:	46b2                	lw	a3,12(sp)
    6944:	89aa                	mv	s3,a0
    6946:	ff550713          	addi	a4,a0,-11
    694a:	4bf5                	li	s7,29
    694c:	ff898c13          	addi	s8,s3,-8
    6950:	40eb8bb3          	sub	s7,s7,a4
    6954:	01841433          	sll	s0,s0,s8
    6958:	0174dbb3          	srl	s7,s1,s7
    695c:	008bebb3          	or	s7,s7,s0
    6960:	01849c33          	sll	s8,s1,s8
    6964:	c0d00513          	li	a0,-1011
    6968:	413509b3          	sub	s3,a0,s3
    696c:	4481                	li	s1,0
    696e:	4c81                	li	s9,0
    6970:	4901                	li	s2,0
    6972:	b731                	j	687e <__divdf3+0x5a>
    6974:	00946bb3          	or	s7,s0,s1
    6978:	000b8f63          	beqz	s7,6996 <__divdf3+0x172>
    697c:	00c41793          	slli	a5,s0,0xc
    6980:	8c26                	mv	s8,s1
    6982:	8ba2                	mv	s7,s0
    6984:	44b1                	li	s1,12
    6986:	7ff00993          	li	s3,2047
    698a:	4c8d                	li	s9,3
    698c:	4941                	li	s2,16
    698e:	ee07d8e3          	bgez	a5,687e <__divdf3+0x5a>
    6992:	4901                	li	s2,0
    6994:	b5ed                	j	687e <__divdf3+0x5a>
    6996:	44a1                	li	s1,8
    6998:	4c01                	li	s8,0
    699a:	7ff00993          	li	s3,2047
    699e:	4c89                	li	s9,2
    69a0:	4901                	li	s2,0
    69a2:	bdf1                	j	687e <__divdf3+0x5a>
    69a4:	4491                	li	s1,4
    69a6:	4c01                	li	s8,0
    69a8:	4981                	li	s3,0
    69aa:	4c85                	li	s9,1
    69ac:	4901                	li	s2,0
    69ae:	bdc1                	j	687e <__divdf3+0x5a>
    69b0:	0014e493          	ori	s1,s1,1
    69b4:	4401                	li	s0,0
    69b6:	4581                	li	a1,0
    69b8:	4605                	li	a2,1
    69ba:	b701                	j	68ba <__divdf3+0x96>
    69bc:	0024e493          	ori	s1,s1,2
    69c0:	4401                	li	s0,0
    69c2:	4581                	li	a1,0
    69c4:	4609                	li	a2,2
    69c6:	bdd5                	j	68ba <__divdf3+0x96>
    69c8:	4681                	li	a3,0
    69ca:	7ff00713          	li	a4,2047
    69ce:	000807b7          	lui	a5,0x80
    69d2:	4401                	li	s0,0
    69d4:	07b2                	slli	a5,a5,0xc
    69d6:	0752                	slli	a4,a4,0x14
    69d8:	83b1                	srli	a5,a5,0xc
    69da:	06fe                	slli	a3,a3,0x1f
    69dc:	8fd9                	or	a5,a5,a4
    69de:	8fd5                	or	a5,a5,a3
    69e0:	8522                	mv	a0,s0
    69e2:	85be                	mv	a1,a5
    69e4:	0a091263          	bnez	s2,6a88 <__divdf3+0x264>
    69e8:	50f2                	lw	ra,60(sp)
    69ea:	5462                	lw	s0,56(sp)
    69ec:	54d2                	lw	s1,52(sp)
    69ee:	5942                	lw	s2,48(sp)
    69f0:	59b2                	lw	s3,44(sp)
    69f2:	5a22                	lw	s4,40(sp)
    69f4:	5a92                	lw	s5,36(sp)
    69f6:	5b02                	lw	s6,32(sp)
    69f8:	4bf2                	lw	s7,28(sp)
    69fa:	4c62                	lw	s8,24(sp)
    69fc:	4cd2                	lw	s9,20(sp)
    69fe:	6121                	addi	sp,sp,64
    6a00:	8082                	ret
    6a02:	4701                	li	a4,0
    6a04:	4781                	li	a5,0
    6a06:	4401                	li	s0,0
    6a08:	b7f1                	j	69d4 <__divdf3+0x1b0>
    6a0a:	8852                	mv	a6,s4
    6a0c:	845e                	mv	s0,s7
    6a0e:	85e2                	mv	a1,s8
    6a10:	8666                	mv	a2,s9
    6a12:	4789                	li	a5,2
    6a14:	52f60163          	beq	a2,a5,6f36 <__divdf3+0x712>
    6a18:	478d                	li	a5,3
    6a1a:	faf607e3          	beq	a2,a5,69c8 <__divdf3+0x1a4>
    6a1e:	4785                	li	a5,1
    6a20:	4cf60063          	beq	a2,a5,6ee0 <__divdf3+0x6bc>
    6a24:	3ff98613          	addi	a2,s3,1023
    6a28:	28c05a63          	blez	a2,6cbc <__divdf3+0x498>
    6a2c:	0075f793          	andi	a5,a1,7
    6a30:	42079463          	bnez	a5,6e58 <__divdf3+0x634>
    6a34:	818d                	srli	a1,a1,0x3
    6a36:	86c2                	mv	a3,a6
    6a38:	00741793          	slli	a5,s0,0x7
    6a3c:	0007d863          	bgez	a5,6a4c <__divdf3+0x228>
    6a40:	ff0007b7          	lui	a5,0xff000
    6a44:	17fd                	addi	a5,a5,-1
    6a46:	8c7d                	and	s0,s0,a5
    6a48:	40098613          	addi	a2,s3,1024
    6a4c:	7fe00793          	li	a5,2046
    6a50:	2ec7cb63          	blt	a5,a2,6d46 <__divdf3+0x522>
    6a54:	01d41713          	slli	a4,s0,0x1d
    6a58:	00941793          	slli	a5,s0,0x9
    6a5c:	83b1                	srli	a5,a5,0xc
    6a5e:	00b76433          	or	s0,a4,a1
    6a62:	7ff67713          	andi	a4,a2,2047
    6a66:	b7bd                	j	69d4 <__divdf3+0x1b0>
    6a68:	7ff00713          	li	a4,2047
    6a6c:	4781                	li	a5,0
    6a6e:	4401                	li	s0,0
    6a70:	b795                	j	69d4 <__divdf3+0x1b0>
    6a72:	8856                	mv	a6,s5
    6a74:	bf79                	j	6a12 <__divdf3+0x1ee>
    6a76:	00896913          	ori	s2,s2,8
    6a7a:	7ff00793          	li	a5,2047
    6a7e:	06fe                	slli	a3,a3,0x1f
    6a80:	07d2                	slli	a5,a5,0x14
    6a82:	8fd5                	or	a5,a5,a3
    6a84:	4501                	li	a0,0
    6a86:	85be                	mv	a1,a5
    6a88:	00192073          	csrs	fflags,s2
    6a8c:	bfb1                	j	69e8 <__divdf3+0x1c4>
    6a8e:	21746e63          	bltu	s0,s7,6caa <__divdf3+0x486>
    6a92:	208b8a63          	beq	s7,s0,6ca6 <__divdf3+0x482>
    6a96:	87e2                	mv	a5,s8
    6a98:	19fd                	addi	s3,s3,-1
    6a9a:	4c01                	li	s8,0
    6a9c:	0422                	slli	s0,s0,0x8
    6a9e:	0185d893          	srli	a7,a1,0x18
    6aa2:	0088e8b3          	or	a7,a7,s0
    6aa6:	0108d313          	srli	t1,a7,0x10
    6aaa:	026bd433          	divu	s0,s7,t1
    6aae:	01089e13          	slli	t3,a7,0x10
    6ab2:	010e5e13          	srli	t3,t3,0x10
    6ab6:	0107d713          	srli	a4,a5,0x10
    6aba:	00859e93          	slli	t4,a1,0x8
    6abe:	026bfbb3          	remu	s7,s7,t1
    6ac2:	028e0633          	mul	a2,t3,s0
    6ac6:	0bc2                	slli	s7,s7,0x10
    6ac8:	01776733          	or	a4,a4,s7
    6acc:	00c77b63          	bgeu	a4,a2,6ae2 <__divdf3+0x2be>
    6ad0:	9746                	add	a4,a4,a7
    6ad2:	fff40593          	addi	a1,s0,-1
    6ad6:	2d176a63          	bltu	a4,a7,6daa <__divdf3+0x586>
    6ada:	2cc77863          	bgeu	a4,a2,6daa <__divdf3+0x586>
    6ade:	1479                	addi	s0,s0,-2
    6ae0:	9746                	add	a4,a4,a7
    6ae2:	8f11                	sub	a4,a4,a2
    6ae4:	02675533          	divu	a0,a4,t1
    6ae8:	07c2                	slli	a5,a5,0x10
    6aea:	83c1                	srli	a5,a5,0x10
    6aec:	02677733          	remu	a4,a4,t1
    6af0:	02ae02b3          	mul	t0,t3,a0
    6af4:	0742                	slli	a4,a4,0x10
    6af6:	8fd9                	or	a5,a5,a4
    6af8:	0057fb63          	bgeu	a5,t0,6b0e <__divdf3+0x2ea>
    6afc:	97c6                	add	a5,a5,a7
    6afe:	fff50713          	addi	a4,a0,-1
    6b02:	2b17e263          	bltu	a5,a7,6da6 <__divdf3+0x582>
    6b06:	2a57f063          	bgeu	a5,t0,6da6 <__divdf3+0x582>
    6b0a:	1579                	addi	a0,a0,-2
    6b0c:	97c6                	add	a5,a5,a7
    6b0e:	0442                	slli	s0,s0,0x10
    6b10:	63c1                	lui	t2,0x10
    6b12:	8c49                	or	s0,s0,a0
    6b14:	fff38513          	addi	a0,t2,-1 # ffff <_data_lma+0x2237>
    6b18:	00a47633          	and	a2,s0,a0
    6b1c:	01045593          	srli	a1,s0,0x10
    6b20:	010edf13          	srli	t5,t4,0x10
    6b24:	00aef533          	and	a0,t4,a0
    6b28:	02c50fb3          	mul	t6,a0,a2
    6b2c:	405787b3          	sub	a5,a5,t0
    6b30:	02cf0633          	mul	a2,t5,a2
    6b34:	010fd713          	srli	a4,t6,0x10
    6b38:	02a582b3          	mul	t0,a1,a0
    6b3c:	9616                	add	a2,a2,t0
    6b3e:	9732                	add	a4,a4,a2
    6b40:	03e585b3          	mul	a1,a1,t5
    6b44:	00577363          	bgeu	a4,t0,6b4a <__divdf3+0x326>
    6b48:	959e                	add	a1,a1,t2
    6b4a:	62c1                	lui	t0,0x10
    6b4c:	12fd                	addi	t0,t0,-1
    6b4e:	01075613          	srli	a2,a4,0x10
    6b52:	00577733          	and	a4,a4,t0
    6b56:	0742                	slli	a4,a4,0x10
    6b58:	005fffb3          	and	t6,t6,t0
    6b5c:	962e                	add	a2,a2,a1
    6b5e:	977e                	add	a4,a4,t6
    6b60:	12c7e463          	bltu	a5,a2,6c88 <__divdf3+0x464>
    6b64:	12c78063          	beq	a5,a2,6c84 <__divdf3+0x460>
    6b68:	40ec0733          	sub	a4,s8,a4
    6b6c:	8f91                	sub	a5,a5,a2
    6b6e:	00ec3c33          	sltu	s8,s8,a4
    6b72:	418787b3          	sub	a5,a5,s8
    6b76:	3ff98613          	addi	a2,s3,1023
    6b7a:	2af88f63          	beq	a7,a5,6e38 <__divdf3+0x614>
    6b7e:	0267d5b3          	divu	a1,a5,t1
    6b82:	01075693          	srli	a3,a4,0x10
    6b86:	0267f7b3          	remu	a5,a5,t1
    6b8a:	02be0fb3          	mul	t6,t3,a1
    6b8e:	07c2                	slli	a5,a5,0x10
    6b90:	8fd5                	or	a5,a5,a3
    6b92:	01f7fb63          	bgeu	a5,t6,6ba8 <__divdf3+0x384>
    6b96:	97c6                	add	a5,a5,a7
    6b98:	fff58693          	addi	a3,a1,-1 # 7ff7ffff <_eusrstack+0x5ff6ffff>
    6b9c:	2f17e063          	bltu	a5,a7,6e7c <__divdf3+0x658>
    6ba0:	2df7fe63          	bgeu	a5,t6,6e7c <__divdf3+0x658>
    6ba4:	15f9                	addi	a1,a1,-2
    6ba6:	97c6                	add	a5,a5,a7
    6ba8:	41f787b3          	sub	a5,a5,t6
    6bac:	0267d6b3          	divu	a3,a5,t1
    6bb0:	0742                	slli	a4,a4,0x10
    6bb2:	8341                	srli	a4,a4,0x10
    6bb4:	0267f7b3          	remu	a5,a5,t1
    6bb8:	02de0e33          	mul	t3,t3,a3
    6bbc:	07c2                	slli	a5,a5,0x10
    6bbe:	8fd9                	or	a5,a5,a4
    6bc0:	01c7fb63          	bgeu	a5,t3,6bd6 <__divdf3+0x3b2>
    6bc4:	97c6                	add	a5,a5,a7
    6bc6:	fff68713          	addi	a4,a3,-1 # 7fffff <_data_lma+0x7f2237>
    6bca:	2b17eb63          	bltu	a5,a7,6e80 <__divdf3+0x65c>
    6bce:	2bc7f963          	bgeu	a5,t3,6e80 <__divdf3+0x65c>
    6bd2:	16f9                	addi	a3,a3,-2
    6bd4:	97c6                	add	a5,a5,a7
    6bd6:	05c2                	slli	a1,a1,0x10
    6bd8:	8dd5                	or	a1,a1,a3
    6bda:	01059693          	slli	a3,a1,0x10
    6bde:	0105df93          	srli	t6,a1,0x10
    6be2:	82c1                	srli	a3,a3,0x10
    6be4:	02a68333          	mul	t1,a3,a0
    6be8:	41c787b3          	sub	a5,a5,t3
    6bec:	02df06b3          	mul	a3,t5,a3
    6bf0:	01035713          	srli	a4,t1,0x10
    6bf4:	02af8533          	mul	a0,t6,a0
    6bf8:	96aa                	add	a3,a3,a0
    6bfa:	9736                	add	a4,a4,a3
    6bfc:	03ff0f33          	mul	t5,t5,t6
    6c00:	00a77463          	bgeu	a4,a0,6c08 <__divdf3+0x3e4>
    6c04:	66c1                	lui	a3,0x10
    6c06:	9f36                	add	t5,t5,a3
    6c08:	6541                	lui	a0,0x10
    6c0a:	157d                	addi	a0,a0,-1
    6c0c:	01075693          	srli	a3,a4,0x10
    6c10:	8f69                	and	a4,a4,a0
    6c12:	0742                	slli	a4,a4,0x10
    6c14:	00a37333          	and	t1,t1,a0
    6c18:	9f36                	add	t5,t5,a3
    6c1a:	971a                	add	a4,a4,t1
    6c1c:	17e7fa63          	bgeu	a5,t5,6d90 <__divdf3+0x56c>
    6c20:	97c6                	add	a5,a5,a7
    6c22:	fff58693          	addi	a3,a1,-1
    6c26:	2d17e263          	bltu	a5,a7,6eea <__divdf3+0x6c6>
    6c2a:	27e7eb63          	bltu	a5,t5,6ea0 <__divdf3+0x67c>
    6c2e:	35e78a63          	beq	a5,t5,6f82 <__divdf3+0x75e>
    6c32:	85b6                	mv	a1,a3
    6c34:	0015e593          	ori	a1,a1,1
    6c38:	bbc5                	j	6a28 <__divdf3+0x204>
    6c3a:	8526                	mv	a0,s1
    6c3c:	dcdfe0ef          	jal	ra,5a08 <__clzsi2>
    6c40:	01550713          	addi	a4,a0,21 # 10015 <_data_lma+0x224d>
    6c44:	45f1                	li	a1,28
    6c46:	02050993          	addi	s3,a0,32
    6c4a:	4622                	lw	a2,8(sp)
    6c4c:	46b2                	lw	a3,12(sp)
    6c4e:	cee5dee3          	bge	a1,a4,694a <__divdf3+0x126>
    6c52:	ff850413          	addi	s0,a0,-8
    6c56:	00849bb3          	sll	s7,s1,s0
    6c5a:	4c01                	li	s8,0
    6c5c:	b321                	j	6964 <__divdf3+0x140>
    6c5e:	8532                	mv	a0,a2
    6c60:	c432                	sw	a2,8(sp)
    6c62:	da7fe0ef          	jal	ra,5a08 <__clzsi2>
    6c66:	01550713          	addi	a4,a0,21
    6c6a:	46f1                	li	a3,28
    6c6c:	87aa                	mv	a5,a0
    6c6e:	4622                	lw	a2,8(sp)
    6c70:	02050513          	addi	a0,a0,32
    6c74:	c8e6dbe3          	bge	a3,a4,690a <__divdf3+0xe6>
    6c78:	ff878413          	addi	s0,a5,-8 # fefffff8 <_eusrstack+0xdefefff8>
    6c7c:	4581                	li	a1,0
    6c7e:	00861433          	sll	s0,a2,s0
    6c82:	b979                	j	6920 <__divdf3+0xfc>
    6c84:	eeec72e3          	bgeu	s8,a4,6b68 <__divdf3+0x344>
    6c88:	9c76                	add	s8,s8,t4
    6c8a:	01dc35b3          	sltu	a1,s8,t4
    6c8e:	95c6                	add	a1,a1,a7
    6c90:	97ae                	add	a5,a5,a1
    6c92:	fff40593          	addi	a1,s0,-1
    6c96:	10f8f263          	bgeu	a7,a5,6d9a <__divdf3+0x576>
    6c9a:	18c7e863          	bltu	a5,a2,6e2a <__divdf3+0x606>
    6c9e:	18f60463          	beq	a2,a5,6e26 <__divdf3+0x602>
    6ca2:	842e                	mv	s0,a1
    6ca4:	b5d1                	j	6b68 <__divdf3+0x344>
    6ca6:	debc68e3          	bltu	s8,a1,6a96 <__divdf3+0x272>
    6caa:	01fb9713          	slli	a4,s7,0x1f
    6cae:	001c5793          	srli	a5,s8,0x1
    6cb2:	001bdb93          	srli	s7,s7,0x1
    6cb6:	8fd9                	or	a5,a5,a4
    6cb8:	0c7e                	slli	s8,s8,0x1f
    6cba:	b3cd                	j	6a9c <__divdf3+0x278>
    6cbc:	86c2                	mv	a3,a6
    6cbe:	e635                	bnez	a2,6d2a <__divdf3+0x506>
    6cc0:	0075f613          	andi	a2,a1,7
    6cc4:	88a2                	mv	a7,s0
    6cc6:	24061263          	bnez	a2,6f0a <__divdf3+0x6e6>
    6cca:	8061                	srli	s0,s0,0x18
    6ccc:	00144413          	xori	s0,s0,1
    6cd0:	00147613          	andi	a2,s0,1
    6cd4:	4785                	li	a5,1
    6cd6:	41e98513          	addi	a0,s3,1054
    6cda:	00a89733          	sll	a4,a7,a0
    6cde:	00f5d433          	srl	s0,a1,a5
    6ce2:	00a595b3          	sll	a1,a1,a0
    6ce6:	8c59                	or	s0,s0,a4
    6ce8:	00b035b3          	snez	a1,a1
    6cec:	8c4d                	or	s0,s0,a1
    6cee:	00747593          	andi	a1,s0,7
    6cf2:	00f8d733          	srl	a4,a7,a5
    6cf6:	c999                	beqz	a1,6d0c <__divdf3+0x4e8>
    6cf8:	4789                	li	a5,2
    6cfa:	00196913          	ori	s2,s2,1
    6cfe:	2efb0663          	beq	s6,a5,6fea <__divdf3+0x7c6>
    6d02:	478d                	li	a5,3
    6d04:	2cfb0863          	beq	s6,a5,6fd4 <__divdf3+0x7b0>
    6d08:	280b0563          	beqz	s6,6f92 <__divdf3+0x76e>
    6d0c:	00871793          	slli	a5,a4,0x8
    6d10:	2207dd63          	bgez	a5,6f4a <__divdf3+0x726>
    6d14:	00196913          	ori	s2,s2,1
    6d18:	4785                	li	a5,1
    6d1a:	d60602e3          	beqz	a2,6a7e <__divdf3+0x25a>
    6d1e:	4605                	li	a2,1
    6d20:	4781                	li	a5,0
    6d22:	4401                	li	s0,0
    6d24:	00296913          	ori	s2,s2,2
    6d28:	a081                	j	6d68 <__divdf3+0x544>
    6d2a:	4785                	li	a5,1
    6d2c:	8f91                	sub	a5,a5,a2
    6d2e:	03800713          	li	a4,56
    6d32:	08f75c63          	bge	a4,a5,6dca <__divdf3+0x5a6>
    6d36:	8c4d                	or	s0,s0,a1
    6d38:	14041663          	bnez	s0,6e84 <__divdf3+0x660>
    6d3c:	00296913          	ori	s2,s2,2
    6d40:	4601                	li	a2,0
    6d42:	4781                	li	a5,0
    6d44:	a015                	j	6d68 <__divdf3+0x544>
    6d46:	4789                	li	a5,2
    6d48:	0cfb0c63          	beq	s6,a5,6e20 <__divdf3+0x5fc>
    6d4c:	478d                	li	a5,3
    6d4e:	06fb0063          	beq	s6,a5,6dae <__divdf3+0x58a>
    6d52:	060b0063          	beqz	s6,6db2 <__divdf3+0x58e>
    6d56:	00100437          	lui	s0,0x100
    6d5a:	fff40793          	addi	a5,s0,-1 # fffff <_data_lma+0xf2237>
    6d5e:	7fe00613          	li	a2,2046
    6d62:	547d                	li	s0,-1
    6d64:	00596913          	ori	s2,s2,5
    6d68:	00c79713          	slli	a4,a5,0xc
    6d6c:	8331                	srli	a4,a4,0xc
    6d6e:	01461793          	slli	a5,a2,0x14
    6d72:	06fe                	slli	a3,a3,0x1f
    6d74:	8fd9                	or	a5,a5,a4
    6d76:	8fd5                	or	a5,a5,a3
    6d78:	8522                	mv	a0,s0
    6d7a:	85be                	mv	a1,a5
    6d7c:	00192073          	csrs	fflags,s2
    6d80:	b1a5                	j	69e8 <__divdf3+0x1c4>
    6d82:	4501                	li	a0,0
    6d84:	7ff805b7          	lui	a1,0x7ff80
    6d88:	4941                	li	s2,16
    6d8a:	00192073          	csrs	fflags,s2
    6d8e:	b9a9                	j	69e8 <__divdf3+0x1c4>
    6d90:	ebe792e3          	bne	a5,t5,6c34 <__divdf3+0x410>
    6d94:	c8070ae3          	beqz	a4,6a28 <__divdf3+0x204>
    6d98:	b561                	j	6c20 <__divdf3+0x3fc>
    6d9a:	f0f894e3          	bne	a7,a5,6ca2 <__divdf3+0x47e>
    6d9e:	efdc7ee3          	bgeu	s8,t4,6c9a <__divdf3+0x476>
    6da2:	842e                	mv	s0,a1
    6da4:	b3d1                	j	6b68 <__divdf3+0x344>
    6da6:	853a                	mv	a0,a4
    6da8:	b39d                	j	6b0e <__divdf3+0x2ea>
    6daa:	842e                	mv	s0,a1
    6dac:	bb1d                	j	6ae2 <__divdf3+0x2be>
    6dae:	fa0814e3          	bnez	a6,6d56 <__divdf3+0x532>
    6db2:	7ff00613          	li	a2,2047
    6db6:	4781                	li	a5,0
    6db8:	4401                	li	s0,0
    6dba:	b76d                	j	6d64 <__divdf3+0x540>
    6dbc:	4785                	li	a5,1
    6dbe:	8f91                	sub	a5,a5,a2
    6dc0:	03800713          	li	a4,56
    6dc4:	0cf74063          	blt	a4,a5,6e84 <__divdf3+0x660>
    6dc8:	55fd                	li	a1,-1
    6dca:	477d                	li	a4,31
    6dcc:	22f75e63          	bge	a4,a5,7008 <__divdf3+0x7e4>
    6dd0:	5705                	li	a4,-31
    6dd2:	8f11                	sub	a4,a4,a2
    6dd4:	02000613          	li	a2,32
    6dd8:	00e45733          	srl	a4,s0,a4
    6ddc:	00c78763          	beq	a5,a2,6dea <__divdf3+0x5c6>
    6de0:	43e98513          	addi	a0,s3,1086
    6de4:	00a41433          	sll	s0,s0,a0
    6de8:	8dc1                	or	a1,a1,s0
    6dea:	00b03433          	snez	s0,a1
    6dee:	8c59                	or	s0,s0,a4
    6df0:	00747793          	andi	a5,s0,7
    6df4:	cb99                	beqz	a5,6e0a <__divdf3+0x5e6>
    6df6:	4789                	li	a5,2
    6df8:	00196913          	ori	s2,s2,1
    6dfc:	1efb0563          	beq	s6,a5,6fe6 <__divdf3+0x7c2>
    6e00:	478d                	li	a5,3
    6e02:	1cfb0763          	beq	s6,a5,6fd0 <__divdf3+0x7ac>
    6e06:	180b0463          	beqz	s6,6f8e <__divdf3+0x76a>
    6e0a:	800d                	srli	s0,s0,0x3
    6e0c:	4781                	li	a5,0
    6e0e:	00197613          	andi	a2,s2,1
    6e12:	4701                	li	a4,0
    6e14:	bc0600e3          	beqz	a2,69d4 <__divdf3+0x1b0>
    6e18:	4601                	li	a2,0
    6e1a:	00296913          	ori	s2,s2,2
    6e1e:	b7a9                	j	6d68 <__divdf3+0x544>
    6e20:	f2080be3          	beqz	a6,6d56 <__divdf3+0x532>
    6e24:	b779                	j	6db2 <__divdf3+0x58e>
    6e26:	e6ec7ee3          	bgeu	s8,a4,6ca2 <__divdf3+0x47e>
    6e2a:	9c76                	add	s8,s8,t4
    6e2c:	01dc35b3          	sltu	a1,s8,t4
    6e30:	95c6                	add	a1,a1,a7
    6e32:	1479                	addi	s0,s0,-2
    6e34:	97ae                	add	a5,a5,a1
    6e36:	bb0d                	j	6b68 <__divdf3+0x344>
    6e38:	08c05363          	blez	a2,6ebe <__divdf3+0x69a>
    6e3c:	4789                	li	a5,2
    6e3e:	00196913          	ori	s2,s2,1
    6e42:	0afb0e63          	beq	s6,a5,6efe <__divdf3+0x6da>
    6e46:	478d                	li	a5,3
    6e48:	0afb0563          	beq	s6,a5,6ef2 <__divdf3+0x6ce>
    6e4c:	0e0b0b63          	beqz	s6,6f42 <__divdf3+0x71e>
    6e50:	200005b7          	lui	a1,0x20000
    6e54:	15fd                	addi	a1,a1,-1
    6e56:	b6cd                	j	6a38 <__divdf3+0x214>
    6e58:	4789                	li	a5,2
    6e5a:	00196913          	ori	s2,s2,1
    6e5e:	0afb0163          	beq	s6,a5,6f00 <__divdf3+0x6dc>
    6e62:	478d                	li	a5,3
    6e64:	08fb0863          	beq	s6,a5,6ef4 <__divdf3+0x6d0>
    6e68:	bc0b16e3          	bnez	s6,6a34 <__divdf3+0x210>
    6e6c:	00f5f793          	andi	a5,a1,15
    6e70:	4711                	li	a4,4
    6e72:	86c2                	mv	a3,a6
    6e74:	16e79e63          	bne	a5,a4,6ff0 <__divdf3+0x7cc>
    6e78:	818d                	srli	a1,a1,0x3
    6e7a:	be7d                	j	6a38 <__divdf3+0x214>
    6e7c:	85b6                	mv	a1,a3
    6e7e:	b32d                	j	6ba8 <__divdf3+0x384>
    6e80:	86ba                	mv	a3,a4
    6e82:	bb91                	j	6bd6 <__divdf3+0x3b2>
    6e84:	4789                	li	a5,2
    6e86:	00196913          	ori	s2,s2,1
    6e8a:	01003433          	snez	s0,a6
    6e8e:	eafb07e3          	beq	s6,a5,6d3c <__divdf3+0x518>
    6e92:	478d                	li	a5,3
    6e94:	4401                	li	s0,0
    6e96:	eafb13e3          	bne	s6,a5,6d3c <__divdf3+0x518>
    6e9a:	00183413          	seqz	s0,a6
    6e9e:	bd79                	j	6d3c <__divdf3+0x518>
    6ea0:	001e9693          	slli	a3,t4,0x1
    6ea4:	01d6beb3          	sltu	t4,a3,t4
    6ea8:	98f6                	add	a7,a7,t4
    6eaa:	97c6                	add	a5,a5,a7
    6eac:	15f9                	addi	a1,a1,-2
    6eae:	8eb6                	mv	t4,a3
    6eb0:	d9e792e3          	bne	a5,t5,6c34 <__divdf3+0x410>
    6eb4:	b7d70ae3          	beq	a4,t4,6a28 <__divdf3+0x204>
    6eb8:	0015e593          	ori	a1,a1,1
    6ebc:	b6b5                	j	6a28 <__divdf3+0x204>
    6ebe:	ee061fe3          	bnez	a2,6dbc <__divdf3+0x598>
    6ec2:	4789                	li	a5,2
    6ec4:	00196913          	ori	s2,s2,1
    6ec8:	0efb0d63          	beq	s6,a5,6fc2 <__divdf3+0x79e>
    6ecc:	478d                	li	a5,3
    6ece:	0cfb0e63          	beq	s6,a5,6faa <__divdf3+0x786>
    6ed2:	120b0763          	beqz	s6,7000 <__divdf3+0x7dc>
    6ed6:	88a2                	mv	a7,s0
    6ed8:	55fd                	li	a1,-1
    6eda:	c0100993          	li	s3,-1023
    6ede:	b3f5                	j	6cca <__divdf3+0x4a6>
    6ee0:	86c2                	mv	a3,a6
    6ee2:	4701                	li	a4,0
    6ee4:	4781                	li	a5,0
    6ee6:	4401                	li	s0,0
    6ee8:	b4f5                	j	69d4 <__divdf3+0x1b0>
    6eea:	85b6                	mv	a1,a3
    6eec:	fde784e3          	beq	a5,t5,6eb4 <__divdf3+0x690>
    6ef0:	b391                	j	6c34 <__divdf3+0x410>
    6ef2:	55fd                	li	a1,-1
    6ef4:	06080e63          	beqz	a6,6f70 <__divdf3+0x74c>
    6ef8:	818d                	srli	a1,a1,0x3
    6efa:	4685                	li	a3,1
    6efc:	be35                	j	6a38 <__divdf3+0x214>
    6efe:	55fd                	li	a1,-1
    6f00:	04081f63          	bnez	a6,6f5e <__divdf3+0x73a>
    6f04:	818d                	srli	a1,a1,0x3
    6f06:	4681                	li	a3,0
    6f08:	be05                	j	6a38 <__divdf3+0x214>
    6f0a:	4789                	li	a5,2
    6f0c:	00196913          	ori	s2,s2,1
    6f10:	0afb0d63          	beq	s6,a5,6fca <__divdf3+0x7a6>
    6f14:	478d                	li	a5,3
    6f16:	08fb0d63          	beq	s6,a5,6fb0 <__divdf3+0x78c>
    6f1a:	da0b18e3          	bnez	s6,6cca <__divdf3+0x4a6>
    6f1e:	00f5f793          	andi	a5,a1,15
    6f22:	4711                	li	a4,4
    6f24:	dae783e3          	beq	a5,a4,6cca <__divdf3+0x4a6>
    6f28:	ffc5b793          	sltiu	a5,a1,-4
    6f2c:	0017c793          	xori	a5,a5,1
    6f30:	88a2                	mv	a7,s0
    6f32:	943e                	add	s0,s0,a5
    6f34:	bb59                	j	6cca <__divdf3+0x4a6>
    6f36:	86c2                	mv	a3,a6
    6f38:	7ff00713          	li	a4,2047
    6f3c:	4781                	li	a5,0
    6f3e:	4401                	li	s0,0
    6f40:	bc51                	j	69d4 <__divdf3+0x1b0>
    6f42:	4785                	li	a5,1
    6f44:	4581                	li	a1,0
    6f46:	943e                	add	s0,s0,a5
    6f48:	bcc5                	j	6a38 <__divdf3+0x214>
    6f4a:	00971793          	slli	a5,a4,0x9
    6f4e:	800d                	srli	s0,s0,0x3
    6f50:	0776                	slli	a4,a4,0x1d
    6f52:	83b1                	srli	a5,a5,0xc
    6f54:	8c59                	or	s0,s0,a4
    6f56:	ea061ce3          	bnez	a2,6e0e <__divdf3+0x5ea>
    6f5a:	4701                	li	a4,0
    6f5c:	bca5                	j	69d4 <__divdf3+0x1b0>
    6f5e:	00858793          	addi	a5,a1,8 # 20000008 <_data_vma+0x8>
    6f62:	00b7b5b3          	sltu	a1,a5,a1
    6f66:	942e                	add	s0,s0,a1
    6f68:	4685                	li	a3,1
    6f6a:	0037d593          	srli	a1,a5,0x3
    6f6e:	b4e9                	j	6a38 <__divdf3+0x214>
    6f70:	00858793          	addi	a5,a1,8
    6f74:	00b7b5b3          	sltu	a1,a5,a1
    6f78:	942e                	add	s0,s0,a1
    6f7a:	4681                	li	a3,0
    6f7c:	0037d593          	srli	a1,a5,0x3
    6f80:	bc65                	j	6a38 <__divdf3+0x214>
    6f82:	f0eeefe3          	bltu	t4,a4,6ea0 <__divdf3+0x67c>
    6f86:	85b6                	mv	a1,a3
    6f88:	f3d718e3          	bne	a4,t4,6eb8 <__divdf3+0x694>
    6f8c:	bc71                	j	6a28 <__divdf3+0x204>
    6f8e:	4605                	li	a2,1
    6f90:	4701                	li	a4,0
    6f92:	00f47793          	andi	a5,s0,15
    6f96:	4591                	li	a1,4
    6f98:	d6b78ae3          	beq	a5,a1,6d0c <__divdf3+0x4e8>
    6f9c:	00440793          	addi	a5,s0,4
    6fa0:	0087b433          	sltu	s0,a5,s0
    6fa4:	9722                	add	a4,a4,s0
    6fa6:	843e                	mv	s0,a5
    6fa8:	b395                	j	6d0c <__divdf3+0x4e8>
    6faa:	55fd                	li	a1,-1
    6fac:	c0100993          	li	s3,-1023
    6fb0:	88a2                	mv	a7,s0
    6fb2:	d0081ce3          	bnez	a6,6cca <__divdf3+0x4a6>
    6fb6:	ff85b793          	sltiu	a5,a1,-8
    6fba:	0017c793          	xori	a5,a5,1
    6fbe:	943e                	add	s0,s0,a5
    6fc0:	b329                	j	6cca <__divdf3+0x4a6>
    6fc2:	88a2                	mv	a7,s0
    6fc4:	55fd                	li	a1,-1
    6fc6:	c0100993          	li	s3,-1023
    6fca:	d00800e3          	beqz	a6,6cca <__divdf3+0x4a6>
    6fce:	b7e5                	j	6fb6 <__divdf3+0x792>
    6fd0:	4605                	li	a2,1
    6fd2:	4701                	li	a4,0
    6fd4:	d2081ce3          	bnez	a6,6d0c <__divdf3+0x4e8>
    6fd8:	00840793          	addi	a5,s0,8
    6fdc:	0087b433          	sltu	s0,a5,s0
    6fe0:	9722                	add	a4,a4,s0
    6fe2:	843e                	mv	s0,a5
    6fe4:	b325                	j	6d0c <__divdf3+0x4e8>
    6fe6:	4605                	li	a2,1
    6fe8:	4701                	li	a4,0
    6fea:	d20801e3          	beqz	a6,6d0c <__divdf3+0x4e8>
    6fee:	b7ed                	j	6fd8 <__divdf3+0x7b4>
    6ff0:	ffc5b793          	sltiu	a5,a1,-4
    6ff4:	0017c793          	xori	a5,a5,1
    6ff8:	0591                	addi	a1,a1,4
    6ffa:	818d                	srli	a1,a1,0x3
    6ffc:	943e                	add	s0,s0,a5
    6ffe:	bc2d                	j	6a38 <__divdf3+0x214>
    7000:	55fd                	li	a1,-1
    7002:	c0100993          	li	s3,-1023
    7006:	b70d                	j	6f28 <__divdf3+0x704>
    7008:	88a2                	mv	a7,s0
    700a:	4605                	li	a2,1
    700c:	b1e9                	j	6cd6 <__divdf3+0x4b2>

0000700e <__muldf3>:
    700e:	7139                	addi	sp,sp,-64
    7010:	d452                	sw	s4,40(sp)
    7012:	de06                	sw	ra,60(sp)
    7014:	dc22                	sw	s0,56(sp)
    7016:	da26                	sw	s1,52(sp)
    7018:	d84a                	sw	s2,48(sp)
    701a:	d64e                	sw	s3,44(sp)
    701c:	d256                	sw	s5,36(sp)
    701e:	d05a                	sw	s6,32(sp)
    7020:	ce5e                	sw	s7,28(sp)
    7022:	cc62                	sw	s8,24(sp)
    7024:	ca66                	sw	s9,20(sp)
    7026:	8a2a                	mv	s4,a0
    7028:	00202b73          	frrm	s6
    702c:	0145d913          	srli	s2,a1,0x14
    7030:	00c59993          	slli	s3,a1,0xc
    7034:	7ff97913          	andi	s2,s2,2047
    7038:	00c9d993          	srli	s3,s3,0xc
    703c:	01f5db93          	srli	s7,a1,0x1f
    7040:	12090e63          	beqz	s2,717c <__muldf3+0x16e>
    7044:	7ff00793          	li	a5,2047
    7048:	16f90d63          	beq	s2,a5,71c2 <__muldf3+0x1b4>
    704c:	01d55413          	srli	s0,a0,0x1d
    7050:	098e                	slli	s3,s3,0x3
    7052:	013469b3          	or	s3,s0,s3
    7056:	00800437          	lui	s0,0x800
    705a:	0089e433          	or	s0,s3,s0
    705e:	00351493          	slli	s1,a0,0x3
    7062:	c0190913          	addi	s2,s2,-1023
    7066:	4a01                	li	s4,0
    7068:	4c81                	li	s9,0
    706a:	4a81                	li	s5,0
    706c:	0146d793          	srli	a5,a3,0x14
    7070:	00c69993          	slli	s3,a3,0xc
    7074:	7ff7f793          	andi	a5,a5,2047
    7078:	85b2                	mv	a1,a2
    707a:	00c9d993          	srli	s3,s3,0xc
    707e:	01f6dc13          	srli	s8,a3,0x1f
    7082:	cfd5                	beqz	a5,713e <__muldf3+0x130>
    7084:	7ff00713          	li	a4,2047
    7088:	04e78463          	beq	a5,a4,70d0 <__muldf3+0xc2>
    708c:	00399513          	slli	a0,s3,0x3
    7090:	01d65993          	srli	s3,a2,0x1d
    7094:	00a9e9b3          	or	s3,s3,a0
    7098:	c0178793          	addi	a5,a5,-1023
    709c:	00800537          	lui	a0,0x800
    70a0:	00a9e9b3          	or	s3,s3,a0
    70a4:	00361593          	slli	a1,a2,0x3
    70a8:	993e                	add	s2,s2,a5
    70aa:	4801                	li	a6,0
    70ac:	018bc633          	xor	a2,s7,s8
    70b0:	47bd                	li	a5,15
    70b2:	86b2                	mv	a3,a2
    70b4:	00190713          	addi	a4,s2,1
    70b8:	1747ef63          	bltu	a5,s4,7236 <__muldf3+0x228>
    70bc:	00007517          	auipc	a0,0x7
    70c0:	afc50513          	addi	a0,a0,-1284 # dbb8 <__clz_tab+0x140>
    70c4:	0a0a                	slli	s4,s4,0x2
    70c6:	9a2a                	add	s4,s4,a0
    70c8:	000a2783          	lw	a5,0(s4)
    70cc:	97aa                	add	a5,a5,a0
    70ce:	8782                	jr	a5
    70d0:	00c9e633          	or	a2,s3,a2
    70d4:	7ff90913          	addi	s2,s2,2047
    70d8:	12060863          	beqz	a2,7208 <__muldf3+0x1fa>
    70dc:	00c99793          	slli	a5,s3,0xc
    70e0:	003a6a13          	ori	s4,s4,3
    70e4:	480d                	li	a6,3
    70e6:	fc07c3e3          	bltz	a5,70ac <__muldf3+0x9e>
    70ea:	4ac1                	li	s5,16
    70ec:	b7c1                	j	70ac <__muldf3+0x9e>
    70ee:	86e2                	mv	a3,s8
    70f0:	844e                	mv	s0,s3
    70f2:	84ae                	mv	s1,a1
    70f4:	8cc2                	mv	s9,a6
    70f6:	4789                	li	a5,2
    70f8:	12fc8963          	beq	s9,a5,722a <__muldf3+0x21c>
    70fc:	478d                	li	a5,3
    70fe:	10fc8b63          	beq	s9,a5,7214 <__muldf3+0x206>
    7102:	4785                	li	a5,1
    7104:	8636                	mv	a2,a3
    7106:	4cfc9263          	bne	s9,a5,75ca <__muldf3+0x5bc>
    710a:	4701                	li	a4,0
    710c:	4781                	li	a5,0
    710e:	4401                	li	s0,0
    7110:	07b2                	slli	a5,a5,0xc
    7112:	0752                	slli	a4,a4,0x14
    7114:	83b1                	srli	a5,a5,0xc
    7116:	067e                	slli	a2,a2,0x1f
    7118:	8fd9                	or	a5,a5,a4
    711a:	8fd1                	or	a5,a5,a2
    711c:	8522                	mv	a0,s0
    711e:	85be                	mv	a1,a5
    7120:	340a9963          	bnez	s5,7472 <__muldf3+0x464>
    7124:	50f2                	lw	ra,60(sp)
    7126:	5462                	lw	s0,56(sp)
    7128:	54d2                	lw	s1,52(sp)
    712a:	5942                	lw	s2,48(sp)
    712c:	59b2                	lw	s3,44(sp)
    712e:	5a22                	lw	s4,40(sp)
    7130:	5a92                	lw	s5,36(sp)
    7132:	5b02                	lw	s6,32(sp)
    7134:	4bf2                	lw	s7,28(sp)
    7136:	4c62                	lw	s8,24(sp)
    7138:	4cd2                	lw	s9,20(sp)
    713a:	6121                	addi	sp,sp,64
    713c:	8082                	ret
    713e:	00c9e7b3          	or	a5,s3,a2
    7142:	cfcd                	beqz	a5,71fc <__muldf3+0x1ee>
    7144:	34098a63          	beqz	s3,7498 <__muldf3+0x48a>
    7148:	854e                	mv	a0,s3
    714a:	c432                	sw	a2,8(sp)
    714c:	8bdfe0ef          	jal	ra,5a08 <__clzsi2>
    7150:	4622                	lw	a2,8(sp)
    7152:	87aa                	mv	a5,a0
    7154:	ff550693          	addi	a3,a0,-11
    7158:	4775                	li	a4,29
    715a:	ff878593          	addi	a1,a5,-8
    715e:	8f15                	sub	a4,a4,a3
    7160:	00b999b3          	sll	s3,s3,a1
    7164:	00e65733          	srl	a4,a2,a4
    7168:	013769b3          	or	s3,a4,s3
    716c:	00b615b3          	sll	a1,a2,a1
    7170:	40f90933          	sub	s2,s2,a5
    7174:	c0d90913          	addi	s2,s2,-1011
    7178:	4801                	li	a6,0
    717a:	bf0d                	j	70ac <__muldf3+0x9e>
    717c:	00a9e433          	or	s0,s3,a0
    7180:	c825                	beqz	s0,71f0 <__muldf3+0x1e2>
    7182:	c636                	sw	a3,12(sp)
    7184:	c432                	sw	a2,8(sp)
    7186:	2e098963          	beqz	s3,7478 <__muldf3+0x46a>
    718a:	854e                	mv	a0,s3
    718c:	87dfe0ef          	jal	ra,5a08 <__clzsi2>
    7190:	4622                	lw	a2,8(sp)
    7192:	46b2                	lw	a3,12(sp)
    7194:	87aa                	mv	a5,a0
    7196:	ff550713          	addi	a4,a0,-11
    719a:	4475                	li	s0,29
    719c:	ff878493          	addi	s1,a5,-8
    71a0:	8c19                	sub	s0,s0,a4
    71a2:	009999b3          	sll	s3,s3,s1
    71a6:	008a5433          	srl	s0,s4,s0
    71aa:	01346433          	or	s0,s0,s3
    71ae:	009a14b3          	sll	s1,s4,s1
    71b2:	c0d00913          	li	s2,-1011
    71b6:	40f90933          	sub	s2,s2,a5
    71ba:	4a01                	li	s4,0
    71bc:	4c81                	li	s9,0
    71be:	4a81                	li	s5,0
    71c0:	b575                	j	706c <__muldf3+0x5e>
    71c2:	00a9e433          	or	s0,s3,a0
    71c6:	cc11                	beqz	s0,71e2 <__muldf3+0x1d4>
    71c8:	00c99793          	slli	a5,s3,0xc
    71cc:	84aa                	mv	s1,a0
    71ce:	844e                	mv	s0,s3
    71d0:	4a31                	li	s4,12
    71d2:	7ff00913          	li	s2,2047
    71d6:	4c8d                	li	s9,3
    71d8:	4ac1                	li	s5,16
    71da:	e807d9e3          	bgez	a5,706c <__muldf3+0x5e>
    71de:	4a81                	li	s5,0
    71e0:	b571                	j	706c <__muldf3+0x5e>
    71e2:	4a21                	li	s4,8
    71e4:	4481                	li	s1,0
    71e6:	7ff00913          	li	s2,2047
    71ea:	4c89                	li	s9,2
    71ec:	4a81                	li	s5,0
    71ee:	bdbd                	j	706c <__muldf3+0x5e>
    71f0:	4a11                	li	s4,4
    71f2:	4481                	li	s1,0
    71f4:	4901                	li	s2,0
    71f6:	4c85                	li	s9,1
    71f8:	4a81                	li	s5,0
    71fa:	bd8d                	j	706c <__muldf3+0x5e>
    71fc:	001a6a13          	ori	s4,s4,1
    7200:	4981                	li	s3,0
    7202:	4581                	li	a1,0
    7204:	4805                	li	a6,1
    7206:	b55d                	j	70ac <__muldf3+0x9e>
    7208:	002a6a13          	ori	s4,s4,2
    720c:	4981                	li	s3,0
    720e:	4581                	li	a1,0
    7210:	4809                	li	a6,2
    7212:	bd69                	j	70ac <__muldf3+0x9e>
    7214:	4601                	li	a2,0
    7216:	7ff00713          	li	a4,2047
    721a:	000807b7          	lui	a5,0x80
    721e:	4401                	li	s0,0
    7220:	bdc5                	j	7110 <__muldf3+0x102>
    7222:	4789                	li	a5,2
    7224:	86de                	mv	a3,s7
    7226:	ecfc9be3          	bne	s9,a5,70fc <__muldf3+0xee>
    722a:	8636                	mv	a2,a3
    722c:	7ff00713          	li	a4,2047
    7230:	4781                	li	a5,0
    7232:	4401                	li	s0,0
    7234:	bdf1                	j	7110 <__muldf3+0x102>
    7236:	6341                	lui	t1,0x10
    7238:	fff30793          	addi	a5,t1,-1 # ffff <_data_lma+0x2237>
    723c:	0104d513          	srli	a0,s1,0x10
    7240:	0105de13          	srli	t3,a1,0x10
    7244:	8cfd                	and	s1,s1,a5
    7246:	8dfd                	and	a1,a1,a5
    7248:	029587b3          	mul	a5,a1,s1
    724c:	02b508b3          	mul	a7,a0,a1
    7250:	0107d393          	srli	t2,a5,0x10
    7254:	029e0833          	mul	a6,t3,s1
    7258:	9846                	add	a6,a6,a7
    725a:	93c2                	add	t2,t2,a6
    725c:	03c50833          	mul	a6,a0,t3
    7260:	0113f363          	bgeu	t2,a7,7266 <__muldf3+0x258>
    7264:	981a                	add	a6,a6,t1
    7266:	6341                	lui	t1,0x10
    7268:	fff30e93          	addi	t4,t1,-1 # ffff <_data_lma+0x2237>
    726c:	0109d293          	srli	t0,s3,0x10
    7270:	01d9f9b3          	and	s3,s3,t4
    7274:	01d3f8b3          	and	a7,t2,t4
    7278:	01d7f7b3          	and	a5,a5,t4
    727c:	08c2                	slli	a7,a7,0x10
    727e:	03348eb3          	mul	t4,s1,s3
    7282:	98be                	add	a7,a7,a5
    7284:	0103d393          	srli	t2,t2,0x10
    7288:	03350fb3          	mul	t6,a0,s3
    728c:	010edf13          	srli	t5,t4,0x10
    7290:	029284b3          	mul	s1,t0,s1
    7294:	94fe                	add	s1,s1,t6
    7296:	94fa                	add	s1,s1,t5
    7298:	025507b3          	mul	a5,a0,t0
    729c:	01f4f363          	bgeu	s1,t6,72a2 <__muldf3+0x294>
    72a0:	979a                	add	a5,a5,t1
    72a2:	6341                	lui	t1,0x10
    72a4:	fff30b93          	addi	s7,t1,-1 # ffff <_data_lma+0x2237>
    72a8:	01045a13          	srli	s4,s0,0x10
    72ac:	01747533          	and	a0,s0,s7
    72b0:	0174ffb3          	and	t6,s1,s7
    72b4:	80c1                	srli	s1,s1,0x10
    72b6:	00f48f33          	add	t5,s1,a5
    72ba:	02a58433          	mul	s0,a1,a0
    72be:	017efeb3          	and	t4,t4,s7
    72c2:	0fc2                	slli	t6,t6,0x10
    72c4:	9ff6                	add	t6,t6,t4
    72c6:	93fe                	add	t2,t2,t6
    72c8:	02ae07b3          	mul	a5,t3,a0
    72cc:	01045e93          	srli	t4,s0,0x10
    72d0:	02ba05b3          	mul	a1,s4,a1
    72d4:	97ae                	add	a5,a5,a1
    72d6:	9ebe                	add	t4,t4,a5
    72d8:	034e0e33          	mul	t3,t3,s4
    72dc:	00bef363          	bgeu	t4,a1,72e2 <__muldf3+0x2d4>
    72e0:	9e1a                	add	t3,t3,t1
    72e2:	67c1                	lui	a5,0x10
    72e4:	fff78593          	addi	a1,a5,-1 # ffff <_data_lma+0x2237>
    72e8:	00bef333          	and	t1,t4,a1
    72ec:	8c6d                	and	s0,s0,a1
    72ee:	0342                	slli	t1,t1,0x10
    72f0:	9322                	add	t1,t1,s0
    72f2:	010ede93          	srli	t4,t4,0x10
    72f6:	033505b3          	mul	a1,a0,s3
    72fa:	9e76                	add	t3,t3,t4
    72fc:	02a28533          	mul	a0,t0,a0
    7300:	0105d413          	srli	s0,a1,0x10
    7304:	033a09b3          	mul	s3,s4,s3
    7308:	954e                	add	a0,a0,s3
    730a:	9522                	add	a0,a0,s0
    730c:	034282b3          	mul	t0,t0,s4
    7310:	01357363          	bgeu	a0,s3,7316 <__muldf3+0x308>
    7314:	92be                	add	t0,t0,a5
    7316:	6ec1                	lui	t4,0x10
    7318:	1efd                	addi	t4,t4,-1
    731a:	01d577b3          	and	a5,a0,t4
    731e:	07c2                	slli	a5,a5,0x10
    7320:	01d5feb3          	and	t4,a1,t4
    7324:	97f6                	add	a5,a5,t4
    7326:	007805b3          	add	a1,a6,t2
    732a:	01f5bfb3          	sltu	t6,a1,t6
    732e:	97fa                	add	a5,a5,t5
    7330:	959a                	add	a1,a1,t1
    7332:	01f78433          	add	s0,a5,t6
    7336:	0065b833          	sltu	a6,a1,t1
    733a:	01c40eb3          	add	t4,s0,t3
    733e:	010e8333          	add	t1,t4,a6
    7342:	01f43433          	sltu	s0,s0,t6
    7346:	01e7b7b3          	sltu	a5,a5,t5
    734a:	8fc1                	or	a5,a5,s0
    734c:	01033833          	sltu	a6,t1,a6
    7350:	01055413          	srli	s0,a0,0x10
    7354:	01cebe33          	sltu	t3,t4,t3
    7358:	943e                	add	s0,s0,a5
    735a:	010e6833          	or	a6,t3,a6
    735e:	9442                	add	s0,s0,a6
    7360:	00959493          	slli	s1,a1,0x9
    7364:	9416                	add	s0,s0,t0
    7366:	01735513          	srli	a0,t1,0x17
    736a:	0114e4b3          	or	s1,s1,a7
    736e:	0426                	slli	s0,s0,0x9
    7370:	009034b3          	snez	s1,s1
    7374:	81dd                	srli	a1,a1,0x17
    7376:	8c49                	or	s0,s0,a0
    7378:	8ccd                	or	s1,s1,a1
    737a:	0326                	slli	t1,t1,0x9
    737c:	00741793          	slli	a5,s0,0x7
    7380:	0064e4b3          	or	s1,s1,t1
    7384:	0007db63          	bgez	a5,739a <__muldf3+0x38c>
    7388:	0014d793          	srli	a5,s1,0x1
    738c:	8885                	andi	s1,s1,1
    738e:	01f41593          	slli	a1,s0,0x1f
    7392:	8cdd                	or	s1,s1,a5
    7394:	8ccd                	or	s1,s1,a1
    7396:	8005                	srli	s0,s0,0x1
    7398:	893a                	mv	s2,a4
    739a:	3ff90713          	addi	a4,s2,1023
    739e:	04e05963          	blez	a4,73f0 <__muldf3+0x3e2>
    73a2:	0074f793          	andi	a5,s1,7
    73a6:	cb99                	beqz	a5,73bc <__muldf3+0x3ae>
    73a8:	4789                	li	a5,2
    73aa:	001aea93          	ori	s5,s5,1
    73ae:	20fb0b63          	beq	s6,a5,75c4 <__muldf3+0x5b6>
    73b2:	478d                	li	a5,3
    73b4:	1efb0d63          	beq	s6,a5,75ae <__muldf3+0x5a0>
    73b8:	1c0b0f63          	beqz	s6,7596 <__muldf3+0x588>
    73bc:	00741793          	slli	a5,s0,0x7
    73c0:	0007d863          	bgez	a5,73d0 <__muldf3+0x3c2>
    73c4:	ff0007b7          	lui	a5,0xff000
    73c8:	17fd                	addi	a5,a5,-1
    73ca:	8c7d                	and	s0,s0,a5
    73cc:	40090713          	addi	a4,s2,1024
    73d0:	7fe00793          	li	a5,2046
    73d4:	10e7c963          	blt	a5,a4,74e6 <__muldf3+0x4d8>
    73d8:	0034d693          	srli	a3,s1,0x3
    73dc:	00941793          	slli	a5,s0,0x9
    73e0:	01d41493          	slli	s1,s0,0x1d
    73e4:	00d4e433          	or	s0,s1,a3
    73e8:	83b1                	srli	a5,a5,0xc
    73ea:	7ff77713          	andi	a4,a4,2047
    73ee:	b30d                	j	7110 <__muldf3+0x102>
    73f0:	4785                	li	a5,1
    73f2:	8f99                	sub	a5,a5,a4
    73f4:	e379                	bnez	a4,74ba <__muldf3+0x4ac>
    73f6:	0074f593          	andi	a1,s1,7
    73fa:	8722                	mv	a4,s0
    73fc:	cd81                	beqz	a1,7414 <__muldf3+0x406>
    73fe:	4709                	li	a4,2
    7400:	001aea93          	ori	s5,s5,1
    7404:	20eb0963          	beq	s6,a4,7616 <__muldf3+0x608>
    7408:	470d                	li	a4,3
    740a:	1eeb0d63          	beq	s6,a4,7604 <__muldf3+0x5f6>
    740e:	8722                	mv	a4,s0
    7410:	1c0b0f63          	beqz	s6,75ee <__muldf3+0x5e0>
    7414:	8361                	srli	a4,a4,0x18
    7416:	00174713          	xori	a4,a4,1
    741a:	00177593          	andi	a1,a4,1
    741e:	41e90913          	addi	s2,s2,1054
    7422:	01249733          	sll	a4,s1,s2
    7426:	01241933          	sll	s2,s0,s2
    742a:	00f4d4b3          	srl	s1,s1,a5
    742e:	00e03733          	snez	a4,a4
    7432:	009964b3          	or	s1,s2,s1
    7436:	8cd9                	or	s1,s1,a4
    7438:	0074f513          	andi	a0,s1,7
    743c:	00f45733          	srl	a4,s0,a5
    7440:	c919                	beqz	a0,7456 <__muldf3+0x448>
    7442:	4789                	li	a5,2
    7444:	001aea93          	ori	s5,s5,1
    7448:	1efb0863          	beq	s6,a5,7638 <__muldf3+0x62a>
    744c:	478d                	li	a5,3
    744e:	1cfb0a63          	beq	s6,a5,7622 <__muldf3+0x614>
    7452:	1e0b0863          	beqz	s6,7642 <__muldf3+0x634>
    7456:	00871793          	slli	a5,a4,0x8
    745a:	1807d063          	bgez	a5,75da <__muldf3+0x5cc>
    745e:	001aea93          	ori	s5,s5,1
    7462:	16059663          	bnez	a1,75ce <__muldf3+0x5c0>
    7466:	067e                	slli	a2,a2,0x1f
    7468:	001007b7          	lui	a5,0x100
    746c:	8fd1                	or	a5,a5,a2
    746e:	4501                	li	a0,0
    7470:	85be                	mv	a1,a5
    7472:	001aa073          	csrs	fflags,s5
    7476:	b17d                	j	7124 <__muldf3+0x116>
    7478:	d90fe0ef          	jal	ra,5a08 <__clzsi2>
    747c:	01550713          	addi	a4,a0,21
    7480:	45f1                	li	a1,28
    7482:	02050793          	addi	a5,a0,32
    7486:	4622                	lw	a2,8(sp)
    7488:	46b2                	lw	a3,12(sp)
    748a:	d0e5d8e3          	bge	a1,a4,719a <__muldf3+0x18c>
    748e:	1561                	addi	a0,a0,-8
    7490:	00aa1433          	sll	s0,s4,a0
    7494:	4481                	li	s1,0
    7496:	bb31                	j	71b2 <__muldf3+0x1a4>
    7498:	8532                	mv	a0,a2
    749a:	c432                	sw	a2,8(sp)
    749c:	d6cfe0ef          	jal	ra,5a08 <__clzsi2>
    74a0:	01550693          	addi	a3,a0,21
    74a4:	4771                	li	a4,28
    74a6:	02050793          	addi	a5,a0,32
    74aa:	4622                	lw	a2,8(sp)
    74ac:	cad756e3          	bge	a4,a3,7158 <__muldf3+0x14a>
    74b0:	1561                	addi	a0,a0,-8
    74b2:	4581                	li	a1,0
    74b4:	00a619b3          	sll	s3,a2,a0
    74b8:	b965                	j	7170 <__muldf3+0x162>
    74ba:	03800593          	li	a1,56
    74be:	06f5d963          	bge	a1,a5,7530 <__muldf3+0x522>
    74c2:	8c45                	or	s0,s0,s1
    74c4:	cc01                	beqz	s0,74dc <__muldf3+0x4ce>
    74c6:	4789                	li	a5,2
    74c8:	001aea93          	ori	s5,s5,1
    74cc:	00d03433          	snez	s0,a3
    74d0:	00fb0663          	beq	s6,a5,74dc <__muldf3+0x4ce>
    74d4:	478d                	li	a5,3
    74d6:	4401                	li	s0,0
    74d8:	18fb0163          	beq	s6,a5,765a <__muldf3+0x64c>
    74dc:	002aea93          	ori	s5,s5,2
    74e0:	4681                	li	a3,0
    74e2:	4781                	li	a5,0
    74e4:	a015                	j	7508 <__muldf3+0x4fa>
    74e6:	4789                	li	a5,2
    74e8:	0cfb0c63          	beq	s6,a5,75c0 <__muldf3+0x5b2>
    74ec:	478d                	li	a5,3
    74ee:	08fb0e63          	beq	s6,a5,758a <__muldf3+0x57c>
    74f2:	080b0d63          	beqz	s6,758c <__muldf3+0x57e>
    74f6:	00100437          	lui	s0,0x100
    74fa:	fff40793          	addi	a5,s0,-1 # fffff <_data_lma+0xf2237>
    74fe:	7fe00693          	li	a3,2046
    7502:	547d                	li	s0,-1
    7504:	005aea93          	ori	s5,s5,5
    7508:	00c79713          	slli	a4,a5,0xc
    750c:	8331                	srli	a4,a4,0xc
    750e:	01469793          	slli	a5,a3,0x14
    7512:	067e                	slli	a2,a2,0x1f
    7514:	8fd9                	or	a5,a5,a4
    7516:	8fd1                	or	a5,a5,a2
    7518:	8522                	mv	a0,s0
    751a:	85be                	mv	a1,a5
    751c:	001aa073          	csrs	fflags,s5
    7520:	b111                	j	7124 <__muldf3+0x116>
    7522:	4501                	li	a0,0
    7524:	7ff805b7          	lui	a1,0x7ff80
    7528:	4ac1                	li	s5,16
    752a:	001aa073          	csrs	fflags,s5
    752e:	bedd                	j	7124 <__muldf3+0x116>
    7530:	45fd                	li	a1,31
    7532:	12f5d763          	bge	a1,a5,7660 <__muldf3+0x652>
    7536:	5585                	li	a1,-31
    7538:	40e58733          	sub	a4,a1,a4
    753c:	02000593          	li	a1,32
    7540:	00e45733          	srl	a4,s0,a4
    7544:	00b78763          	beq	a5,a1,7552 <__muldf3+0x544>
    7548:	43e90913          	addi	s2,s2,1086
    754c:	01241433          	sll	s0,s0,s2
    7550:	8cc1                	or	s1,s1,s0
    7552:	009034b3          	snez	s1,s1
    7556:	8cd9                	or	s1,s1,a4
    7558:	0074f793          	andi	a5,s1,7
    755c:	cb99                	beqz	a5,7572 <__muldf3+0x564>
    755e:	4789                	li	a5,2
    7560:	001aea93          	ori	s5,s5,1
    7564:	0cfb0863          	beq	s6,a5,7634 <__muldf3+0x626>
    7568:	478d                	li	a5,3
    756a:	0afb0a63          	beq	s6,a5,761e <__muldf3+0x610>
    756e:	0c0b0863          	beqz	s6,763e <__muldf3+0x630>
    7572:	0034d413          	srli	s0,s1,0x3
    7576:	4781                	li	a5,0
    7578:	001af693          	andi	a3,s5,1
    757c:	4701                	li	a4,0
    757e:	b80689e3          	beqz	a3,7110 <__muldf3+0x102>
    7582:	4681                	li	a3,0
    7584:	002aea93          	ori	s5,s5,2
    7588:	b741                	j	7508 <__muldf3+0x4fa>
    758a:	f6b5                	bnez	a3,74f6 <__muldf3+0x4e8>
    758c:	7ff00693          	li	a3,2047
    7590:	4781                	li	a5,0
    7592:	4401                	li	s0,0
    7594:	bf85                	j	7504 <__muldf3+0x4f6>
    7596:	00f4f793          	andi	a5,s1,15
    759a:	4591                	li	a1,4
    759c:	e2b780e3          	beq	a5,a1,73bc <__muldf3+0x3ae>
    75a0:	00448793          	addi	a5,s1,4
    75a4:	0097b4b3          	sltu	s1,a5,s1
    75a8:	9426                	add	s0,s0,s1
    75aa:	84be                	mv	s1,a5
    75ac:	bd01                	j	73bc <__muldf3+0x3ae>
    75ae:	e00697e3          	bnez	a3,73bc <__muldf3+0x3ae>
    75b2:	00848793          	addi	a5,s1,8
    75b6:	0097b4b3          	sltu	s1,a5,s1
    75ba:	9426                	add	s0,s0,s1
    75bc:	84be                	mv	s1,a5
    75be:	bbfd                	j	73bc <__muldf3+0x3ae>
    75c0:	da9d                	beqz	a3,74f6 <__muldf3+0x4e8>
    75c2:	b7e9                	j	758c <__muldf3+0x57e>
    75c4:	de068ce3          	beqz	a3,73bc <__muldf3+0x3ae>
    75c8:	b7ed                	j	75b2 <__muldf3+0x5a4>
    75ca:	893a                	mv	s2,a4
    75cc:	b3f9                	j	739a <__muldf3+0x38c>
    75ce:	4685                	li	a3,1
    75d0:	4781                	li	a5,0
    75d2:	4401                	li	s0,0
    75d4:	002aea93          	ori	s5,s5,2
    75d8:	bf05                	j	7508 <__muldf3+0x4fa>
    75da:	00971793          	slli	a5,a4,0x9
    75de:	0034d413          	srli	s0,s1,0x3
    75e2:	0776                	slli	a4,a4,0x1d
    75e4:	83b1                	srli	a5,a5,0xc
    75e6:	8c59                	or	s0,s0,a4
    75e8:	f9c1                	bnez	a1,7578 <__muldf3+0x56a>
    75ea:	4701                	li	a4,0
    75ec:	b615                	j	7110 <__muldf3+0x102>
    75ee:	00f4f593          	andi	a1,s1,15
    75f2:	4511                	li	a0,4
    75f4:	e2a580e3          	beq	a1,a0,7414 <__muldf3+0x406>
    75f8:	ffc4b713          	sltiu	a4,s1,-4
    75fc:	00174713          	xori	a4,a4,1
    7600:	9722                	add	a4,a4,s0
    7602:	bd09                	j	7414 <__muldf3+0x406>
    7604:	8722                	mv	a4,s0
    7606:	e00697e3          	bnez	a3,7414 <__muldf3+0x406>
    760a:	ff84b713          	sltiu	a4,s1,-8
    760e:	00174713          	xori	a4,a4,1
    7612:	9722                	add	a4,a4,s0
    7614:	b501                	j	7414 <__muldf3+0x406>
    7616:	8722                	mv	a4,s0
    7618:	de068ee3          	beqz	a3,7414 <__muldf3+0x406>
    761c:	b7fd                	j	760a <__muldf3+0x5fc>
    761e:	4585                	li	a1,1
    7620:	4701                	li	a4,0
    7622:	e2069ae3          	bnez	a3,7456 <__muldf3+0x448>
    7626:	00848793          	addi	a5,s1,8
    762a:	0097b4b3          	sltu	s1,a5,s1
    762e:	9726                	add	a4,a4,s1
    7630:	84be                	mv	s1,a5
    7632:	b515                	j	7456 <__muldf3+0x448>
    7634:	4585                	li	a1,1
    7636:	4701                	li	a4,0
    7638:	e0068fe3          	beqz	a3,7456 <__muldf3+0x448>
    763c:	b7ed                	j	7626 <__muldf3+0x618>
    763e:	4585                	li	a1,1
    7640:	4701                	li	a4,0
    7642:	00f4f793          	andi	a5,s1,15
    7646:	4691                	li	a3,4
    7648:	e0d787e3          	beq	a5,a3,7456 <__muldf3+0x448>
    764c:	00448793          	addi	a5,s1,4
    7650:	0097b4b3          	sltu	s1,a5,s1
    7654:	9726                	add	a4,a4,s1
    7656:	84be                	mv	s1,a5
    7658:	bbfd                	j	7456 <__muldf3+0x448>
    765a:	0016b413          	seqz	s0,a3
    765e:	bdbd                	j	74dc <__muldf3+0x4ce>
    7660:	4585                	li	a1,1
    7662:	bb75                	j	741e <__muldf3+0x410>

00007664 <__fixunsdfsi>:
    7664:	002027f3          	frrm	a5
    7668:	00100637          	lui	a2,0x100
    766c:	0145d713          	srli	a4,a1,0x14
    7670:	fff60793          	addi	a5,a2,-1 # fffff <_data_lma+0xf2237>
    7674:	7ff77713          	andi	a4,a4,2047
    7678:	3fe00813          	li	a6,1022
    767c:	8fed                	and	a5,a5,a1
    767e:	86aa                	mv	a3,a0
    7680:	81fd                	srli	a1,a1,0x1f
    7682:	00e84f63          	blt	a6,a4,76a0 <__fixunsdfsi+0x3c>
    7686:	c711                	beqz	a4,7692 <__fixunsdfsi+0x2e>
    7688:	4501                	li	a0,0
    768a:	4685                	li	a3,1
    768c:	0016a073          	csrs	fflags,a3
    7690:	8082                	ret
    7692:	8fc9                	or	a5,a5,a0
    7694:	4501                	li	a0,0
    7696:	c385                	beqz	a5,76b6 <__fixunsdfsi+0x52>
    7698:	4685                	li	a3,1
    769a:	0016a073          	csrs	fflags,a3
    769e:	8082                	ret
    76a0:	c581                	beqz	a1,76a8 <__fixunsdfsi+0x44>
    76a2:	4501                	li	a0,0
    76a4:	46c1                	li	a3,16
    76a6:	b7dd                	j	768c <__fixunsdfsi+0x28>
    76a8:	41e00593          	li	a1,1054
    76ac:	00e5d663          	bge	a1,a4,76b8 <__fixunsdfsi+0x54>
    76b0:	557d                	li	a0,-1
    76b2:	46c1                	li	a3,16
    76b4:	bfe1                	j	768c <__fixunsdfsi+0x28>
    76b6:	8082                	ret
    76b8:	43300593          	li	a1,1075
    76bc:	8d99                	sub	a1,a1,a4
    76be:	487d                	li	a6,31
    76c0:	8fd1                	or	a5,a5,a2
    76c2:	00b84f63          	blt	a6,a1,76e0 <__fixunsdfsi+0x7c>
    76c6:	bed70713          	addi	a4,a4,-1043
    76ca:	00e516b3          	sll	a3,a0,a4
    76ce:	00e79733          	sll	a4,a5,a4
    76d2:	00b55533          	srl	a0,a0,a1
    76d6:	00d036b3          	snez	a3,a3
    76da:	8d59                	or	a0,a0,a4
    76dc:	fac5                	bnez	a3,768c <__fixunsdfsi+0x28>
    76de:	8082                	ret
    76e0:	02000613          	li	a2,32
    76e4:	00c58763          	beq	a1,a2,76f2 <__fixunsdfsi+0x8e>
    76e8:	c0d70693          	addi	a3,a4,-1011
    76ec:	00d796b3          	sll	a3,a5,a3
    76f0:	8ec9                	or	a3,a3,a0
    76f2:	41300513          	li	a0,1043
    76f6:	8d19                	sub	a0,a0,a4
    76f8:	00d036b3          	snez	a3,a3
    76fc:	00a7d533          	srl	a0,a5,a0
    7700:	bff1                	j	76dc <__fixunsdfsi+0x78>

00007702 <__floatsidf>:
    7702:	1141                	addi	sp,sp,-16
    7704:	c606                	sw	ra,12(sp)
    7706:	c422                	sw	s0,8(sp)
    7708:	c226                	sw	s1,4(sp)
    770a:	cd0d                	beqz	a0,7744 <__floatsidf+0x42>
    770c:	41f55793          	srai	a5,a0,0x1f
    7710:	00a7c4b3          	xor	s1,a5,a0
    7714:	8c9d                	sub	s1,s1,a5
    7716:	842a                	mv	s0,a0
    7718:	8526                	mv	a0,s1
    771a:	aeefe0ef          	jal	ra,5a08 <__clzsi2>
    771e:	41e00693          	li	a3,1054
    7722:	8e89                	sub	a3,a3,a0
    7724:	47a9                	li	a5,10
    7726:	807d                	srli	s0,s0,0x1f
    7728:	7ff6f693          	andi	a3,a3,2047
    772c:	02a7cd63          	blt	a5,a0,7766 <__floatsidf+0x64>
    7730:	472d                	li	a4,11
    7732:	8f09                	sub	a4,a4,a0
    7734:	00e4d7b3          	srl	a5,s1,a4
    7738:	0555                	addi	a0,a0,21
    773a:	07b2                	slli	a5,a5,0xc
    773c:	00a494b3          	sll	s1,s1,a0
    7740:	83b1                	srli	a5,a5,0xc
    7742:	a029                	j	774c <__floatsidf+0x4a>
    7744:	4401                	li	s0,0
    7746:	4681                	li	a3,0
    7748:	4781                	li	a5,0
    774a:	4481                	li	s1,0
    774c:	07b2                	slli	a5,a5,0xc
    774e:	06d2                	slli	a3,a3,0x14
    7750:	83b1                	srli	a5,a5,0xc
    7752:	047e                	slli	s0,s0,0x1f
    7754:	8fd5                	or	a5,a5,a3
    7756:	8fc1                	or	a5,a5,s0
    7758:	40b2                	lw	ra,12(sp)
    775a:	4422                	lw	s0,8(sp)
    775c:	8526                	mv	a0,s1
    775e:	85be                	mv	a1,a5
    7760:	4492                	lw	s1,4(sp)
    7762:	0141                	addi	sp,sp,16
    7764:	8082                	ret
    7766:	1555                	addi	a0,a0,-11
    7768:	00a497b3          	sll	a5,s1,a0
    776c:	07b2                	slli	a5,a5,0xc
    776e:	83b1                	srli	a5,a5,0xc
    7770:	4481                	li	s1,0
    7772:	bfe9                	j	774c <__floatsidf+0x4a>

00007774 <__sflush_r>:
    7774:	00c5d783          	lhu	a5,12(a1) # 7ff8000c <_eusrstack+0x5ff7000c>
    7778:	1101                	addi	sp,sp,-32
    777a:	cc22                	sw	s0,24(sp)
    777c:	ca26                	sw	s1,20(sp)
    777e:	ce06                	sw	ra,28(sp)
    7780:	c84a                	sw	s2,16(sp)
    7782:	c64e                	sw	s3,12(sp)
    7784:	0087f713          	andi	a4,a5,8
    7788:	84aa                	mv	s1,a0
    778a:	842e                	mv	s0,a1
    778c:	ef71                	bnez	a4,7868 <__sflush_r+0xf4>
    778e:	41d8                	lw	a4,4(a1)
    7790:	00e04d63          	bgtz	a4,77aa <__sflush_r+0x36>
    7794:	41b8                	lw	a4,64(a1)
    7796:	00e04a63          	bgtz	a4,77aa <__sflush_r+0x36>
    779a:	4501                	li	a0,0
    779c:	40f2                	lw	ra,28(sp)
    779e:	4462                	lw	s0,24(sp)
    77a0:	44d2                	lw	s1,20(sp)
    77a2:	4942                	lw	s2,16(sp)
    77a4:	49b2                	lw	s3,12(sp)
    77a6:	6105                	addi	sp,sp,32
    77a8:	8082                	ret
    77aa:	5458                	lw	a4,44(s0)
    77ac:	d77d                	beqz	a4,779a <__sflush_r+0x26>
    77ae:	0004a903          	lw	s2,0(s1)
    77b2:	01379693          	slli	a3,a5,0x13
    77b6:	0004a023          	sw	zero,0(s1)
    77ba:	0606dd63          	bgez	a3,7834 <__sflush_r+0xc0>
    77be:	4870                	lw	a2,84(s0)
    77c0:	00c45783          	lhu	a5,12(s0)
    77c4:	8b91                	andi	a5,a5,4
    77c6:	c799                	beqz	a5,77d4 <__sflush_r+0x60>
    77c8:	405c                	lw	a5,4(s0)
    77ca:	8e1d                	sub	a2,a2,a5
    77cc:	585c                	lw	a5,52(s0)
    77ce:	c399                	beqz	a5,77d4 <__sflush_r+0x60>
    77d0:	403c                	lw	a5,64(s0)
    77d2:	8e1d                	sub	a2,a2,a5
    77d4:	545c                	lw	a5,44(s0)
    77d6:	500c                	lw	a1,32(s0)
    77d8:	4681                	li	a3,0
    77da:	8526                	mv	a0,s1
    77dc:	9782                	jalr	a5
    77de:	57fd                	li	a5,-1
    77e0:	00c45703          	lhu	a4,12(s0)
    77e4:	00f51d63          	bne	a0,a5,77fe <__sflush_r+0x8a>
    77e8:	4094                	lw	a3,0(s1)
    77ea:	47f5                	li	a5,29
    77ec:	06d7e863          	bltu	a5,a3,785c <__sflush_r+0xe8>
    77f0:	204007b7          	lui	a5,0x20400
    77f4:	0785                	addi	a5,a5,1
    77f6:	00d7d7b3          	srl	a5,a5,a3
    77fa:	8b85                	andi	a5,a5,1
    77fc:	c3a5                	beqz	a5,785c <__sflush_r+0xe8>
    77fe:	481c                	lw	a5,16(s0)
    7800:	00042223          	sw	zero,4(s0)
    7804:	c01c                	sw	a5,0(s0)
    7806:	01371793          	slli	a5,a4,0x13
    780a:	0007d863          	bgez	a5,781a <__sflush_r+0xa6>
    780e:	57fd                	li	a5,-1
    7810:	00f51463          	bne	a0,a5,7818 <__sflush_r+0xa4>
    7814:	409c                	lw	a5,0(s1)
    7816:	e391                	bnez	a5,781a <__sflush_r+0xa6>
    7818:	c868                	sw	a0,84(s0)
    781a:	584c                	lw	a1,52(s0)
    781c:	0124a023          	sw	s2,0(s1)
    7820:	ddad                	beqz	a1,779a <__sflush_r+0x26>
    7822:	04440793          	addi	a5,s0,68
    7826:	00f58463          	beq	a1,a5,782e <__sflush_r+0xba>
    782a:	8526                	mv	a0,s1
    782c:	2931                	jal	7c48 <_free_r>
    782e:	02042a23          	sw	zero,52(s0)
    7832:	b7a5                	j	779a <__sflush_r+0x26>
    7834:	500c                	lw	a1,32(s0)
    7836:	4601                	li	a2,0
    7838:	4685                	li	a3,1
    783a:	8526                	mv	a0,s1
    783c:	9702                	jalr	a4
    783e:	57fd                	li	a5,-1
    7840:	862a                	mv	a2,a0
    7842:	f6f51fe3          	bne	a0,a5,77c0 <__sflush_r+0x4c>
    7846:	409c                	lw	a5,0(s1)
    7848:	dfa5                	beqz	a5,77c0 <__sflush_r+0x4c>
    784a:	4775                	li	a4,29
    784c:	00e78563          	beq	a5,a4,7856 <__sflush_r+0xe2>
    7850:	4759                	li	a4,22
    7852:	04e79463          	bne	a5,a4,789a <__sflush_r+0x126>
    7856:	0124a023          	sw	s2,0(s1)
    785a:	b781                	j	779a <__sflush_r+0x26>
    785c:	04076713          	ori	a4,a4,64
    7860:	00e41623          	sh	a4,12(s0)
    7864:	557d                	li	a0,-1
    7866:	bf1d                	j	779c <__sflush_r+0x28>
    7868:	0105a983          	lw	s3,16(a1)
    786c:	f20987e3          	beqz	s3,779a <__sflush_r+0x26>
    7870:	0005a903          	lw	s2,0(a1)
    7874:	8b8d                	andi	a5,a5,3
    7876:	0135a023          	sw	s3,0(a1)
    787a:	41390933          	sub	s2,s2,s3
    787e:	4701                	li	a4,0
    7880:	e391                	bnez	a5,7884 <__sflush_r+0x110>
    7882:	49d8                	lw	a4,20(a1)
    7884:	c418                	sw	a4,8(s0)
    7886:	f1205ae3          	blez	s2,779a <__sflush_r+0x26>
    788a:	541c                	lw	a5,40(s0)
    788c:	500c                	lw	a1,32(s0)
    788e:	86ca                	mv	a3,s2
    7890:	864e                	mv	a2,s3
    7892:	8526                	mv	a0,s1
    7894:	9782                	jalr	a5
    7896:	00a04963          	bgtz	a0,78a8 <__sflush_r+0x134>
    789a:	00c45783          	lhu	a5,12(s0)
    789e:	0407e793          	ori	a5,a5,64
    78a2:	00f41623          	sh	a5,12(s0)
    78a6:	bf7d                	j	7864 <__sflush_r+0xf0>
    78a8:	99aa                	add	s3,s3,a0
    78aa:	40a90933          	sub	s2,s2,a0
    78ae:	bfe1                	j	7886 <__sflush_r+0x112>

000078b0 <_fflush_r>:
    78b0:	499c                	lw	a5,16(a1)
    78b2:	c3a5                	beqz	a5,7912 <_fflush_r+0x62>
    78b4:	1101                	addi	sp,sp,-32
    78b6:	cc22                	sw	s0,24(sp)
    78b8:	ce06                	sw	ra,28(sp)
    78ba:	842a                	mv	s0,a0
    78bc:	c511                	beqz	a0,78c8 <_fflush_r+0x18>
    78be:	4d1c                	lw	a5,24(a0)
    78c0:	e781                	bnez	a5,78c8 <_fflush_r+0x18>
    78c2:	c62e                	sw	a1,12(sp)
    78c4:	2231                	jal	79d0 <__sinit>
    78c6:	45b2                	lw	a1,12(sp)
    78c8:	00006797          	auipc	a5,0x6
    78cc:	35078793          	addi	a5,a5,848 # dc18 <__sf_fake_stdin>
    78d0:	00f59c63          	bne	a1,a5,78e8 <_fflush_r+0x38>
    78d4:	404c                	lw	a1,4(s0)
    78d6:	00c59783          	lh	a5,12(a1)
    78da:	c79d                	beqz	a5,7908 <_fflush_r+0x58>
    78dc:	8522                	mv	a0,s0
    78de:	4462                	lw	s0,24(sp)
    78e0:	40f2                	lw	ra,28(sp)
    78e2:	6105                	addi	sp,sp,32
    78e4:	e91ff06f          	j	7774 <__sflush_r>
    78e8:	00006797          	auipc	a5,0x6
    78ec:	35078793          	addi	a5,a5,848 # dc38 <__sf_fake_stdout>
    78f0:	00f59463          	bne	a1,a5,78f8 <_fflush_r+0x48>
    78f4:	440c                	lw	a1,8(s0)
    78f6:	b7c5                	j	78d6 <_fflush_r+0x26>
    78f8:	00006797          	auipc	a5,0x6
    78fc:	30078793          	addi	a5,a5,768 # dbf8 <__sf_fake_stderr>
    7900:	fcf59be3          	bne	a1,a5,78d6 <_fflush_r+0x26>
    7904:	444c                	lw	a1,12(s0)
    7906:	bfc1                	j	78d6 <_fflush_r+0x26>
    7908:	40f2                	lw	ra,28(sp)
    790a:	4462                	lw	s0,24(sp)
    790c:	4501                	li	a0,0
    790e:	6105                	addi	sp,sp,32
    7910:	8082                	ret
    7912:	4501                	li	a0,0
    7914:	8082                	ret

00007916 <std>:
    7916:	1141                	addi	sp,sp,-16
    7918:	c422                	sw	s0,8(sp)
    791a:	c606                	sw	ra,12(sp)
    791c:	842a                	mv	s0,a0
    791e:	00b51623          	sh	a1,12(a0)
    7922:	00c51723          	sh	a2,14(a0)
    7926:	00052023          	sw	zero,0(a0)
    792a:	00052223          	sw	zero,4(a0)
    792e:	00052423          	sw	zero,8(a0)
    7932:	06052223          	sw	zero,100(a0)
    7936:	00052823          	sw	zero,16(a0)
    793a:	00052a23          	sw	zero,20(a0)
    793e:	00052c23          	sw	zero,24(a0)
    7942:	4621                	li	a2,8
    7944:	4581                	li	a1,0
    7946:	05c50513          	addi	a0,a0,92
    794a:	9f7f80ef          	jal	ra,340 <memset>
    794e:	00001797          	auipc	a5,0x1
    7952:	d9078793          	addi	a5,a5,-624 # 86de <__sread>
    7956:	d05c                	sw	a5,36(s0)
    7958:	00001797          	auipc	a5,0x1
    795c:	dbc78793          	addi	a5,a5,-580 # 8714 <__swrite>
    7960:	d41c                	sw	a5,40(s0)
    7962:	00001797          	auipc	a5,0x1
    7966:	e0078793          	addi	a5,a5,-512 # 8762 <__sseek>
    796a:	d45c                	sw	a5,44(s0)
    796c:	00001797          	auipc	a5,0x1
    7970:	e2c78793          	addi	a5,a5,-468 # 8798 <__sclose>
    7974:	d000                	sw	s0,32(s0)
    7976:	d81c                	sw	a5,48(s0)
    7978:	40b2                	lw	ra,12(sp)
    797a:	4422                	lw	s0,8(sp)
    797c:	0141                	addi	sp,sp,16
    797e:	8082                	ret

00007980 <_cleanup_r>:
    7980:	00000597          	auipc	a1,0x0
    7984:	f3058593          	addi	a1,a1,-208 # 78b0 <_fflush_r>
    7988:	aa91                	j	7adc <_fwalk_reent>

0000798a <__sfmoreglue>:
    798a:	1141                	addi	sp,sp,-16
    798c:	c226                	sw	s1,4(sp)
    798e:	06800613          	li	a2,104
    7992:	fff58493          	addi	s1,a1,-1
    7996:	02c484b3          	mul	s1,s1,a2
    799a:	c04a                	sw	s2,0(sp)
    799c:	892e                	mv	s2,a1
    799e:	c422                	sw	s0,8(sp)
    79a0:	c606                	sw	ra,12(sp)
    79a2:	07448593          	addi	a1,s1,116
    79a6:	26a9                	jal	7cf0 <_malloc_r>
    79a8:	842a                	mv	s0,a0
    79aa:	cd01                	beqz	a0,79c2 <__sfmoreglue+0x38>
    79ac:	00052023          	sw	zero,0(a0)
    79b0:	01252223          	sw	s2,4(a0)
    79b4:	0531                	addi	a0,a0,12
    79b6:	c408                	sw	a0,8(s0)
    79b8:	06848613          	addi	a2,s1,104
    79bc:	4581                	li	a1,0
    79be:	983f80ef          	jal	ra,340 <memset>
    79c2:	8522                	mv	a0,s0
    79c4:	40b2                	lw	ra,12(sp)
    79c6:	4422                	lw	s0,8(sp)
    79c8:	4492                	lw	s1,4(sp)
    79ca:	4902                	lw	s2,0(sp)
    79cc:	0141                	addi	sp,sp,16
    79ce:	8082                	ret

000079d0 <__sinit>:
    79d0:	4d1c                	lw	a5,24(a0)
    79d2:	e7a5                	bnez	a5,7a3a <__sinit+0x6a>
    79d4:	1141                	addi	sp,sp,-16
    79d6:	c606                	sw	ra,12(sp)
    79d8:	c422                	sw	s0,8(sp)
    79da:	00000797          	auipc	a5,0x0
    79de:	fa678793          	addi	a5,a5,-90 # 7980 <_cleanup_r>
    79e2:	d51c                	sw	a5,40(a0)
    79e4:	83018793          	addi	a5,gp,-2000 # 20000280 <_global_impure_ptr>
    79e8:	439c                	lw	a5,0(a5)
    79ea:	04052423          	sw	zero,72(a0)
    79ee:	04052623          	sw	zero,76(a0)
    79f2:	04052823          	sw	zero,80(a0)
    79f6:	00f51463          	bne	a0,a5,79fe <__sinit+0x2e>
    79fa:	4785                	li	a5,1
    79fc:	cd1c                	sw	a5,24(a0)
    79fe:	842a                	mv	s0,a0
    7a00:	2835                	jal	7a3c <__sfp>
    7a02:	c048                	sw	a0,4(s0)
    7a04:	8522                	mv	a0,s0
    7a06:	281d                	jal	7a3c <__sfp>
    7a08:	c408                	sw	a0,8(s0)
    7a0a:	8522                	mv	a0,s0
    7a0c:	2805                	jal	7a3c <__sfp>
    7a0e:	c448                	sw	a0,12(s0)
    7a10:	4048                	lw	a0,4(s0)
    7a12:	4601                	li	a2,0
    7a14:	4591                	li	a1,4
    7a16:	f01ff0ef          	jal	ra,7916 <std>
    7a1a:	4408                	lw	a0,8(s0)
    7a1c:	4605                	li	a2,1
    7a1e:	45a5                	li	a1,9
    7a20:	ef7ff0ef          	jal	ra,7916 <std>
    7a24:	4448                	lw	a0,12(s0)
    7a26:	4609                	li	a2,2
    7a28:	45c9                	li	a1,18
    7a2a:	eedff0ef          	jal	ra,7916 <std>
    7a2e:	4785                	li	a5,1
    7a30:	cc1c                	sw	a5,24(s0)
    7a32:	40b2                	lw	ra,12(sp)
    7a34:	4422                	lw	s0,8(sp)
    7a36:	0141                	addi	sp,sp,16
    7a38:	8082                	ret
    7a3a:	8082                	ret

00007a3c <__sfp>:
    7a3c:	1141                	addi	sp,sp,-16
    7a3e:	83018793          	addi	a5,gp,-2000 # 20000280 <_global_impure_ptr>
    7a42:	c226                	sw	s1,4(sp)
    7a44:	4384                	lw	s1,0(a5)
    7a46:	c04a                	sw	s2,0(sp)
    7a48:	c606                	sw	ra,12(sp)
    7a4a:	4c9c                	lw	a5,24(s1)
    7a4c:	c422                	sw	s0,8(sp)
    7a4e:	892a                	mv	s2,a0
    7a50:	e781                	bnez	a5,7a58 <__sfp+0x1c>
    7a52:	8526                	mv	a0,s1
    7a54:	f7dff0ef          	jal	ra,79d0 <__sinit>
    7a58:	04848493          	addi	s1,s1,72
    7a5c:	4480                	lw	s0,8(s1)
    7a5e:	40dc                	lw	a5,4(s1)
    7a60:	17fd                	addi	a5,a5,-1
    7a62:	0007d663          	bgez	a5,7a6e <__sfp+0x32>
    7a66:	409c                	lw	a5,0(s1)
    7a68:	cfb9                	beqz	a5,7ac6 <__sfp+0x8a>
    7a6a:	4084                	lw	s1,0(s1)
    7a6c:	bfc5                	j	7a5c <__sfp+0x20>
    7a6e:	00c41703          	lh	a4,12(s0)
    7a72:	e739                	bnez	a4,7ac0 <__sfp+0x84>
    7a74:	77c1                	lui	a5,0xffff0
    7a76:	0785                	addi	a5,a5,1
    7a78:	06042223          	sw	zero,100(s0)
    7a7c:	00042023          	sw	zero,0(s0)
    7a80:	00042223          	sw	zero,4(s0)
    7a84:	00042423          	sw	zero,8(s0)
    7a88:	c45c                	sw	a5,12(s0)
    7a8a:	00042823          	sw	zero,16(s0)
    7a8e:	00042a23          	sw	zero,20(s0)
    7a92:	00042c23          	sw	zero,24(s0)
    7a96:	4621                	li	a2,8
    7a98:	4581                	li	a1,0
    7a9a:	05c40513          	addi	a0,s0,92
    7a9e:	8a3f80ef          	jal	ra,340 <memset>
    7aa2:	02042a23          	sw	zero,52(s0)
    7aa6:	02042c23          	sw	zero,56(s0)
    7aaa:	04042423          	sw	zero,72(s0)
    7aae:	04042623          	sw	zero,76(s0)
    7ab2:	8522                	mv	a0,s0
    7ab4:	40b2                	lw	ra,12(sp)
    7ab6:	4422                	lw	s0,8(sp)
    7ab8:	4492                	lw	s1,4(sp)
    7aba:	4902                	lw	s2,0(sp)
    7abc:	0141                	addi	sp,sp,16
    7abe:	8082                	ret
    7ac0:	06840413          	addi	s0,s0,104
    7ac4:	bf71                	j	7a60 <__sfp+0x24>
    7ac6:	4591                	li	a1,4
    7ac8:	854a                	mv	a0,s2
    7aca:	ec1ff0ef          	jal	ra,798a <__sfmoreglue>
    7ace:	c088                	sw	a0,0(s1)
    7ad0:	fd49                	bnez	a0,7a6a <__sfp+0x2e>
    7ad2:	47b1                	li	a5,12
    7ad4:	00f92023          	sw	a5,0(s2)
    7ad8:	4401                	li	s0,0
    7ada:	bfe1                	j	7ab2 <__sfp+0x76>

00007adc <_fwalk_reent>:
    7adc:	7179                	addi	sp,sp,-48
    7ade:	d422                	sw	s0,40(sp)
    7ae0:	d04a                	sw	s2,32(sp)
    7ae2:	cc52                	sw	s4,24(sp)
    7ae4:	ca56                	sw	s5,20(sp)
    7ae6:	c85a                	sw	s6,16(sp)
    7ae8:	c65e                	sw	s7,12(sp)
    7aea:	d606                	sw	ra,44(sp)
    7aec:	d226                	sw	s1,36(sp)
    7aee:	ce4e                	sw	s3,28(sp)
    7af0:	8a2a                	mv	s4,a0
    7af2:	8aae                	mv	s5,a1
    7af4:	04850413          	addi	s0,a0,72
    7af8:	4901                	li	s2,0
    7afa:	4b05                	li	s6,1
    7afc:	5bfd                	li	s7,-1
    7afe:	ec09                	bnez	s0,7b18 <_fwalk_reent+0x3c>
    7b00:	50b2                	lw	ra,44(sp)
    7b02:	5422                	lw	s0,40(sp)
    7b04:	854a                	mv	a0,s2
    7b06:	5492                	lw	s1,36(sp)
    7b08:	5902                	lw	s2,32(sp)
    7b0a:	49f2                	lw	s3,28(sp)
    7b0c:	4a62                	lw	s4,24(sp)
    7b0e:	4ad2                	lw	s5,20(sp)
    7b10:	4b42                	lw	s6,16(sp)
    7b12:	4bb2                	lw	s7,12(sp)
    7b14:	6145                	addi	sp,sp,48
    7b16:	8082                	ret
    7b18:	4404                	lw	s1,8(s0)
    7b1a:	00442983          	lw	s3,4(s0)
    7b1e:	19fd                	addi	s3,s3,-1
    7b20:	0009d463          	bgez	s3,7b28 <_fwalk_reent+0x4c>
    7b24:	4000                	lw	s0,0(s0)
    7b26:	bfe1                	j	7afe <_fwalk_reent+0x22>
    7b28:	00c4d783          	lhu	a5,12(s1)
    7b2c:	00fb7b63          	bgeu	s6,a5,7b42 <_fwalk_reent+0x66>
    7b30:	00e49783          	lh	a5,14(s1)
    7b34:	01778763          	beq	a5,s7,7b42 <_fwalk_reent+0x66>
    7b38:	85a6                	mv	a1,s1
    7b3a:	8552                	mv	a0,s4
    7b3c:	9a82                	jalr	s5
    7b3e:	00a96933          	or	s2,s2,a0
    7b42:	06848493          	addi	s1,s1,104
    7b46:	bfe1                	j	7b1e <_fwalk_reent+0x42>

00007b48 <memcpy>:
    7b48:	00a5c7b3          	xor	a5,a1,a0
    7b4c:	8b8d                	andi	a5,a5,3
    7b4e:	00c50733          	add	a4,a0,a2
    7b52:	e781                	bnez	a5,7b5a <memcpy+0x12>
    7b54:	478d                	li	a5,3
    7b56:	00c7ee63          	bltu	a5,a2,7b72 <memcpy+0x2a>
    7b5a:	87aa                	mv	a5,a0
    7b5c:	0ae57063          	bgeu	a0,a4,7bfc <memcpy+0xb4>
    7b60:	0005c683          	lbu	a3,0(a1)
    7b64:	0785                	addi	a5,a5,1
    7b66:	0585                	addi	a1,a1,1
    7b68:	fed78fa3          	sb	a3,-1(a5) # fffeffff <_eusrstack+0xdffdffff>
    7b6c:	fee7eae3          	bltu	a5,a4,7b60 <memcpy+0x18>
    7b70:	8082                	ret
    7b72:	00357693          	andi	a3,a0,3
    7b76:	87aa                	mv	a5,a0
    7b78:	ca91                	beqz	a3,7b8c <memcpy+0x44>
    7b7a:	0005c683          	lbu	a3,0(a1)
    7b7e:	0785                	addi	a5,a5,1
    7b80:	0585                	addi	a1,a1,1
    7b82:	fed78fa3          	sb	a3,-1(a5)
    7b86:	0037f693          	andi	a3,a5,3
    7b8a:	b7fd                	j	7b78 <memcpy+0x30>
    7b8c:	ffc77693          	andi	a3,a4,-4
    7b90:	fe068613          	addi	a2,a3,-32 # ffe0 <_data_lma+0x2218>
    7b94:	06c7f063          	bgeu	a5,a2,7bf4 <memcpy+0xac>
    7b98:	0005a383          	lw	t2,0(a1)
    7b9c:	0045a283          	lw	t0,4(a1)
    7ba0:	0085af83          	lw	t6,8(a1)
    7ba4:	00c5af03          	lw	t5,12(a1)
    7ba8:	0105ae83          	lw	t4,16(a1)
    7bac:	0145ae03          	lw	t3,20(a1)
    7bb0:	0185a303          	lw	t1,24(a1)
    7bb4:	01c5a883          	lw	a7,28(a1)
    7bb8:	02458593          	addi	a1,a1,36
    7bbc:	0077a023          	sw	t2,0(a5)
    7bc0:	ffc5a803          	lw	a6,-4(a1)
    7bc4:	0057a223          	sw	t0,4(a5)
    7bc8:	01f7a423          	sw	t6,8(a5)
    7bcc:	01e7a623          	sw	t5,12(a5)
    7bd0:	01d7a823          	sw	t4,16(a5)
    7bd4:	01c7aa23          	sw	t3,20(a5)
    7bd8:	0067ac23          	sw	t1,24(a5)
    7bdc:	0117ae23          	sw	a7,28(a5)
    7be0:	02478793          	addi	a5,a5,36
    7be4:	ff07ae23          	sw	a6,-4(a5)
    7be8:	b775                	j	7b94 <memcpy+0x4c>
    7bea:	4190                	lw	a2,0(a1)
    7bec:	0791                	addi	a5,a5,4
    7bee:	0591                	addi	a1,a1,4
    7bf0:	fec7ae23          	sw	a2,-4(a5)
    7bf4:	fed7ebe3          	bltu	a5,a3,7bea <memcpy+0xa2>
    7bf8:	f6e7e4e3          	bltu	a5,a4,7b60 <memcpy+0x18>
    7bfc:	8082                	ret

00007bfe <memmove>:
    7bfe:	04a5f363          	bgeu	a1,a0,7c44 <memmove+0x46>
    7c02:	00c586b3          	add	a3,a1,a2
    7c06:	02d57f63          	bgeu	a0,a3,7c44 <memmove+0x46>
    7c0a:	fff64593          	not	a1,a2
    7c0e:	4781                	li	a5,0
    7c10:	17fd                	addi	a5,a5,-1
    7c12:	00f59363          	bne	a1,a5,7c18 <memmove+0x1a>
    7c16:	8082                	ret
    7c18:	00f68733          	add	a4,a3,a5
    7c1c:	00074803          	lbu	a6,0(a4)
    7c20:	00c78733          	add	a4,a5,a2
    7c24:	972a                	add	a4,a4,a0
    7c26:	01070023          	sb	a6,0(a4)
    7c2a:	b7dd                	j	7c10 <memmove+0x12>
    7c2c:	00f58733          	add	a4,a1,a5
    7c30:	00074683          	lbu	a3,0(a4)
    7c34:	00f50733          	add	a4,a0,a5
    7c38:	0785                	addi	a5,a5,1
    7c3a:	00d70023          	sb	a3,0(a4)
    7c3e:	fef617e3          	bne	a2,a5,7c2c <memmove+0x2e>
    7c42:	8082                	ret
    7c44:	4781                	li	a5,0
    7c46:	bfe5                	j	7c3e <memmove+0x40>

00007c48 <_free_r>:
    7c48:	c1dd                	beqz	a1,7cee <_free_r+0xa6>
    7c4a:	ffc5a783          	lw	a5,-4(a1)
    7c4e:	1141                	addi	sp,sp,-16
    7c50:	c422                	sw	s0,8(sp)
    7c52:	c606                	sw	ra,12(sp)
    7c54:	c226                	sw	s1,4(sp)
    7c56:	ffc58413          	addi	s0,a1,-4
    7c5a:	0007d363          	bgez	a5,7c60 <_free_r+0x18>
    7c5e:	943e                	add	s0,s0,a5
    7c60:	84aa                	mv	s1,a0
    7c62:	2f4010ef          	jal	ra,8f56 <__malloc_lock>
    7c66:	87418793          	addi	a5,gp,-1932 # 200002c4 <__malloc_free_list>
    7c6a:	439c                	lw	a5,0(a5)
    7c6c:	ef81                	bnez	a5,7c84 <_free_r+0x3c>
    7c6e:	00042223          	sw	zero,4(s0)
    7c72:	8681aa23          	sw	s0,-1932(gp) # 200002c4 <__malloc_free_list>
    7c76:	4422                	lw	s0,8(sp)
    7c78:	40b2                	lw	ra,12(sp)
    7c7a:	8526                	mv	a0,s1
    7c7c:	4492                	lw	s1,4(sp)
    7c7e:	0141                	addi	sp,sp,16
    7c80:	2d80106f          	j	8f58 <__malloc_unlock>
    7c84:	00f47e63          	bgeu	s0,a5,7ca0 <_free_r+0x58>
    7c88:	4014                	lw	a3,0(s0)
    7c8a:	00d40733          	add	a4,s0,a3
    7c8e:	00e79663          	bne	a5,a4,7c9a <_free_r+0x52>
    7c92:	4398                	lw	a4,0(a5)
    7c94:	43dc                	lw	a5,4(a5)
    7c96:	9736                	add	a4,a4,a3
    7c98:	c018                	sw	a4,0(s0)
    7c9a:	c05c                	sw	a5,4(s0)
    7c9c:	bfd9                	j	7c72 <_free_r+0x2a>
    7c9e:	87ba                	mv	a5,a4
    7ca0:	43d8                	lw	a4,4(a5)
    7ca2:	c319                	beqz	a4,7ca8 <_free_r+0x60>
    7ca4:	fee47de3          	bgeu	s0,a4,7c9e <_free_r+0x56>
    7ca8:	4394                	lw	a3,0(a5)
    7caa:	00d78633          	add	a2,a5,a3
    7cae:	00861f63          	bne	a2,s0,7ccc <_free_r+0x84>
    7cb2:	4010                	lw	a2,0(s0)
    7cb4:	96b2                	add	a3,a3,a2
    7cb6:	c394                	sw	a3,0(a5)
    7cb8:	00d78633          	add	a2,a5,a3
    7cbc:	fac71de3          	bne	a4,a2,7c76 <_free_r+0x2e>
    7cc0:	4310                	lw	a2,0(a4)
    7cc2:	4358                	lw	a4,4(a4)
    7cc4:	96b2                	add	a3,a3,a2
    7cc6:	c394                	sw	a3,0(a5)
    7cc8:	c3d8                	sw	a4,4(a5)
    7cca:	b775                	j	7c76 <_free_r+0x2e>
    7ccc:	00c47563          	bgeu	s0,a2,7cd6 <_free_r+0x8e>
    7cd0:	47b1                	li	a5,12
    7cd2:	c09c                	sw	a5,0(s1)
    7cd4:	b74d                	j	7c76 <_free_r+0x2e>
    7cd6:	4010                	lw	a2,0(s0)
    7cd8:	00c406b3          	add	a3,s0,a2
    7cdc:	00d71663          	bne	a4,a3,7ce8 <_free_r+0xa0>
    7ce0:	4314                	lw	a3,0(a4)
    7ce2:	4358                	lw	a4,4(a4)
    7ce4:	96b2                	add	a3,a3,a2
    7ce6:	c014                	sw	a3,0(s0)
    7ce8:	c058                	sw	a4,4(s0)
    7cea:	c3c0                	sw	s0,4(a5)
    7cec:	b769                	j	7c76 <_free_r+0x2e>
    7cee:	8082                	ret

00007cf0 <_malloc_r>:
    7cf0:	1101                	addi	sp,sp,-32
    7cf2:	ca26                	sw	s1,20(sp)
    7cf4:	00358493          	addi	s1,a1,3
    7cf8:	98f1                	andi	s1,s1,-4
    7cfa:	ce06                	sw	ra,28(sp)
    7cfc:	cc22                	sw	s0,24(sp)
    7cfe:	c84a                	sw	s2,16(sp)
    7d00:	c64e                	sw	s3,12(sp)
    7d02:	04a1                	addi	s1,s1,8
    7d04:	47b1                	li	a5,12
    7d06:	04f4f563          	bgeu	s1,a5,7d50 <_malloc_r+0x60>
    7d0a:	44b1                	li	s1,12
    7d0c:	04b4e463          	bltu	s1,a1,7d54 <_malloc_r+0x64>
    7d10:	892a                	mv	s2,a0
    7d12:	244010ef          	jal	ra,8f56 <__malloc_lock>
    7d16:	87418793          	addi	a5,gp,-1932 # 200002c4 <__malloc_free_list>
    7d1a:	4398                	lw	a4,0(a5)
    7d1c:	843a                	mv	s0,a4
    7d1e:	e429                	bnez	s0,7d68 <_malloc_r+0x78>
    7d20:	87818793          	addi	a5,gp,-1928 # 200002c8 <__malloc_sbrk_start>
    7d24:	439c                	lw	a5,0(a5)
    7d26:	e799                	bnez	a5,7d34 <_malloc_r+0x44>
    7d28:	4581                	li	a1,0
    7d2a:	854a                	mv	a0,s2
    7d2c:	0bf000ef          	jal	ra,85ea <_sbrk_r>
    7d30:	86a1ac23          	sw	a0,-1928(gp) # 200002c8 <__malloc_sbrk_start>
    7d34:	85a6                	mv	a1,s1
    7d36:	854a                	mv	a0,s2
    7d38:	0b3000ef          	jal	ra,85ea <_sbrk_r>
    7d3c:	59fd                	li	s3,-1
    7d3e:	07351963          	bne	a0,s3,7db0 <_malloc_r+0xc0>
    7d42:	47b1                	li	a5,12
    7d44:	00f92023          	sw	a5,0(s2)
    7d48:	854a                	mv	a0,s2
    7d4a:	20e010ef          	jal	ra,8f58 <__malloc_unlock>
    7d4e:	a029                	j	7d58 <_malloc_r+0x68>
    7d50:	fa04dee3          	bgez	s1,7d0c <_malloc_r+0x1c>
    7d54:	47b1                	li	a5,12
    7d56:	c11c                	sw	a5,0(a0)
    7d58:	4501                	li	a0,0
    7d5a:	40f2                	lw	ra,28(sp)
    7d5c:	4462                	lw	s0,24(sp)
    7d5e:	44d2                	lw	s1,20(sp)
    7d60:	4942                	lw	s2,16(sp)
    7d62:	49b2                	lw	s3,12(sp)
    7d64:	6105                	addi	sp,sp,32
    7d66:	8082                	ret
    7d68:	401c                	lw	a5,0(s0)
    7d6a:	8f85                	sub	a5,a5,s1
    7d6c:	0207cf63          	bltz	a5,7daa <_malloc_r+0xba>
    7d70:	46ad                	li	a3,11
    7d72:	00f6f663          	bgeu	a3,a5,7d7e <_malloc_r+0x8e>
    7d76:	c01c                	sw	a5,0(s0)
    7d78:	943e                	add	s0,s0,a5
    7d7a:	c004                	sw	s1,0(s0)
    7d7c:	a031                	j	7d88 <_malloc_r+0x98>
    7d7e:	405c                	lw	a5,4(s0)
    7d80:	02871363          	bne	a4,s0,7da6 <_malloc_r+0xb6>
    7d84:	86f1aa23          	sw	a5,-1932(gp) # 200002c4 <__malloc_free_list>
    7d88:	854a                	mv	a0,s2
    7d8a:	1ce010ef          	jal	ra,8f58 <__malloc_unlock>
    7d8e:	00b40513          	addi	a0,s0,11
    7d92:	00440793          	addi	a5,s0,4
    7d96:	9961                	andi	a0,a0,-8
    7d98:	40f50733          	sub	a4,a0,a5
    7d9c:	df5d                	beqz	a4,7d5a <_malloc_r+0x6a>
    7d9e:	943a                	add	s0,s0,a4
    7da0:	8f89                	sub	a5,a5,a0
    7da2:	c01c                	sw	a5,0(s0)
    7da4:	bf5d                	j	7d5a <_malloc_r+0x6a>
    7da6:	c35c                	sw	a5,4(a4)
    7da8:	b7c5                	j	7d88 <_malloc_r+0x98>
    7daa:	8722                	mv	a4,s0
    7dac:	4040                	lw	s0,4(s0)
    7dae:	bf85                	j	7d1e <_malloc_r+0x2e>
    7db0:	00350413          	addi	s0,a0,3
    7db4:	9871                	andi	s0,s0,-4
    7db6:	fc8502e3          	beq	a0,s0,7d7a <_malloc_r+0x8a>
    7dba:	40a405b3          	sub	a1,s0,a0
    7dbe:	854a                	mv	a0,s2
    7dc0:	02b000ef          	jal	ra,85ea <_sbrk_r>
    7dc4:	fb351be3          	bne	a0,s3,7d7a <_malloc_r+0x8a>
    7dc8:	bfad                	j	7d42 <_malloc_r+0x52>

00007dca <__sfputc_r>:
    7dca:	461c                	lw	a5,8(a2)
    7dcc:	17fd                	addi	a5,a5,-1
    7dce:	c61c                	sw	a5,8(a2)
    7dd0:	0007da63          	bgez	a5,7de4 <__sfputc_r+0x1a>
    7dd4:	4e18                	lw	a4,24(a2)
    7dd6:	00e7c563          	blt	a5,a4,7de0 <__sfputc_r+0x16>
    7dda:	47a9                	li	a5,10
    7ddc:	00f59463          	bne	a1,a5,7de4 <__sfputc_r+0x1a>
    7de0:	5950006f          	j	8b74 <__swbuf_r>
    7de4:	421c                	lw	a5,0(a2)
    7de6:	852e                	mv	a0,a1
    7de8:	00178713          	addi	a4,a5,1
    7dec:	c218                	sw	a4,0(a2)
    7dee:	00b78023          	sb	a1,0(a5)
    7df2:	8082                	ret

00007df4 <__sfputs_r>:
    7df4:	1101                	addi	sp,sp,-32
    7df6:	cc22                	sw	s0,24(sp)
    7df8:	ca26                	sw	s1,20(sp)
    7dfa:	c84a                	sw	s2,16(sp)
    7dfc:	c64e                	sw	s3,12(sp)
    7dfe:	c452                	sw	s4,8(sp)
    7e00:	ce06                	sw	ra,28(sp)
    7e02:	892a                	mv	s2,a0
    7e04:	89ae                	mv	s3,a1
    7e06:	8432                	mv	s0,a2
    7e08:	00d604b3          	add	s1,a2,a3
    7e0c:	5a7d                	li	s4,-1
    7e0e:	00941463          	bne	s0,s1,7e16 <__sfputs_r+0x22>
    7e12:	4501                	li	a0,0
    7e14:	a811                	j	7e28 <__sfputs_r+0x34>
    7e16:	00044583          	lbu	a1,0(s0)
    7e1a:	864e                	mv	a2,s3
    7e1c:	854a                	mv	a0,s2
    7e1e:	fadff0ef          	jal	ra,7dca <__sfputc_r>
    7e22:	0405                	addi	s0,s0,1
    7e24:	ff4515e3          	bne	a0,s4,7e0e <__sfputs_r+0x1a>
    7e28:	40f2                	lw	ra,28(sp)
    7e2a:	4462                	lw	s0,24(sp)
    7e2c:	44d2                	lw	s1,20(sp)
    7e2e:	4942                	lw	s2,16(sp)
    7e30:	49b2                	lw	s3,12(sp)
    7e32:	4a22                	lw	s4,8(sp)
    7e34:	6105                	addi	sp,sp,32
    7e36:	8082                	ret

00007e38 <_vfiprintf_r>:
    7e38:	7135                	addi	sp,sp,-160
    7e3a:	cd22                	sw	s0,152(sp)
    7e3c:	cb26                	sw	s1,148(sp)
    7e3e:	c94a                	sw	s2,144(sp)
    7e40:	c74e                	sw	s3,140(sp)
    7e42:	cf06                	sw	ra,156(sp)
    7e44:	c552                	sw	s4,136(sp)
    7e46:	c356                	sw	s5,132(sp)
    7e48:	c15a                	sw	s6,128(sp)
    7e4a:	dede                	sw	s7,124(sp)
    7e4c:	dce2                	sw	s8,120(sp)
    7e4e:	dae6                	sw	s9,116(sp)
    7e50:	89aa                	mv	s3,a0
    7e52:	84ae                	mv	s1,a1
    7e54:	8932                	mv	s2,a2
    7e56:	8436                	mv	s0,a3
    7e58:	c509                	beqz	a0,7e62 <_vfiprintf_r+0x2a>
    7e5a:	4d1c                	lw	a5,24(a0)
    7e5c:	e399                	bnez	a5,7e62 <_vfiprintf_r+0x2a>
    7e5e:	b73ff0ef          	jal	ra,79d0 <__sinit>
    7e62:	00006797          	auipc	a5,0x6
    7e66:	db678793          	addi	a5,a5,-586 # dc18 <__sf_fake_stdin>
    7e6a:	0cf49d63          	bne	s1,a5,7f44 <_vfiprintf_r+0x10c>
    7e6e:	0049a483          	lw	s1,4(s3)
    7e72:	00c4d783          	lhu	a5,12(s1)
    7e76:	8ba1                	andi	a5,a5,8
    7e78:	cbe5                	beqz	a5,7f68 <_vfiprintf_r+0x130>
    7e7a:	489c                	lw	a5,16(s1)
    7e7c:	c7f5                	beqz	a5,7f68 <_vfiprintf_r+0x130>
    7e7e:	02000793          	li	a5,32
    7e82:	02f104a3          	sb	a5,41(sp)
    7e86:	03000793          	li	a5,48
    7e8a:	d202                	sw	zero,36(sp)
    7e8c:	02f10523          	sb	a5,42(sp)
    7e90:	c622                	sw	s0,12(sp)
    7e92:	02500b93          	li	s7,37
    7e96:	00006a97          	auipc	s5,0x6
    7e9a:	dc2a8a93          	addi	s5,s5,-574 # dc58 <__sf_fake_stdout+0x20>
    7e9e:	4c05                	li	s8,1
    7ea0:	4b29                	li	s6,10
    7ea2:	844a                	mv	s0,s2
    7ea4:	00044783          	lbu	a5,0(s0)
    7ea8:	c399                	beqz	a5,7eae <_vfiprintf_r+0x76>
    7eaa:	0f779263          	bne	a5,s7,7f8e <_vfiprintf_r+0x156>
    7eae:	41240cb3          	sub	s9,s0,s2
    7eb2:	000c8e63          	beqz	s9,7ece <_vfiprintf_r+0x96>
    7eb6:	86e6                	mv	a3,s9
    7eb8:	864a                	mv	a2,s2
    7eba:	85a6                	mv	a1,s1
    7ebc:	854e                	mv	a0,s3
    7ebe:	f37ff0ef          	jal	ra,7df4 <__sfputs_r>
    7ec2:	57fd                	li	a5,-1
    7ec4:	1ef50963          	beq	a0,a5,80b6 <_vfiprintf_r+0x27e>
    7ec8:	5692                	lw	a3,36(sp)
    7eca:	96e6                	add	a3,a3,s9
    7ecc:	d236                	sw	a3,36(sp)
    7ece:	00044783          	lbu	a5,0(s0)
    7ed2:	1e078263          	beqz	a5,80b6 <_vfiprintf_r+0x27e>
    7ed6:	57fd                	li	a5,-1
    7ed8:	00140913          	addi	s2,s0,1
    7edc:	c802                	sw	zero,16(sp)
    7ede:	ce02                	sw	zero,28(sp)
    7ee0:	ca3e                	sw	a5,20(sp)
    7ee2:	cc02                	sw	zero,24(sp)
    7ee4:	040109a3          	sb	zero,83(sp)
    7ee8:	d482                	sw	zero,104(sp)
    7eea:	00094583          	lbu	a1,0(s2)
    7eee:	4615                	li	a2,5
    7ef0:	8556                	mv	a0,s5
    7ef2:	04a010ef          	jal	ra,8f3c <memchr>
    7ef6:	00190413          	addi	s0,s2,1
    7efa:	47c2                	lw	a5,16(sp)
    7efc:	e959                	bnez	a0,7f92 <_vfiprintf_r+0x15a>
    7efe:	0107f713          	andi	a4,a5,16
    7f02:	c709                	beqz	a4,7f0c <_vfiprintf_r+0xd4>
    7f04:	02000713          	li	a4,32
    7f08:	04e109a3          	sb	a4,83(sp)
    7f0c:	0087f713          	andi	a4,a5,8
    7f10:	c709                	beqz	a4,7f1a <_vfiprintf_r+0xe2>
    7f12:	02b00713          	li	a4,43
    7f16:	04e109a3          	sb	a4,83(sp)
    7f1a:	00094683          	lbu	a3,0(s2)
    7f1e:	02a00713          	li	a4,42
    7f22:	08e68063          	beq	a3,a4,7fa2 <_vfiprintf_r+0x16a>
    7f26:	47f2                	lw	a5,28(sp)
    7f28:	844a                	mv	s0,s2
    7f2a:	4681                	li	a3,0
    7f2c:	4625                	li	a2,9
    7f2e:	00044703          	lbu	a4,0(s0)
    7f32:	00140593          	addi	a1,s0,1
    7f36:	fd070713          	addi	a4,a4,-48
    7f3a:	0ae67963          	bgeu	a2,a4,7fec <_vfiprintf_r+0x1b4>
    7f3e:	cab5                	beqz	a3,7fb2 <_vfiprintf_r+0x17a>
    7f40:	ce3e                	sw	a5,28(sp)
    7f42:	a885                	j	7fb2 <_vfiprintf_r+0x17a>
    7f44:	00006797          	auipc	a5,0x6
    7f48:	cf478793          	addi	a5,a5,-780 # dc38 <__sf_fake_stdout>
    7f4c:	00f49563          	bne	s1,a5,7f56 <_vfiprintf_r+0x11e>
    7f50:	0089a483          	lw	s1,8(s3)
    7f54:	bf39                	j	7e72 <_vfiprintf_r+0x3a>
    7f56:	00006797          	auipc	a5,0x6
    7f5a:	ca278793          	addi	a5,a5,-862 # dbf8 <__sf_fake_stderr>
    7f5e:	f0f49ae3          	bne	s1,a5,7e72 <_vfiprintf_r+0x3a>
    7f62:	00c9a483          	lw	s1,12(s3)
    7f66:	b731                	j	7e72 <_vfiprintf_r+0x3a>
    7f68:	85a6                	mv	a1,s1
    7f6a:	854e                	mv	a0,s3
    7f6c:	505000ef          	jal	ra,8c70 <__swsetup_r>
    7f70:	d519                	beqz	a0,7e7e <_vfiprintf_r+0x46>
    7f72:	557d                	li	a0,-1
    7f74:	40fa                	lw	ra,156(sp)
    7f76:	446a                	lw	s0,152(sp)
    7f78:	44da                	lw	s1,148(sp)
    7f7a:	494a                	lw	s2,144(sp)
    7f7c:	49ba                	lw	s3,140(sp)
    7f7e:	4a2a                	lw	s4,136(sp)
    7f80:	4a9a                	lw	s5,132(sp)
    7f82:	4b0a                	lw	s6,128(sp)
    7f84:	5bf6                	lw	s7,124(sp)
    7f86:	5c66                	lw	s8,120(sp)
    7f88:	5cd6                	lw	s9,116(sp)
    7f8a:	610d                	addi	sp,sp,160
    7f8c:	8082                	ret
    7f8e:	0405                	addi	s0,s0,1
    7f90:	bf11                	j	7ea4 <_vfiprintf_r+0x6c>
    7f92:	41550533          	sub	a0,a0,s5
    7f96:	00ac1533          	sll	a0,s8,a0
    7f9a:	8fc9                	or	a5,a5,a0
    7f9c:	c83e                	sw	a5,16(sp)
    7f9e:	8922                	mv	s2,s0
    7fa0:	b7a9                	j	7eea <_vfiprintf_r+0xb2>
    7fa2:	4732                	lw	a4,12(sp)
    7fa4:	00470693          	addi	a3,a4,4
    7fa8:	4318                	lw	a4,0(a4)
    7faa:	c636                	sw	a3,12(sp)
    7fac:	02074963          	bltz	a4,7fde <_vfiprintf_r+0x1a6>
    7fb0:	ce3a                	sw	a4,28(sp)
    7fb2:	00044703          	lbu	a4,0(s0)
    7fb6:	02e00793          	li	a5,46
    7fba:	04f71f63          	bne	a4,a5,8018 <_vfiprintf_r+0x1e0>
    7fbe:	00144703          	lbu	a4,1(s0)
    7fc2:	02a00793          	li	a5,42
    7fc6:	02f71b63          	bne	a4,a5,7ffc <_vfiprintf_r+0x1c4>
    7fca:	47b2                	lw	a5,12(sp)
    7fcc:	0409                	addi	s0,s0,2
    7fce:	00478713          	addi	a4,a5,4
    7fd2:	439c                	lw	a5,0(a5)
    7fd4:	c63a                	sw	a4,12(sp)
    7fd6:	0207c163          	bltz	a5,7ff8 <_vfiprintf_r+0x1c0>
    7fda:	ca3e                	sw	a5,20(sp)
    7fdc:	a835                	j	8018 <_vfiprintf_r+0x1e0>
    7fde:	40e00733          	neg	a4,a4
    7fe2:	0027e793          	ori	a5,a5,2
    7fe6:	ce3a                	sw	a4,28(sp)
    7fe8:	c83e                	sw	a5,16(sp)
    7fea:	b7e1                	j	7fb2 <_vfiprintf_r+0x17a>
    7fec:	036787b3          	mul	a5,a5,s6
    7ff0:	4685                	li	a3,1
    7ff2:	842e                	mv	s0,a1
    7ff4:	97ba                	add	a5,a5,a4
    7ff6:	bf25                	j	7f2e <_vfiprintf_r+0xf6>
    7ff8:	57fd                	li	a5,-1
    7ffa:	b7c5                	j	7fda <_vfiprintf_r+0x1a2>
    7ffc:	0405                	addi	s0,s0,1
    7ffe:	ca02                	sw	zero,20(sp)
    8000:	4681                	li	a3,0
    8002:	4781                	li	a5,0
    8004:	4625                	li	a2,9
    8006:	00044703          	lbu	a4,0(s0)
    800a:	00140593          	addi	a1,s0,1
    800e:	fd070713          	addi	a4,a4,-48
    8012:	06e67863          	bgeu	a2,a4,8082 <_vfiprintf_r+0x24a>
    8016:	f2f1                	bnez	a3,7fda <_vfiprintf_r+0x1a2>
    8018:	00044583          	lbu	a1,0(s0)
    801c:	460d                	li	a2,3
    801e:	00006517          	auipc	a0,0x6
    8022:	c4250513          	addi	a0,a0,-958 # dc60 <__sf_fake_stdout+0x28>
    8026:	717000ef          	jal	ra,8f3c <memchr>
    802a:	cd11                	beqz	a0,8046 <_vfiprintf_r+0x20e>
    802c:	00006797          	auipc	a5,0x6
    8030:	c3478793          	addi	a5,a5,-972 # dc60 <__sf_fake_stdout+0x28>
    8034:	8d1d                	sub	a0,a0,a5
    8036:	04000793          	li	a5,64
    803a:	00a797b3          	sll	a5,a5,a0
    803e:	4542                	lw	a0,16(sp)
    8040:	0405                	addi	s0,s0,1
    8042:	8d5d                	or	a0,a0,a5
    8044:	c82a                	sw	a0,16(sp)
    8046:	00044583          	lbu	a1,0(s0)
    804a:	4619                	li	a2,6
    804c:	00006517          	auipc	a0,0x6
    8050:	c1850513          	addi	a0,a0,-1000 # dc64 <__sf_fake_stdout+0x2c>
    8054:	00140913          	addi	s2,s0,1
    8058:	02b10423          	sb	a1,40(sp)
    805c:	6e1000ef          	jal	ra,8f3c <memchr>
    8060:	c13d                	beqz	a0,80c6 <_vfiprintf_r+0x28e>
    8062:	ffff8797          	auipc	a5,0xffff8
    8066:	f9e78793          	addi	a5,a5,-98 # 0 <_sinit>
    806a:	e795                	bnez	a5,8096 <_vfiprintf_r+0x25e>
    806c:	4742                	lw	a4,16(sp)
    806e:	47b2                	lw	a5,12(sp)
    8070:	10077713          	andi	a4,a4,256
    8074:	cf09                	beqz	a4,808e <_vfiprintf_r+0x256>
    8076:	0791                	addi	a5,a5,4
    8078:	c63e                	sw	a5,12(sp)
    807a:	5792                	lw	a5,36(sp)
    807c:	97d2                	add	a5,a5,s4
    807e:	d23e                	sw	a5,36(sp)
    8080:	b50d                	j	7ea2 <_vfiprintf_r+0x6a>
    8082:	036787b3          	mul	a5,a5,s6
    8086:	4685                	li	a3,1
    8088:	842e                	mv	s0,a1
    808a:	97ba                	add	a5,a5,a4
    808c:	bfad                	j	8006 <_vfiprintf_r+0x1ce>
    808e:	079d                	addi	a5,a5,7
    8090:	9be1                	andi	a5,a5,-8
    8092:	07a1                	addi	a5,a5,8
    8094:	b7d5                	j	8078 <_vfiprintf_r+0x240>
    8096:	0078                	addi	a4,sp,12
    8098:	00000697          	auipc	a3,0x0
    809c:	d5c68693          	addi	a3,a3,-676 # 7df4 <__sfputs_r>
    80a0:	8626                	mv	a2,s1
    80a2:	080c                	addi	a1,sp,16
    80a4:	854e                	mv	a0,s3
    80a6:	00000097          	auipc	ra,0x0
    80aa:	000000e7          	jalr	zero # 0 <_sinit>
    80ae:	57fd                	li	a5,-1
    80b0:	8a2a                	mv	s4,a0
    80b2:	fcf514e3          	bne	a0,a5,807a <_vfiprintf_r+0x242>
    80b6:	00c4d783          	lhu	a5,12(s1)
    80ba:	0407f793          	andi	a5,a5,64
    80be:	ea079ae3          	bnez	a5,7f72 <_vfiprintf_r+0x13a>
    80c2:	5512                	lw	a0,36(sp)
    80c4:	bd45                	j	7f74 <_vfiprintf_r+0x13c>
    80c6:	0078                	addi	a4,sp,12
    80c8:	00000697          	auipc	a3,0x0
    80cc:	d2c68693          	addi	a3,a3,-724 # 7df4 <__sfputs_r>
    80d0:	8626                	mv	a2,s1
    80d2:	080c                	addi	a1,sp,16
    80d4:	854e                	mv	a0,s3
    80d6:	2a01                	jal	81e6 <_printf_i>
    80d8:	bfd9                	j	80ae <_vfiprintf_r+0x276>

000080da <_printf_common>:
    80da:	7179                	addi	sp,sp,-48
    80dc:	ca56                	sw	s5,20(sp)
    80de:	499c                	lw	a5,16(a1)
    80e0:	8aba                	mv	s5,a4
    80e2:	4598                	lw	a4,8(a1)
    80e4:	d422                	sw	s0,40(sp)
    80e6:	d226                	sw	s1,36(sp)
    80e8:	ce4e                	sw	s3,28(sp)
    80ea:	cc52                	sw	s4,24(sp)
    80ec:	d606                	sw	ra,44(sp)
    80ee:	d04a                	sw	s2,32(sp)
    80f0:	c85a                	sw	s6,16(sp)
    80f2:	c65e                	sw	s7,12(sp)
    80f4:	89aa                	mv	s3,a0
    80f6:	842e                	mv	s0,a1
    80f8:	84b2                	mv	s1,a2
    80fa:	8a36                	mv	s4,a3
    80fc:	00e7d363          	bge	a5,a4,8102 <_printf_common+0x28>
    8100:	87ba                	mv	a5,a4
    8102:	c09c                	sw	a5,0(s1)
    8104:	04344703          	lbu	a4,67(s0)
    8108:	c319                	beqz	a4,810e <_printf_common+0x34>
    810a:	0785                	addi	a5,a5,1
    810c:	c09c                	sw	a5,0(s1)
    810e:	401c                	lw	a5,0(s0)
    8110:	0207f793          	andi	a5,a5,32
    8114:	c781                	beqz	a5,811c <_printf_common+0x42>
    8116:	409c                	lw	a5,0(s1)
    8118:	0789                	addi	a5,a5,2
    811a:	c09c                	sw	a5,0(s1)
    811c:	00042903          	lw	s2,0(s0)
    8120:	00697913          	andi	s2,s2,6
    8124:	00091a63          	bnez	s2,8138 <_printf_common+0x5e>
    8128:	01940b13          	addi	s6,s0,25
    812c:	5bfd                	li	s7,-1
    812e:	445c                	lw	a5,12(s0)
    8130:	4098                	lw	a4,0(s1)
    8132:	8f99                	sub	a5,a5,a4
    8134:	04f94c63          	blt	s2,a5,818c <_printf_common+0xb2>
    8138:	401c                	lw	a5,0(s0)
    813a:	04344683          	lbu	a3,67(s0)
    813e:	0207f793          	andi	a5,a5,32
    8142:	00d036b3          	snez	a3,a3
    8146:	eba5                	bnez	a5,81b6 <_printf_common+0xdc>
    8148:	04340613          	addi	a2,s0,67
    814c:	85d2                	mv	a1,s4
    814e:	854e                	mv	a0,s3
    8150:	9a82                	jalr	s5
    8152:	57fd                	li	a5,-1
    8154:	04f50363          	beq	a0,a5,819a <_printf_common+0xc0>
    8158:	401c                	lw	a5,0(s0)
    815a:	4611                	li	a2,4
    815c:	4098                	lw	a4,0(s1)
    815e:	8b99                	andi	a5,a5,6
    8160:	4454                	lw	a3,12(s0)
    8162:	4481                	li	s1,0
    8164:	00c79763          	bne	a5,a2,8172 <_printf_common+0x98>
    8168:	40e684b3          	sub	s1,a3,a4
    816c:	0004d363          	bgez	s1,8172 <_printf_common+0x98>
    8170:	4481                	li	s1,0
    8172:	441c                	lw	a5,8(s0)
    8174:	4818                	lw	a4,16(s0)
    8176:	00f75463          	bge	a4,a5,817e <_printf_common+0xa4>
    817a:	8f99                	sub	a5,a5,a4
    817c:	94be                	add	s1,s1,a5
    817e:	4901                	li	s2,0
    8180:	0469                	addi	s0,s0,26
    8182:	5b7d                	li	s6,-1
    8184:	05249863          	bne	s1,s2,81d4 <_printf_common+0xfa>
    8188:	4501                	li	a0,0
    818a:	a809                	j	819c <_printf_common+0xc2>
    818c:	4685                	li	a3,1
    818e:	865a                	mv	a2,s6
    8190:	85d2                	mv	a1,s4
    8192:	854e                	mv	a0,s3
    8194:	9a82                	jalr	s5
    8196:	01751e63          	bne	a0,s7,81b2 <_printf_common+0xd8>
    819a:	557d                	li	a0,-1
    819c:	50b2                	lw	ra,44(sp)
    819e:	5422                	lw	s0,40(sp)
    81a0:	5492                	lw	s1,36(sp)
    81a2:	5902                	lw	s2,32(sp)
    81a4:	49f2                	lw	s3,28(sp)
    81a6:	4a62                	lw	s4,24(sp)
    81a8:	4ad2                	lw	s5,20(sp)
    81aa:	4b42                	lw	s6,16(sp)
    81ac:	4bb2                	lw	s7,12(sp)
    81ae:	6145                	addi	sp,sp,48
    81b0:	8082                	ret
    81b2:	0905                	addi	s2,s2,1
    81b4:	bfad                	j	812e <_printf_common+0x54>
    81b6:	00d40733          	add	a4,s0,a3
    81ba:	03000613          	li	a2,48
    81be:	04c701a3          	sb	a2,67(a4)
    81c2:	04544703          	lbu	a4,69(s0)
    81c6:	00168793          	addi	a5,a3,1
    81ca:	97a2                	add	a5,a5,s0
    81cc:	0689                	addi	a3,a3,2
    81ce:	04e781a3          	sb	a4,67(a5)
    81d2:	bf9d                	j	8148 <_printf_common+0x6e>
    81d4:	4685                	li	a3,1
    81d6:	8622                	mv	a2,s0
    81d8:	85d2                	mv	a1,s4
    81da:	854e                	mv	a0,s3
    81dc:	9a82                	jalr	s5
    81de:	fb650ee3          	beq	a0,s6,819a <_printf_common+0xc0>
    81e2:	0905                	addi	s2,s2,1
    81e4:	b745                	j	8184 <_printf_common+0xaa>

000081e6 <_printf_i>:
    81e6:	7179                	addi	sp,sp,-48
    81e8:	d422                	sw	s0,40(sp)
    81ea:	d226                	sw	s1,36(sp)
    81ec:	d04a                	sw	s2,32(sp)
    81ee:	ce4e                	sw	s3,28(sp)
    81f0:	d606                	sw	ra,44(sp)
    81f2:	cc52                	sw	s4,24(sp)
    81f4:	ca56                	sw	s5,20(sp)
    81f6:	c85a                	sw	s6,16(sp)
    81f8:	89b6                	mv	s3,a3
    81fa:	0185c683          	lbu	a3,24(a1)
    81fe:	06900793          	li	a5,105
    8202:	8932                	mv	s2,a2
    8204:	84aa                	mv	s1,a0
    8206:	842e                	mv	s0,a1
    8208:	04358613          	addi	a2,a1,67
    820c:	02f68d63          	beq	a3,a5,8246 <_printf_i+0x60>
    8210:	06d7e263          	bltu	a5,a3,8274 <_printf_i+0x8e>
    8214:	05800793          	li	a5,88
    8218:	18f68963          	beq	a3,a5,83aa <_printf_i+0x1c4>
    821c:	00d7ed63          	bltu	a5,a3,8236 <_printf_i+0x50>
    8220:	22068263          	beqz	a3,8444 <_printf_i+0x25e>
    8224:	04300793          	li	a5,67
    8228:	0af68f63          	beq	a3,a5,82e6 <_printf_i+0x100>
    822c:	04240a93          	addi	s5,s0,66
    8230:	04d40123          	sb	a3,66(s0)
    8234:	a0d1                	j	82f8 <_printf_i+0x112>
    8236:	06300793          	li	a5,99
    823a:	0af68663          	beq	a3,a5,82e6 <_printf_i+0x100>
    823e:	06400793          	li	a5,100
    8242:	fef695e3          	bne	a3,a5,822c <_printf_i+0x46>
    8246:	401c                	lw	a5,0(s0)
    8248:	4308                	lw	a0,0(a4)
    824a:	0807f693          	andi	a3,a5,128
    824e:	00450593          	addi	a1,a0,4
    8252:	c6cd                	beqz	a3,82fc <_printf_i+0x116>
    8254:	411c                	lw	a5,0(a0)
    8256:	c30c                	sw	a1,0(a4)
    8258:	0007d863          	bgez	a5,8268 <_printf_i+0x82>
    825c:	02d00713          	li	a4,45
    8260:	40f007b3          	neg	a5,a5
    8264:	04e401a3          	sb	a4,67(s0)
    8268:	00006697          	auipc	a3,0x6
    826c:	a0468693          	addi	a3,a3,-1532 # dc6c <__sf_fake_stdout+0x34>
    8270:	4729                	li	a4,10
    8272:	a875                	j	832e <_printf_i+0x148>
    8274:	07000793          	li	a5,112
    8278:	16f68563          	beq	a3,a5,83e2 <_printf_i+0x1fc>
    827c:	02d7e563          	bltu	a5,a3,82a6 <_printf_i+0xc0>
    8280:	06e00793          	li	a5,110
    8284:	18f68c63          	beq	a3,a5,841c <_printf_i+0x236>
    8288:	06f00793          	li	a5,111
    828c:	faf690e3          	bne	a3,a5,822c <_printf_i+0x46>
    8290:	400c                	lw	a1,0(s0)
    8292:	431c                	lw	a5,0(a4)
    8294:	0805f813          	andi	a6,a1,128
    8298:	00478513          	addi	a0,a5,4
    829c:	06080863          	beqz	a6,830c <_printf_i+0x126>
    82a0:	c308                	sw	a0,0(a4)
    82a2:	439c                	lw	a5,0(a5)
    82a4:	a895                	j	8318 <_printf_i+0x132>
    82a6:	07500793          	li	a5,117
    82aa:	fef683e3          	beq	a3,a5,8290 <_printf_i+0xaa>
    82ae:	07800793          	li	a5,120
    82b2:	12f68c63          	beq	a3,a5,83ea <_printf_i+0x204>
    82b6:	07300793          	li	a5,115
    82ba:	f6f699e3          	bne	a3,a5,822c <_printf_i+0x46>
    82be:	431c                	lw	a5,0(a4)
    82c0:	41d0                	lw	a2,4(a1)
    82c2:	4581                	li	a1,0
    82c4:	00478693          	addi	a3,a5,4
    82c8:	c314                	sw	a3,0(a4)
    82ca:	0007aa83          	lw	s5,0(a5)
    82ce:	8556                	mv	a0,s5
    82d0:	46d000ef          	jal	ra,8f3c <memchr>
    82d4:	c501                	beqz	a0,82dc <_printf_i+0xf6>
    82d6:	41550533          	sub	a0,a0,s5
    82da:	c048                	sw	a0,4(s0)
    82dc:	405c                	lw	a5,4(s0)
    82de:	c81c                	sw	a5,16(s0)
    82e0:	040401a3          	sb	zero,67(s0)
    82e4:	a871                	j	8380 <_printf_i+0x19a>
    82e6:	431c                	lw	a5,0(a4)
    82e8:	04240a93          	addi	s5,s0,66
    82ec:	00478693          	addi	a3,a5,4
    82f0:	439c                	lw	a5,0(a5)
    82f2:	c314                	sw	a3,0(a4)
    82f4:	04f40123          	sb	a5,66(s0)
    82f8:	4785                	li	a5,1
    82fa:	b7d5                	j	82de <_printf_i+0xf8>
    82fc:	0407f693          	andi	a3,a5,64
    8300:	411c                	lw	a5,0(a0)
    8302:	c30c                	sw	a1,0(a4)
    8304:	dab1                	beqz	a3,8258 <_printf_i+0x72>
    8306:	07c2                	slli	a5,a5,0x10
    8308:	87c1                	srai	a5,a5,0x10
    830a:	b7b9                	j	8258 <_printf_i+0x72>
    830c:	0405f593          	andi	a1,a1,64
    8310:	c308                	sw	a0,0(a4)
    8312:	d9c1                	beqz	a1,82a2 <_printf_i+0xbc>
    8314:	0007d783          	lhu	a5,0(a5)
    8318:	06f00713          	li	a4,111
    831c:	0ee68863          	beq	a3,a4,840c <_printf_i+0x226>
    8320:	00006697          	auipc	a3,0x6
    8324:	94c68693          	addi	a3,a3,-1716 # dc6c <__sf_fake_stdout+0x34>
    8328:	4729                	li	a4,10
    832a:	040401a3          	sb	zero,67(s0)
    832e:	404c                	lw	a1,4(s0)
    8330:	c40c                	sw	a1,8(s0)
    8332:	0005c563          	bltz	a1,833c <_printf_i+0x156>
    8336:	4008                	lw	a0,0(s0)
    8338:	996d                	andi	a0,a0,-5
    833a:	c008                	sw	a0,0(s0)
    833c:	e399                	bnez	a5,8342 <_printf_i+0x15c>
    833e:	8ab2                	mv	s5,a2
    8340:	cd91                	beqz	a1,835c <_printf_i+0x176>
    8342:	8ab2                	mv	s5,a2
    8344:	02e7f5b3          	remu	a1,a5,a4
    8348:	1afd                	addi	s5,s5,-1
    834a:	95b6                	add	a1,a1,a3
    834c:	0005c583          	lbu	a1,0(a1)
    8350:	00ba8023          	sb	a1,0(s5)
    8354:	02e7d5b3          	divu	a1,a5,a4
    8358:	0ce7f063          	bgeu	a5,a4,8418 <_printf_i+0x232>
    835c:	47a1                	li	a5,8
    835e:	00f71e63          	bne	a4,a5,837a <_printf_i+0x194>
    8362:	401c                	lw	a5,0(s0)
    8364:	8b85                	andi	a5,a5,1
    8366:	cb91                	beqz	a5,837a <_printf_i+0x194>
    8368:	4058                	lw	a4,4(s0)
    836a:	481c                	lw	a5,16(s0)
    836c:	00e7c763          	blt	a5,a4,837a <_printf_i+0x194>
    8370:	03000793          	li	a5,48
    8374:	fefa8fa3          	sb	a5,-1(s5)
    8378:	1afd                	addi	s5,s5,-1
    837a:	41560633          	sub	a2,a2,s5
    837e:	c810                	sw	a2,16(s0)
    8380:	874e                	mv	a4,s3
    8382:	86ca                	mv	a3,s2
    8384:	0070                	addi	a2,sp,12
    8386:	85a2                	mv	a1,s0
    8388:	8526                	mv	a0,s1
    838a:	d51ff0ef          	jal	ra,80da <_printf_common>
    838e:	5a7d                	li	s4,-1
    8390:	0b451e63          	bne	a0,s4,844c <_printf_i+0x266>
    8394:	557d                	li	a0,-1
    8396:	50b2                	lw	ra,44(sp)
    8398:	5422                	lw	s0,40(sp)
    839a:	5492                	lw	s1,36(sp)
    839c:	5902                	lw	s2,32(sp)
    839e:	49f2                	lw	s3,28(sp)
    83a0:	4a62                	lw	s4,24(sp)
    83a2:	4ad2                	lw	s5,20(sp)
    83a4:	4b42                	lw	s6,16(sp)
    83a6:	6145                	addi	sp,sp,48
    83a8:	8082                	ret
    83aa:	04d582a3          	sb	a3,69(a1)
    83ae:	00006697          	auipc	a3,0x6
    83b2:	8be68693          	addi	a3,a3,-1858 # dc6c <__sf_fake_stdout+0x34>
    83b6:	400c                	lw	a1,0(s0)
    83b8:	4308                	lw	a0,0(a4)
    83ba:	0805f813          	andi	a6,a1,128
    83be:	411c                	lw	a5,0(a0)
    83c0:	0511                	addi	a0,a0,4
    83c2:	02080d63          	beqz	a6,83fc <_printf_i+0x216>
    83c6:	c308                	sw	a0,0(a4)
    83c8:	0015f713          	andi	a4,a1,1
    83cc:	c701                	beqz	a4,83d4 <_printf_i+0x1ee>
    83ce:	0205e593          	ori	a1,a1,32
    83d2:	c00c                	sw	a1,0(s0)
    83d4:	4741                	li	a4,16
    83d6:	fbb1                	bnez	a5,832a <_printf_i+0x144>
    83d8:	400c                	lw	a1,0(s0)
    83da:	fdf5f593          	andi	a1,a1,-33
    83de:	c00c                	sw	a1,0(s0)
    83e0:	b7a9                	j	832a <_printf_i+0x144>
    83e2:	419c                	lw	a5,0(a1)
    83e4:	0207e793          	ori	a5,a5,32
    83e8:	c19c                	sw	a5,0(a1)
    83ea:	07800793          	li	a5,120
    83ee:	04f402a3          	sb	a5,69(s0)
    83f2:	00006697          	auipc	a3,0x6
    83f6:	88e68693          	addi	a3,a3,-1906 # dc80 <__sf_fake_stdout+0x48>
    83fa:	bf75                	j	83b6 <_printf_i+0x1d0>
    83fc:	0405f813          	andi	a6,a1,64
    8400:	c308                	sw	a0,0(a4)
    8402:	fc0803e3          	beqz	a6,83c8 <_printf_i+0x1e2>
    8406:	07c2                	slli	a5,a5,0x10
    8408:	83c1                	srli	a5,a5,0x10
    840a:	bf7d                	j	83c8 <_printf_i+0x1e2>
    840c:	00006697          	auipc	a3,0x6
    8410:	86068693          	addi	a3,a3,-1952 # dc6c <__sf_fake_stdout+0x34>
    8414:	4721                	li	a4,8
    8416:	bf11                	j	832a <_printf_i+0x144>
    8418:	87ae                	mv	a5,a1
    841a:	b72d                	j	8344 <_printf_i+0x15e>
    841c:	4194                	lw	a3,0(a1)
    841e:	431c                	lw	a5,0(a4)
    8420:	49cc                	lw	a1,20(a1)
    8422:	0806f813          	andi	a6,a3,128
    8426:	00478513          	addi	a0,a5,4
    842a:	00080663          	beqz	a6,8436 <_printf_i+0x250>
    842e:	c308                	sw	a0,0(a4)
    8430:	439c                	lw	a5,0(a5)
    8432:	c38c                	sw	a1,0(a5)
    8434:	a801                	j	8444 <_printf_i+0x25e>
    8436:	c308                	sw	a0,0(a4)
    8438:	0406f693          	andi	a3,a3,64
    843c:	439c                	lw	a5,0(a5)
    843e:	daf5                	beqz	a3,8432 <_printf_i+0x24c>
    8440:	00b79023          	sh	a1,0(a5)
    8444:	00042823          	sw	zero,16(s0)
    8448:	8ab2                	mv	s5,a2
    844a:	bf1d                	j	8380 <_printf_i+0x19a>
    844c:	4814                	lw	a3,16(s0)
    844e:	8656                	mv	a2,s5
    8450:	85ca                	mv	a1,s2
    8452:	8526                	mv	a0,s1
    8454:	9982                	jalr	s3
    8456:	f3450fe3          	beq	a0,s4,8394 <_printf_i+0x1ae>
    845a:	401c                	lw	a5,0(s0)
    845c:	8b89                	andi	a5,a5,2
    845e:	e78d                	bnez	a5,8488 <_printf_i+0x2a2>
    8460:	47b2                	lw	a5,12(sp)
    8462:	4448                	lw	a0,12(s0)
    8464:	f2f559e3          	bge	a0,a5,8396 <_printf_i+0x1b0>
    8468:	853e                	mv	a0,a5
    846a:	b735                	j	8396 <_printf_i+0x1b0>
    846c:	4685                	li	a3,1
    846e:	8656                	mv	a2,s5
    8470:	85ca                	mv	a1,s2
    8472:	8526                	mv	a0,s1
    8474:	9982                	jalr	s3
    8476:	f1650fe3          	beq	a0,s6,8394 <_printf_i+0x1ae>
    847a:	0a05                	addi	s4,s4,1
    847c:	445c                	lw	a5,12(s0)
    847e:	4732                	lw	a4,12(sp)
    8480:	8f99                	sub	a5,a5,a4
    8482:	fefa45e3          	blt	s4,a5,846c <_printf_i+0x286>
    8486:	bfe9                	j	8460 <_printf_i+0x27a>
    8488:	4a01                	li	s4,0
    848a:	01940a93          	addi	s5,s0,25
    848e:	5b7d                	li	s6,-1
    8490:	b7f5                	j	847c <_printf_i+0x296>

00008492 <iprintf>:
    8492:	7139                	addi	sp,sp,-64
    8494:	da3e                	sw	a5,52(sp)
    8496:	d22e                	sw	a1,36(sp)
    8498:	d432                	sw	a2,40(sp)
    849a:	d636                	sw	a3,44(sp)
    849c:	d83a                	sw	a4,48(sp)
    849e:	dc42                	sw	a6,56(sp)
    84a0:	de46                	sw	a7,60(sp)
    84a2:	82418793          	addi	a5,gp,-2012 # 20000274 <_impure_ptr>
    84a6:	cc22                	sw	s0,24(sp)
    84a8:	4380                	lw	s0,0(a5)
    84aa:	ca26                	sw	s1,20(sp)
    84ac:	ce06                	sw	ra,28(sp)
    84ae:	84aa                	mv	s1,a0
    84b0:	c411                	beqz	s0,84bc <iprintf+0x2a>
    84b2:	4c1c                	lw	a5,24(s0)
    84b4:	e781                	bnez	a5,84bc <iprintf+0x2a>
    84b6:	8522                	mv	a0,s0
    84b8:	d18ff0ef          	jal	ra,79d0 <__sinit>
    84bc:	440c                	lw	a1,8(s0)
    84be:	1054                	addi	a3,sp,36
    84c0:	8626                	mv	a2,s1
    84c2:	8522                	mv	a0,s0
    84c4:	c636                	sw	a3,12(sp)
    84c6:	973ff0ef          	jal	ra,7e38 <_vfiprintf_r>
    84ca:	40f2                	lw	ra,28(sp)
    84cc:	4462                	lw	s0,24(sp)
    84ce:	44d2                	lw	s1,20(sp)
    84d0:	6121                	addi	sp,sp,64
    84d2:	8082                	ret

000084d4 <putchar>:
    84d4:	1101                	addi	sp,sp,-32
    84d6:	82418793          	addi	a5,gp,-2012 # 20000274 <_impure_ptr>
    84da:	cc22                	sw	s0,24(sp)
    84dc:	4380                	lw	s0,0(a5)
    84de:	ce06                	sw	ra,28(sp)
    84e0:	85aa                	mv	a1,a0
    84e2:	c801                	beqz	s0,84f2 <putchar+0x1e>
    84e4:	4c1c                	lw	a5,24(s0)
    84e6:	e791                	bnez	a5,84f2 <putchar+0x1e>
    84e8:	c62a                	sw	a0,12(sp)
    84ea:	8522                	mv	a0,s0
    84ec:	ce4ff0ef          	jal	ra,79d0 <__sinit>
    84f0:	45b2                	lw	a1,12(sp)
    84f2:	4410                	lw	a2,8(s0)
    84f4:	8522                	mv	a0,s0
    84f6:	4462                	lw	s0,24(sp)
    84f8:	40f2                	lw	ra,28(sp)
    84fa:	6105                	addi	sp,sp,32
    84fc:	60e0106f          	j	9b0a <_putc_r>

00008500 <_puts_r>:
    8500:	1101                	addi	sp,sp,-32
    8502:	ca26                	sw	s1,20(sp)
    8504:	c84a                	sw	s2,16(sp)
    8506:	ce06                	sw	ra,28(sp)
    8508:	cc22                	sw	s0,24(sp)
    850a:	c64e                	sw	s3,12(sp)
    850c:	c452                	sw	s4,8(sp)
    850e:	84aa                	mv	s1,a0
    8510:	892e                	mv	s2,a1
    8512:	c509                	beqz	a0,851c <_puts_r+0x1c>
    8514:	4d1c                	lw	a5,24(a0)
    8516:	e399                	bnez	a5,851c <_puts_r+0x1c>
    8518:	cb8ff0ef          	jal	ra,79d0 <__sinit>
    851c:	4c9c                	lw	a5,24(s1)
    851e:	4480                	lw	s0,8(s1)
    8520:	e781                	bnez	a5,8528 <_puts_r+0x28>
    8522:	8526                	mv	a0,s1
    8524:	cacff0ef          	jal	ra,79d0 <__sinit>
    8528:	00005797          	auipc	a5,0x5
    852c:	6f078793          	addi	a5,a5,1776 # dc18 <__sf_fake_stdin>
    8530:	02f41c63          	bne	s0,a5,8568 <_puts_r+0x68>
    8534:	40c0                	lw	s0,4(s1)
    8536:	00c45783          	lhu	a5,12(s0)
    853a:	8ba1                	andi	a5,a5,8
    853c:	c7b1                	beqz	a5,8588 <_puts_r+0x88>
    853e:	481c                	lw	a5,16(s0)
    8540:	c7a1                	beqz	a5,8588 <_puts_r+0x88>
    8542:	59fd                	li	s3,-1
    8544:	4a29                	li	s4,10
    8546:	441c                	lw	a5,8(s0)
    8548:	00094583          	lbu	a1,0(s2)
    854c:	17fd                	addi	a5,a5,-1
    854e:	e9b1                	bnez	a1,85a2 <_puts_r+0xa2>
    8550:	c41c                	sw	a5,8(s0)
    8552:	0607de63          	bgez	a5,85ce <_puts_r+0xce>
    8556:	8622                	mv	a2,s0
    8558:	45a9                	li	a1,10
    855a:	8526                	mv	a0,s1
    855c:	2d21                	jal	8b74 <__swbuf_r>
    855e:	57fd                	li	a5,-1
    8560:	02f50863          	beq	a0,a5,8590 <_puts_r+0x90>
    8564:	4529                	li	a0,10
    8566:	a035                	j	8592 <_puts_r+0x92>
    8568:	00005797          	auipc	a5,0x5
    856c:	6d078793          	addi	a5,a5,1744 # dc38 <__sf_fake_stdout>
    8570:	00f41463          	bne	s0,a5,8578 <_puts_r+0x78>
    8574:	4480                	lw	s0,8(s1)
    8576:	b7c1                	j	8536 <_puts_r+0x36>
    8578:	00005797          	auipc	a5,0x5
    857c:	68078793          	addi	a5,a5,1664 # dbf8 <__sf_fake_stderr>
    8580:	faf41be3          	bne	s0,a5,8536 <_puts_r+0x36>
    8584:	44c0                	lw	s0,12(s1)
    8586:	bf45                	j	8536 <_puts_r+0x36>
    8588:	85a2                	mv	a1,s0
    858a:	8526                	mv	a0,s1
    858c:	25d5                	jal	8c70 <__swsetup_r>
    858e:	d955                	beqz	a0,8542 <_puts_r+0x42>
    8590:	557d                	li	a0,-1
    8592:	40f2                	lw	ra,28(sp)
    8594:	4462                	lw	s0,24(sp)
    8596:	44d2                	lw	s1,20(sp)
    8598:	4942                	lw	s2,16(sp)
    859a:	49b2                	lw	s3,12(sp)
    859c:	4a22                	lw	s4,8(sp)
    859e:	6105                	addi	sp,sp,32
    85a0:	8082                	ret
    85a2:	c41c                	sw	a5,8(s0)
    85a4:	0905                	addi	s2,s2,1
    85a6:	0007d763          	bgez	a5,85b4 <_puts_r+0xb4>
    85aa:	4c18                	lw	a4,24(s0)
    85ac:	00e7cb63          	blt	a5,a4,85c2 <_puts_r+0xc2>
    85b0:	01458963          	beq	a1,s4,85c2 <_puts_r+0xc2>
    85b4:	401c                	lw	a5,0(s0)
    85b6:	00178713          	addi	a4,a5,1
    85ba:	c018                	sw	a4,0(s0)
    85bc:	00b78023          	sb	a1,0(a5)
    85c0:	b759                	j	8546 <_puts_r+0x46>
    85c2:	8622                	mv	a2,s0
    85c4:	8526                	mv	a0,s1
    85c6:	237d                	jal	8b74 <__swbuf_r>
    85c8:	f7351fe3          	bne	a0,s3,8546 <_puts_r+0x46>
    85cc:	b7d1                	j	8590 <_puts_r+0x90>
    85ce:	401c                	lw	a5,0(s0)
    85d0:	00178713          	addi	a4,a5,1
    85d4:	c018                	sw	a4,0(s0)
    85d6:	4729                	li	a4,10
    85d8:	00e78023          	sb	a4,0(a5)
    85dc:	b761                	j	8564 <_puts_r+0x64>

000085de <puts>:
    85de:	82418793          	addi	a5,gp,-2012 # 20000274 <_impure_ptr>
    85e2:	85aa                	mv	a1,a0
    85e4:	4388                	lw	a0,0(a5)
    85e6:	f1bff06f          	j	8500 <_puts_r>

000085ea <_sbrk_r>:
    85ea:	1141                	addi	sp,sp,-16
    85ec:	c422                	sw	s0,8(sp)
    85ee:	842a                	mv	s0,a0
    85f0:	852e                	mv	a0,a1
    85f2:	20007797          	auipc	a5,0x20007
    85f6:	9407ab23          	sw	zero,-1706(a5) # 2000ef48 <errno>
    85fa:	c606                	sw	ra,12(sp)
    85fc:	7c8010ef          	jal	ra,9dc4 <_sbrk>
    8600:	57fd                	li	a5,-1
    8602:	00f51963          	bne	a0,a5,8614 <_sbrk_r+0x2a>
    8606:	20007797          	auipc	a5,0x20007
    860a:	94278793          	addi	a5,a5,-1726 # 2000ef48 <errno>
    860e:	439c                	lw	a5,0(a5)
    8610:	c391                	beqz	a5,8614 <_sbrk_r+0x2a>
    8612:	c01c                	sw	a5,0(s0)
    8614:	40b2                	lw	ra,12(sp)
    8616:	4422                	lw	s0,8(sp)
    8618:	0141                	addi	sp,sp,16
    861a:	8082                	ret

0000861c <sniprintf>:
    861c:	7135                	addi	sp,sp,-160
    861e:	cb3e                	sw	a5,148(sp)
    8620:	daa6                	sw	s1,116(sp)
    8622:	c736                	sw	a3,140(sp)
    8624:	c93a                	sw	a4,144(sp)
    8626:	cd42                	sw	a6,152(sp)
    8628:	cf46                	sw	a7,156(sp)
    862a:	82418793          	addi	a5,gp,-2012 # 20000274 <_impure_ptr>
    862e:	de86                	sw	ra,124(sp)
    8630:	dca2                	sw	s0,120(sp)
    8632:	4384                	lw	s1,0(a5)
    8634:	0005db63          	bgez	a1,864a <sniprintf+0x2e>
    8638:	08b00793          	li	a5,139
    863c:	c09c                	sw	a5,0(s1)
    863e:	557d                	li	a0,-1
    8640:	50f6                	lw	ra,124(sp)
    8642:	5466                	lw	s0,120(sp)
    8644:	54d6                	lw	s1,116(sp)
    8646:	610d                	addi	sp,sp,160
    8648:	8082                	ret
    864a:	20800793          	li	a5,520
    864e:	00f11a23          	sh	a5,20(sp)
    8652:	c42a                	sw	a0,8(sp)
    8654:	cc2a                	sw	a0,24(sp)
    8656:	4781                	li	a5,0
    8658:	c199                	beqz	a1,865e <sniprintf+0x42>
    865a:	fff58793          	addi	a5,a1,-1
    865e:	c83e                	sw	a5,16(sp)
    8660:	ce3e                	sw	a5,28(sp)
    8662:	0174                	addi	a3,sp,140
    8664:	57fd                	li	a5,-1
    8666:	842e                	mv	s0,a1
    8668:	8526                	mv	a0,s1
    866a:	002c                	addi	a1,sp,8
    866c:	00f11b23          	sh	a5,22(sp)
    8670:	c236                	sw	a3,4(sp)
    8672:	231000ef          	jal	ra,90a2 <_svfiprintf_r>
    8676:	57fd                	li	a5,-1
    8678:	00f55563          	bge	a0,a5,8682 <sniprintf+0x66>
    867c:	08b00793          	li	a5,139
    8680:	c09c                	sw	a5,0(s1)
    8682:	dc5d                	beqz	s0,8640 <sniprintf+0x24>
    8684:	47a2                	lw	a5,8(sp)
    8686:	00078023          	sb	zero,0(a5)
    868a:	bf5d                	j	8640 <sniprintf+0x24>

0000868c <siscanf>:
    868c:	7171                	addi	sp,sp,-176
    868e:	d33e                	sw	a5,164(sp)
    8690:	20400793          	li	a5,516
    8694:	c706                	sw	ra,140(sp)
    8696:	c62e                	sw	a1,12(sp)
    8698:	cd32                	sw	a2,152(sp)
    869a:	cf36                	sw	a3,156(sp)
    869c:	d13a                	sw	a4,160(sp)
    869e:	d542                	sw	a6,168(sp)
    86a0:	d746                	sw	a7,172(sp)
    86a2:	02f11223          	sh	a5,36(sp)
    86a6:	cc2a                	sw	a0,24(sp)
    86a8:	d42a                	sw	a0,40(sp)
    86aa:	2a11                	jal	87be <strlen>
    86ac:	00000797          	auipc	a5,0x0
    86b0:	06478793          	addi	a5,a5,100 # 8710 <__seofread>
    86b4:	de3e                	sw	a5,60(sp)
    86b6:	57fd                	li	a5,-1
    86b8:	45b2                	lw	a1,12(sp)
    86ba:	02f11323          	sh	a5,38(sp)
    86be:	82418793          	addi	a5,gp,-2012 # 20000274 <_impure_ptr>
    86c2:	ce2a                	sw	a0,28(sp)
    86c4:	d62a                	sw	a0,44(sp)
    86c6:	4388                	lw	a0,0(a5)
    86c8:	0934                	addi	a3,sp,152
    86ca:	862e                	mv	a2,a1
    86cc:	082c                	addi	a1,sp,24
    86ce:	c682                	sw	zero,76(sp)
    86d0:	d082                	sw	zero,96(sp)
    86d2:	ca36                	sw	a3,20(sp)
    86d4:	533000ef          	jal	ra,9406 <__ssvfiscanf_r>
    86d8:	40ba                	lw	ra,140(sp)
    86da:	614d                	addi	sp,sp,176
    86dc:	8082                	ret

000086de <__sread>:
    86de:	1141                	addi	sp,sp,-16
    86e0:	c422                	sw	s0,8(sp)
    86e2:	842e                	mv	s0,a1
    86e4:	00e59583          	lh	a1,14(a1)
    86e8:	c606                	sw	ra,12(sp)
    86ea:	4a6010ef          	jal	ra,9b90 <_read_r>
    86ee:	00054963          	bltz	a0,8700 <__sread+0x22>
    86f2:	487c                	lw	a5,84(s0)
    86f4:	97aa                	add	a5,a5,a0
    86f6:	c87c                	sw	a5,84(s0)
    86f8:	40b2                	lw	ra,12(sp)
    86fa:	4422                	lw	s0,8(sp)
    86fc:	0141                	addi	sp,sp,16
    86fe:	8082                	ret
    8700:	00c45783          	lhu	a5,12(s0)
    8704:	777d                	lui	a4,0xfffff
    8706:	177d                	addi	a4,a4,-1
    8708:	8ff9                	and	a5,a5,a4
    870a:	00f41623          	sh	a5,12(s0)
    870e:	b7ed                	j	86f8 <__sread+0x1a>

00008710 <__seofread>:
    8710:	4501                	li	a0,0
    8712:	8082                	ret

00008714 <__swrite>:
    8714:	00c5d783          	lhu	a5,12(a1)
    8718:	1101                	addi	sp,sp,-32
    871a:	cc22                	sw	s0,24(sp)
    871c:	ca26                	sw	s1,20(sp)
    871e:	c84a                	sw	s2,16(sp)
    8720:	c64e                	sw	s3,12(sp)
    8722:	ce06                	sw	ra,28(sp)
    8724:	1007f793          	andi	a5,a5,256
    8728:	84aa                	mv	s1,a0
    872a:	842e                	mv	s0,a1
    872c:	8932                	mv	s2,a2
    872e:	89b6                	mv	s3,a3
    8730:	c791                	beqz	a5,873c <__swrite+0x28>
    8732:	00e59583          	lh	a1,14(a1)
    8736:	4689                	li	a3,2
    8738:	4601                	li	a2,0
    873a:	2d59                	jal	8dd0 <_lseek_r>
    873c:	00c45783          	lhu	a5,12(s0)
    8740:	777d                	lui	a4,0xfffff
    8742:	177d                	addi	a4,a4,-1
    8744:	8ff9                	and	a5,a5,a4
    8746:	00f41623          	sh	a5,12(s0)
    874a:	00e41583          	lh	a1,14(s0)
    874e:	4462                	lw	s0,24(sp)
    8750:	40f2                	lw	ra,28(sp)
    8752:	86ce                	mv	a3,s3
    8754:	864a                	mv	a2,s2
    8756:	49b2                	lw	s3,12(sp)
    8758:	4942                	lw	s2,16(sp)
    875a:	8526                	mv	a0,s1
    875c:	44d2                	lw	s1,20(sp)
    875e:	6105                	addi	sp,sp,32
    8760:	a9e9                	j	8c3a <_write_r>

00008762 <__sseek>:
    8762:	1141                	addi	sp,sp,-16
    8764:	c422                	sw	s0,8(sp)
    8766:	842e                	mv	s0,a1
    8768:	00e59583          	lh	a1,14(a1)
    876c:	c606                	sw	ra,12(sp)
    876e:	258d                	jal	8dd0 <_lseek_r>
    8770:	57fd                	li	a5,-1
    8772:	00c45703          	lhu	a4,12(s0)
    8776:	00f51b63          	bne	a0,a5,878c <__sseek+0x2a>
    877a:	77fd                	lui	a5,0xfffff
    877c:	17fd                	addi	a5,a5,-1
    877e:	8ff9                	and	a5,a5,a4
    8780:	00f41623          	sh	a5,12(s0)
    8784:	40b2                	lw	ra,12(sp)
    8786:	4422                	lw	s0,8(sp)
    8788:	0141                	addi	sp,sp,16
    878a:	8082                	ret
    878c:	6785                	lui	a5,0x1
    878e:	8fd9                	or	a5,a5,a4
    8790:	00f41623          	sh	a5,12(s0)
    8794:	c868                	sw	a0,84(s0)
    8796:	b7fd                	j	8784 <__sseek+0x22>

00008798 <__sclose>:
    8798:	00e59583          	lh	a1,14(a1)
    879c:	a3d5                	j	8d80 <_close_r>

0000879e <strcat>:
    879e:	87aa                	mv	a5,a0
    87a0:	0007c703          	lbu	a4,0(a5) # 1000 <event_do_post+0x28>
    87a4:	00178693          	addi	a3,a5,1
    87a8:	eb09                	bnez	a4,87ba <strcat+0x1c>
    87aa:	0585                	addi	a1,a1,1
    87ac:	fff5c703          	lbu	a4,-1(a1)
    87b0:	0785                	addi	a5,a5,1
    87b2:	fee78fa3          	sb	a4,-1(a5)
    87b6:	fb75                	bnez	a4,87aa <strcat+0xc>
    87b8:	8082                	ret
    87ba:	87b6                	mv	a5,a3
    87bc:	b7d5                	j	87a0 <strcat+0x2>

000087be <strlen>:
    87be:	87aa                	mv	a5,a0
    87c0:	0785                	addi	a5,a5,1
    87c2:	fff7c703          	lbu	a4,-1(a5)
    87c6:	ff6d                	bnez	a4,87c0 <strlen+0x2>
    87c8:	40a78533          	sub	a0,a5,a0
    87cc:	157d                	addi	a0,a0,-1
    87ce:	8082                	ret

000087d0 <strncmp>:
    87d0:	c605                	beqz	a2,87f8 <strncmp+0x28>
    87d2:	167d                	addi	a2,a2,-1
    87d4:	4701                	li	a4,0
    87d6:	00e507b3          	add	a5,a0,a4
    87da:	00e586b3          	add	a3,a1,a4
    87de:	0007c783          	lbu	a5,0(a5)
    87e2:	0006c683          	lbu	a3,0(a3)
    87e6:	00d79663          	bne	a5,a3,87f2 <strncmp+0x22>
    87ea:	00c70463          	beq	a4,a2,87f2 <strncmp+0x22>
    87ee:	0705                	addi	a4,a4,1
    87f0:	f3fd                	bnez	a5,87d6 <strncmp+0x6>
    87f2:	40d78533          	sub	a0,a5,a3
    87f6:	8082                	ret
    87f8:	4501                	li	a0,0
    87fa:	8082                	ret

000087fc <strncpy>:
    87fc:	87aa                	mv	a5,a0
    87fe:	ca09                	beqz	a2,8810 <strncpy+0x14>
    8800:	0585                	addi	a1,a1,1
    8802:	fff5c703          	lbu	a4,-1(a1)
    8806:	0785                	addi	a5,a5,1
    8808:	167d                	addi	a2,a2,-1
    880a:	fee78fa3          	sb	a4,-1(a5)
    880e:	fb65                	bnez	a4,87fe <strncpy+0x2>
    8810:	963e                	add	a2,a2,a5
    8812:	00c79363          	bne	a5,a2,8818 <strncpy+0x1c>
    8816:	8082                	ret
    8818:	0785                	addi	a5,a5,1
    881a:	fe078fa3          	sb	zero,-1(a5)
    881e:	bfd5                	j	8812 <strncpy+0x16>

00008820 <strstr>:
    8820:	00054703          	lbu	a4,0(a0)
    8824:	0005c783          	lbu	a5,0(a1)
    8828:	e701                	bnez	a4,8830 <strstr+0x10>
    882a:	c391                	beqz	a5,882e <strstr+0xe>
    882c:	4501                	li	a0,0
    882e:	8082                	ret
    8830:	4781                	li	a5,0
    8832:	a801                	j	8842 <strstr+0x22>
    8834:	00154783          	lbu	a5,1(a0)
    8838:	00150713          	addi	a4,a0,1
    883c:	dbe5                	beqz	a5,882c <strstr+0xc>
    883e:	4781                	li	a5,0
    8840:	853a                	mv	a0,a4
    8842:	00f58733          	add	a4,a1,a5
    8846:	00074703          	lbu	a4,0(a4) # fffff000 <_eusrstack+0xdffef000>
    884a:	d375                	beqz	a4,882e <strstr+0xe>
    884c:	00f506b3          	add	a3,a0,a5
    8850:	0006c683          	lbu	a3,0(a3)
    8854:	fee690e3          	bne	a3,a4,8834 <strstr+0x14>
    8858:	0785                	addi	a5,a5,1
    885a:	872a                	mv	a4,a0
    885c:	b7d5                	j	8840 <strstr+0x20>

0000885e <_strtol_l.isra.0>:
    885e:	7179                	addi	sp,sp,-48
    8860:	d04a                	sw	s2,32(sp)
    8862:	ce4e                	sw	s3,28(sp)
    8864:	d606                	sw	ra,44(sp)
    8866:	d422                	sw	s0,40(sp)
    8868:	d226                	sw	s1,36(sp)
    886a:	89aa                	mv	s3,a0
    886c:	892e                	mv	s2,a1
    886e:	00190493          	addi	s1,s2,1
    8872:	fff4c403          	lbu	s0,-1(s1)
    8876:	853a                	mv	a0,a4
    8878:	c636                	sw	a3,12(sp)
    887a:	c432                	sw	a2,8(sp)
    887c:	c22e                	sw	a1,4(sp)
    887e:	c03a                	sw	a4,0(sp)
    8880:	2b0d                	jal	8db2 <__locale_ctype_ptr_l>
    8882:	9522                	add	a0,a0,s0
    8884:	00154783          	lbu	a5,1(a0)
    8888:	4702                	lw	a4,0(sp)
    888a:	4592                	lw	a1,4(sp)
    888c:	8ba1                	andi	a5,a5,8
    888e:	4622                	lw	a2,8(sp)
    8890:	46b2                	lw	a3,12(sp)
    8892:	e7c9                	bnez	a5,891c <_strtol_l.isra.0+0xbe>
    8894:	02d00793          	li	a5,45
    8898:	08f41463          	bne	s0,a5,8920 <_strtol_l.isra.0+0xc2>
    889c:	0004c783          	lbu	a5,0(s1)
    88a0:	4305                	li	t1,1
    88a2:	00290493          	addi	s1,s2,2
    88a6:	c6fd                	beqz	a3,8994 <_strtol_l.isra.0+0x136>
    88a8:	4741                	li	a4,16
    88aa:	02e69263          	bne	a3,a4,88ce <_strtol_l.isra.0+0x70>
    88ae:	03000713          	li	a4,48
    88b2:	00e79e63          	bne	a5,a4,88ce <_strtol_l.isra.0+0x70>
    88b6:	0004c783          	lbu	a5,0(s1)
    88ba:	05800713          	li	a4,88
    88be:	0df7f793          	andi	a5,a5,223
    88c2:	0ce79463          	bne	a5,a4,898a <_strtol_l.isra.0+0x12c>
    88c6:	0014c783          	lbu	a5,1(s1)
    88ca:	46c1                	li	a3,16
    88cc:	0489                	addi	s1,s1,2
    88ce:	800008b7          	lui	a7,0x80000
    88d2:	00031463          	bnez	t1,88da <_strtol_l.isra.0+0x7c>
    88d6:	fff8c893          	not	a7,a7
    88da:	02d8ff33          	remu	t5,a7,a3
    88de:	4801                	li	a6,0
    88e0:	4501                	li	a0,0
    88e2:	4fa5                	li	t6,9
    88e4:	4ee5                	li	t4,25
    88e6:	52fd                	li	t0,-1
    88e8:	02d8de33          	divu	t3,a7,a3
    88ec:	fd078713          	addi	a4,a5,-48
    88f0:	04efe463          	bltu	t6,a4,8938 <_strtol_l.isra.0+0xda>
    88f4:	87ba                	mv	a5,a4
    88f6:	04d7df63          	bge	a5,a3,8954 <_strtol_l.isra.0+0xf6>
    88fa:	00580d63          	beq	a6,t0,8914 <_strtol_l.isra.0+0xb6>
    88fe:	587d                	li	a6,-1
    8900:	00ae6a63          	bltu	t3,a0,8914 <_strtol_l.isra.0+0xb6>
    8904:	00ae1463          	bne	t3,a0,890c <_strtol_l.isra.0+0xae>
    8908:	00ff4663          	blt	t5,a5,8914 <_strtol_l.isra.0+0xb6>
    890c:	4805                	li	a6,1
    890e:	02a68533          	mul	a0,a3,a0
    8912:	953e                	add	a0,a0,a5
    8914:	0485                	addi	s1,s1,1
    8916:	fff4c783          	lbu	a5,-1(s1)
    891a:	bfc9                	j	88ec <_strtol_l.isra.0+0x8e>
    891c:	8926                	mv	s2,s1
    891e:	bf81                	j	886e <_strtol_l.isra.0+0x10>
    8920:	02b00793          	li	a5,43
    8924:	00f40563          	beq	s0,a5,892e <_strtol_l.isra.0+0xd0>
    8928:	87a2                	mv	a5,s0
    892a:	4301                	li	t1,0
    892c:	bfad                	j	88a6 <_strtol_l.isra.0+0x48>
    892e:	0004c783          	lbu	a5,0(s1)
    8932:	00290493          	addi	s1,s2,2
    8936:	bfd5                	j	892a <_strtol_l.isra.0+0xcc>
    8938:	fbf78713          	addi	a4,a5,-65
    893c:	00eee563          	bltu	t4,a4,8946 <_strtol_l.isra.0+0xe8>
    8940:	fc978793          	addi	a5,a5,-55
    8944:	bf4d                	j	88f6 <_strtol_l.isra.0+0x98>
    8946:	f9f78713          	addi	a4,a5,-97
    894a:	00eee563          	bltu	t4,a4,8954 <_strtol_l.isra.0+0xf6>
    894e:	fa978793          	addi	a5,a5,-87
    8952:	b755                	j	88f6 <_strtol_l.isra.0+0x98>
    8954:	57fd                	li	a5,-1
    8956:	00f81f63          	bne	a6,a5,8974 <_strtol_l.isra.0+0x116>
    895a:	02200793          	li	a5,34
    895e:	00f9a023          	sw	a5,0(s3)
    8962:	8546                	mv	a0,a7
    8964:	ee19                	bnez	a2,8982 <_strtol_l.isra.0+0x124>
    8966:	50b2                	lw	ra,44(sp)
    8968:	5422                	lw	s0,40(sp)
    896a:	5492                	lw	s1,36(sp)
    896c:	5902                	lw	s2,32(sp)
    896e:	49f2                	lw	s3,28(sp)
    8970:	6145                	addi	sp,sp,48
    8972:	8082                	ret
    8974:	00030463          	beqz	t1,897c <_strtol_l.isra.0+0x11e>
    8978:	40a00533          	neg	a0,a0
    897c:	d66d                	beqz	a2,8966 <_strtol_l.isra.0+0x108>
    897e:	00080463          	beqz	a6,8986 <_strtol_l.isra.0+0x128>
    8982:	fff48593          	addi	a1,s1,-1
    8986:	c20c                	sw	a1,0(a2)
    8988:	bff9                	j	8966 <_strtol_l.isra.0+0x108>
    898a:	03000793          	li	a5,48
    898e:	f2a1                	bnez	a3,88ce <_strtol_l.isra.0+0x70>
    8990:	46a1                	li	a3,8
    8992:	bf35                	j	88ce <_strtol_l.isra.0+0x70>
    8994:	03000713          	li	a4,48
    8998:	f0e78fe3          	beq	a5,a4,88b6 <_strtol_l.isra.0+0x58>
    899c:	46a9                	li	a3,10
    899e:	bf05                	j	88ce <_strtol_l.isra.0+0x70>

000089a0 <_strtol_r>:
    89a0:	82418793          	addi	a5,gp,-2012 # 20000274 <_impure_ptr>
    89a4:	439c                	lw	a5,0(a5)
    89a6:	5398                	lw	a4,32(a5)
    89a8:	e709                	bnez	a4,89b2 <_strtol_r+0x12>
    89aa:	1fff7717          	auipc	a4,0x1fff7
    89ae:	73670713          	addi	a4,a4,1846 # 200000e0 <__global_locale>
    89b2:	eadff06f          	j	885e <_strtol_l.isra.0>

000089b6 <_strtoul_l.isra.0>:
    89b6:	7179                	addi	sp,sp,-48
    89b8:	d04a                	sw	s2,32(sp)
    89ba:	ce4e                	sw	s3,28(sp)
    89bc:	d606                	sw	ra,44(sp)
    89be:	d422                	sw	s0,40(sp)
    89c0:	d226                	sw	s1,36(sp)
    89c2:	89aa                	mv	s3,a0
    89c4:	892e                	mv	s2,a1
    89c6:	00190493          	addi	s1,s2,1
    89ca:	fff4c403          	lbu	s0,-1(s1)
    89ce:	853a                	mv	a0,a4
    89d0:	c636                	sw	a3,12(sp)
    89d2:	c432                	sw	a2,8(sp)
    89d4:	c22e                	sw	a1,4(sp)
    89d6:	c03a                	sw	a4,0(sp)
    89d8:	2ee9                	jal	8db2 <__locale_ctype_ptr_l>
    89da:	9522                	add	a0,a0,s0
    89dc:	00154783          	lbu	a5,1(a0)
    89e0:	4702                	lw	a4,0(sp)
    89e2:	4592                	lw	a1,4(sp)
    89e4:	8ba1                	andi	a5,a5,8
    89e6:	4622                	lw	a2,8(sp)
    89e8:	46b2                	lw	a3,12(sp)
    89ea:	efbd                	bnez	a5,8a68 <_strtoul_l.isra.0+0xb2>
    89ec:	02d00793          	li	a5,45
    89f0:	06f41e63          	bne	s0,a5,8a6c <_strtoul_l.isra.0+0xb6>
    89f4:	0004c783          	lbu	a5,0(s1)
    89f8:	4305                	li	t1,1
    89fa:	00290493          	addi	s1,s2,2
    89fe:	c2f5                	beqz	a3,8ae2 <_strtoul_l.isra.0+0x12c>
    8a00:	4741                	li	a4,16
    8a02:	02e69263          	bne	a3,a4,8a26 <_strtoul_l.isra.0+0x70>
    8a06:	03000713          	li	a4,48
    8a0a:	00e79e63          	bne	a5,a4,8a26 <_strtoul_l.isra.0+0x70>
    8a0e:	0004c783          	lbu	a5,0(s1)
    8a12:	05800713          	li	a4,88
    8a16:	0df7f793          	andi	a5,a5,223
    8a1a:	0ae79f63          	bne	a5,a4,8ad8 <_strtoul_l.isra.0+0x122>
    8a1e:	0014c783          	lbu	a5,1(s1)
    8a22:	46c1                	li	a3,16
    8a24:	0489                	addi	s1,s1,2
    8a26:	577d                	li	a4,-1
    8a28:	02d75e33          	divu	t3,a4,a3
    8a2c:	4801                	li	a6,0
    8a2e:	4501                	li	a0,0
    8a30:	4f25                	li	t5,9
    8a32:	4ee5                	li	t4,25
    8a34:	02d778b3          	remu	a7,a4,a3
    8a38:	fd078713          	addi	a4,a5,-48
    8a3c:	04ef6463          	bltu	t5,a4,8a84 <_strtoul_l.isra.0+0xce>
    8a40:	87ba                	mv	a5,a4
    8a42:	06d7d163          	bge	a5,a3,8aa4 <_strtoul_l.isra.0+0xee>
    8a46:	04084d63          	bltz	a6,8aa0 <_strtoul_l.isra.0+0xea>
    8a4a:	587d                	li	a6,-1
    8a4c:	00ae6a63          	bltu	t3,a0,8a60 <_strtoul_l.isra.0+0xaa>
    8a50:	00ae1463          	bne	t3,a0,8a58 <_strtoul_l.isra.0+0xa2>
    8a54:	00f8c663          	blt	a7,a5,8a60 <_strtoul_l.isra.0+0xaa>
    8a58:	4805                	li	a6,1
    8a5a:	02a68533          	mul	a0,a3,a0
    8a5e:	953e                	add	a0,a0,a5
    8a60:	0485                	addi	s1,s1,1
    8a62:	fff4c783          	lbu	a5,-1(s1)
    8a66:	bfc9                	j	8a38 <_strtoul_l.isra.0+0x82>
    8a68:	8926                	mv	s2,s1
    8a6a:	bfb1                	j	89c6 <_strtoul_l.isra.0+0x10>
    8a6c:	02b00793          	li	a5,43
    8a70:	00f40563          	beq	s0,a5,8a7a <_strtoul_l.isra.0+0xc4>
    8a74:	87a2                	mv	a5,s0
    8a76:	4301                	li	t1,0
    8a78:	b759                	j	89fe <_strtoul_l.isra.0+0x48>
    8a7a:	0004c783          	lbu	a5,0(s1)
    8a7e:	00290493          	addi	s1,s2,2
    8a82:	bfd5                	j	8a76 <_strtoul_l.isra.0+0xc0>
    8a84:	fbf78713          	addi	a4,a5,-65
    8a88:	00eee563          	bltu	t4,a4,8a92 <_strtoul_l.isra.0+0xdc>
    8a8c:	fc978793          	addi	a5,a5,-55
    8a90:	bf4d                	j	8a42 <_strtoul_l.isra.0+0x8c>
    8a92:	f9f78713          	addi	a4,a5,-97
    8a96:	00eee763          	bltu	t4,a4,8aa4 <_strtoul_l.isra.0+0xee>
    8a9a:	fa978793          	addi	a5,a5,-87
    8a9e:	b755                	j	8a42 <_strtoul_l.isra.0+0x8c>
    8aa0:	587d                	li	a6,-1
    8aa2:	bf7d                	j	8a60 <_strtoul_l.isra.0+0xaa>
    8aa4:	00085f63          	bgez	a6,8ac2 <_strtoul_l.isra.0+0x10c>
    8aa8:	02200793          	li	a5,34
    8aac:	00f9a023          	sw	a5,0(s3)
    8ab0:	557d                	li	a0,-1
    8ab2:	ee19                	bnez	a2,8ad0 <_strtoul_l.isra.0+0x11a>
    8ab4:	50b2                	lw	ra,44(sp)
    8ab6:	5422                	lw	s0,40(sp)
    8ab8:	5492                	lw	s1,36(sp)
    8aba:	5902                	lw	s2,32(sp)
    8abc:	49f2                	lw	s3,28(sp)
    8abe:	6145                	addi	sp,sp,48
    8ac0:	8082                	ret
    8ac2:	00030463          	beqz	t1,8aca <_strtoul_l.isra.0+0x114>
    8ac6:	40a00533          	neg	a0,a0
    8aca:	d66d                	beqz	a2,8ab4 <_strtoul_l.isra.0+0xfe>
    8acc:	00080463          	beqz	a6,8ad4 <_strtoul_l.isra.0+0x11e>
    8ad0:	fff48593          	addi	a1,s1,-1
    8ad4:	c20c                	sw	a1,0(a2)
    8ad6:	bff9                	j	8ab4 <_strtoul_l.isra.0+0xfe>
    8ad8:	03000793          	li	a5,48
    8adc:	f6a9                	bnez	a3,8a26 <_strtoul_l.isra.0+0x70>
    8ade:	46a1                	li	a3,8
    8ae0:	b799                	j	8a26 <_strtoul_l.isra.0+0x70>
    8ae2:	03000713          	li	a4,48
    8ae6:	f2e784e3          	beq	a5,a4,8a0e <_strtoul_l.isra.0+0x58>
    8aea:	46a9                	li	a3,10
    8aec:	bf2d                	j	8a26 <_strtoul_l.isra.0+0x70>

00008aee <_strtoul_r>:
    8aee:	82418793          	addi	a5,gp,-2012 # 20000274 <_impure_ptr>
    8af2:	439c                	lw	a5,0(a5)
    8af4:	5398                	lw	a4,32(a5)
    8af6:	e709                	bnez	a4,8b00 <_strtoul_r+0x12>
    8af8:	1fff7717          	auipc	a4,0x1fff7
    8afc:	5e870713          	addi	a4,a4,1512 # 200000e0 <__global_locale>
    8b00:	eb7ff06f          	j	89b6 <_strtoul_l.isra.0>

00008b04 <_vsniprintf_r>:
    8b04:	7119                	addi	sp,sp,-128
    8b06:	dca2                	sw	s0,120(sp)
    8b08:	de86                	sw	ra,124(sp)
    8b0a:	daa6                	sw	s1,116(sp)
    8b0c:	8432                	mv	s0,a2
    8b0e:	00065b63          	bgez	a2,8b24 <_vsniprintf_r+0x20>
    8b12:	08b00793          	li	a5,139
    8b16:	c11c                	sw	a5,0(a0)
    8b18:	557d                	li	a0,-1
    8b1a:	50f6                	lw	ra,124(sp)
    8b1c:	5466                	lw	s0,120(sp)
    8b1e:	54d6                	lw	s1,116(sp)
    8b20:	6109                	addi	sp,sp,128
    8b22:	8082                	ret
    8b24:	8636                	mv	a2,a3
    8b26:	20800693          	li	a3,520
    8b2a:	c42e                	sw	a1,8(sp)
    8b2c:	cc2e                	sw	a1,24(sp)
    8b2e:	00d11a23          	sh	a3,20(sp)
    8b32:	4581                	li	a1,0
    8b34:	c019                	beqz	s0,8b3a <_vsniprintf_r+0x36>
    8b36:	fff40593          	addi	a1,s0,-1
    8b3a:	57fd                	li	a5,-1
    8b3c:	c82e                	sw	a1,16(sp)
    8b3e:	ce2e                	sw	a1,28(sp)
    8b40:	86ba                	mv	a3,a4
    8b42:	002c                	addi	a1,sp,8
    8b44:	00f11b23          	sh	a5,22(sp)
    8b48:	84aa                	mv	s1,a0
    8b4a:	2ba1                	jal	90a2 <_svfiprintf_r>
    8b4c:	57fd                	li	a5,-1
    8b4e:	00f55563          	bge	a0,a5,8b58 <_vsniprintf_r+0x54>
    8b52:	08b00793          	li	a5,139
    8b56:	c09c                	sw	a5,0(s1)
    8b58:	d069                	beqz	s0,8b1a <_vsniprintf_r+0x16>
    8b5a:	47a2                	lw	a5,8(sp)
    8b5c:	00078023          	sb	zero,0(a5)
    8b60:	bf6d                	j	8b1a <_vsniprintf_r+0x16>

00008b62 <vsniprintf>:
    8b62:	82418793          	addi	a5,gp,-2012 # 20000274 <_impure_ptr>
    8b66:	8736                	mv	a4,a3
    8b68:	86b2                	mv	a3,a2
    8b6a:	862e                	mv	a2,a1
    8b6c:	85aa                	mv	a1,a0
    8b6e:	4388                	lw	a0,0(a5)
    8b70:	f95ff06f          	j	8b04 <_vsniprintf_r>

00008b74 <__swbuf_r>:
    8b74:	1101                	addi	sp,sp,-32
    8b76:	cc22                	sw	s0,24(sp)
    8b78:	ca26                	sw	s1,20(sp)
    8b7a:	c84a                	sw	s2,16(sp)
    8b7c:	ce06                	sw	ra,28(sp)
    8b7e:	c64e                	sw	s3,12(sp)
    8b80:	84aa                	mv	s1,a0
    8b82:	892e                	mv	s2,a1
    8b84:	8432                	mv	s0,a2
    8b86:	c509                	beqz	a0,8b90 <__swbuf_r+0x1c>
    8b88:	4d1c                	lw	a5,24(a0)
    8b8a:	e399                	bnez	a5,8b90 <__swbuf_r+0x1c>
    8b8c:	e45fe0ef          	jal	ra,79d0 <__sinit>
    8b90:	00005797          	auipc	a5,0x5
    8b94:	08878793          	addi	a5,a5,136 # dc18 <__sf_fake_stdin>
    8b98:	06f41b63          	bne	s0,a5,8c0e <__swbuf_r+0x9a>
    8b9c:	40c0                	lw	s0,4(s1)
    8b9e:	4c1c                	lw	a5,24(s0)
    8ba0:	c41c                	sw	a5,8(s0)
    8ba2:	00c45783          	lhu	a5,12(s0)
    8ba6:	8ba1                	andi	a5,a5,8
    8ba8:	c3d9                	beqz	a5,8c2e <__swbuf_r+0xba>
    8baa:	481c                	lw	a5,16(s0)
    8bac:	c3c9                	beqz	a5,8c2e <__swbuf_r+0xba>
    8bae:	481c                	lw	a5,16(s0)
    8bb0:	4008                	lw	a0,0(s0)
    8bb2:	0ff97993          	andi	s3,s2,255
    8bb6:	0ff97913          	andi	s2,s2,255
    8bba:	8d1d                	sub	a0,a0,a5
    8bbc:	485c                	lw	a5,20(s0)
    8bbe:	00f54763          	blt	a0,a5,8bcc <__swbuf_r+0x58>
    8bc2:	85a2                	mv	a1,s0
    8bc4:	8526                	mv	a0,s1
    8bc6:	cebfe0ef          	jal	ra,78b0 <_fflush_r>
    8bca:	e535                	bnez	a0,8c36 <__swbuf_r+0xc2>
    8bcc:	441c                	lw	a5,8(s0)
    8bce:	0505                	addi	a0,a0,1
    8bd0:	17fd                	addi	a5,a5,-1
    8bd2:	c41c                	sw	a5,8(s0)
    8bd4:	401c                	lw	a5,0(s0)
    8bd6:	00178713          	addi	a4,a5,1
    8bda:	c018                	sw	a4,0(s0)
    8bdc:	01378023          	sb	s3,0(a5)
    8be0:	485c                	lw	a5,20(s0)
    8be2:	00a78963          	beq	a5,a0,8bf4 <__swbuf_r+0x80>
    8be6:	00c45783          	lhu	a5,12(s0)
    8bea:	8b85                	andi	a5,a5,1
    8bec:	cb89                	beqz	a5,8bfe <__swbuf_r+0x8a>
    8bee:	47a9                	li	a5,10
    8bf0:	00f91763          	bne	s2,a5,8bfe <__swbuf_r+0x8a>
    8bf4:	85a2                	mv	a1,s0
    8bf6:	8526                	mv	a0,s1
    8bf8:	cb9fe0ef          	jal	ra,78b0 <_fflush_r>
    8bfc:	ed0d                	bnez	a0,8c36 <__swbuf_r+0xc2>
    8bfe:	40f2                	lw	ra,28(sp)
    8c00:	4462                	lw	s0,24(sp)
    8c02:	854a                	mv	a0,s2
    8c04:	44d2                	lw	s1,20(sp)
    8c06:	4942                	lw	s2,16(sp)
    8c08:	49b2                	lw	s3,12(sp)
    8c0a:	6105                	addi	sp,sp,32
    8c0c:	8082                	ret
    8c0e:	00005797          	auipc	a5,0x5
    8c12:	02a78793          	addi	a5,a5,42 # dc38 <__sf_fake_stdout>
    8c16:	00f41463          	bne	s0,a5,8c1e <__swbuf_r+0xaa>
    8c1a:	4480                	lw	s0,8(s1)
    8c1c:	b749                	j	8b9e <__swbuf_r+0x2a>
    8c1e:	00005797          	auipc	a5,0x5
    8c22:	fda78793          	addi	a5,a5,-38 # dbf8 <__sf_fake_stderr>
    8c26:	f6f41ce3          	bne	s0,a5,8b9e <__swbuf_r+0x2a>
    8c2a:	44c0                	lw	s0,12(s1)
    8c2c:	bf8d                	j	8b9e <__swbuf_r+0x2a>
    8c2e:	85a2                	mv	a1,s0
    8c30:	8526                	mv	a0,s1
    8c32:	283d                	jal	8c70 <__swsetup_r>
    8c34:	dd2d                	beqz	a0,8bae <__swbuf_r+0x3a>
    8c36:	597d                	li	s2,-1
    8c38:	b7d9                	j	8bfe <__swbuf_r+0x8a>

00008c3a <_write_r>:
    8c3a:	1141                	addi	sp,sp,-16
    8c3c:	c422                	sw	s0,8(sp)
    8c3e:	842a                	mv	s0,a0
    8c40:	852e                	mv	a0,a1
    8c42:	85b2                	mv	a1,a2
    8c44:	8636                	mv	a2,a3
    8c46:	20006797          	auipc	a5,0x20006
    8c4a:	3007a123          	sw	zero,770(a5) # 2000ef48 <errno>
    8c4e:	c606                	sw	ra,12(sp)
    8c50:	cd9fc0ef          	jal	ra,5928 <_write>
    8c54:	57fd                	li	a5,-1
    8c56:	00f51963          	bne	a0,a5,8c68 <_write_r+0x2e>
    8c5a:	20006797          	auipc	a5,0x20006
    8c5e:	2ee78793          	addi	a5,a5,750 # 2000ef48 <errno>
    8c62:	439c                	lw	a5,0(a5)
    8c64:	c391                	beqz	a5,8c68 <_write_r+0x2e>
    8c66:	c01c                	sw	a5,0(s0)
    8c68:	40b2                	lw	ra,12(sp)
    8c6a:	4422                	lw	s0,8(sp)
    8c6c:	0141                	addi	sp,sp,16
    8c6e:	8082                	ret

00008c70 <__swsetup_r>:
    8c70:	1141                	addi	sp,sp,-16
    8c72:	82418793          	addi	a5,gp,-2012 # 20000274 <_impure_ptr>
    8c76:	c226                	sw	s1,4(sp)
    8c78:	4384                	lw	s1,0(a5)
    8c7a:	c422                	sw	s0,8(sp)
    8c7c:	c04a                	sw	s2,0(sp)
    8c7e:	c606                	sw	ra,12(sp)
    8c80:	892a                	mv	s2,a0
    8c82:	842e                	mv	s0,a1
    8c84:	c491                	beqz	s1,8c90 <__swsetup_r+0x20>
    8c86:	4c9c                	lw	a5,24(s1)
    8c88:	e781                	bnez	a5,8c90 <__swsetup_r+0x20>
    8c8a:	8526                	mv	a0,s1
    8c8c:	d45fe0ef          	jal	ra,79d0 <__sinit>
    8c90:	00005797          	auipc	a5,0x5
    8c94:	f8878793          	addi	a5,a5,-120 # dc18 <__sf_fake_stdin>
    8c98:	02f41c63          	bne	s0,a5,8cd0 <__swsetup_r+0x60>
    8c9c:	40c0                	lw	s0,4(s1)
    8c9e:	00c41703          	lh	a4,12(s0)
    8ca2:	01071793          	slli	a5,a4,0x10
    8ca6:	83c1                	srli	a5,a5,0x10
    8ca8:	0087f693          	andi	a3,a5,8
    8cac:	eebd                	bnez	a3,8d2a <__swsetup_r+0xba>
    8cae:	0107f693          	andi	a3,a5,16
    8cb2:	ee9d                	bnez	a3,8cf0 <__swsetup_r+0x80>
    8cb4:	47a5                	li	a5,9
    8cb6:	00f92023          	sw	a5,0(s2)
    8cba:	04076713          	ori	a4,a4,64
    8cbe:	00e41623          	sh	a4,12(s0)
    8cc2:	557d                	li	a0,-1
    8cc4:	40b2                	lw	ra,12(sp)
    8cc6:	4422                	lw	s0,8(sp)
    8cc8:	4492                	lw	s1,4(sp)
    8cca:	4902                	lw	s2,0(sp)
    8ccc:	0141                	addi	sp,sp,16
    8cce:	8082                	ret
    8cd0:	00005797          	auipc	a5,0x5
    8cd4:	f6878793          	addi	a5,a5,-152 # dc38 <__sf_fake_stdout>
    8cd8:	00f41463          	bne	s0,a5,8ce0 <__swsetup_r+0x70>
    8cdc:	4480                	lw	s0,8(s1)
    8cde:	b7c1                	j	8c9e <__swsetup_r+0x2e>
    8ce0:	00005797          	auipc	a5,0x5
    8ce4:	f1878793          	addi	a5,a5,-232 # dbf8 <__sf_fake_stderr>
    8ce8:	faf41be3          	bne	s0,a5,8c9e <__swsetup_r+0x2e>
    8cec:	44c0                	lw	s0,12(s1)
    8cee:	bf45                	j	8c9e <__swsetup_r+0x2e>
    8cf0:	8b91                	andi	a5,a5,4
    8cf2:	c795                	beqz	a5,8d1e <__swsetup_r+0xae>
    8cf4:	584c                	lw	a1,52(s0)
    8cf6:	c991                	beqz	a1,8d0a <__swsetup_r+0x9a>
    8cf8:	04440793          	addi	a5,s0,68
    8cfc:	00f58563          	beq	a1,a5,8d06 <__swsetup_r+0x96>
    8d00:	854a                	mv	a0,s2
    8d02:	f47fe0ef          	jal	ra,7c48 <_free_r>
    8d06:	02042a23          	sw	zero,52(s0)
    8d0a:	00c45783          	lhu	a5,12(s0)
    8d0e:	00042223          	sw	zero,4(s0)
    8d12:	fdb7f793          	andi	a5,a5,-37
    8d16:	00f41623          	sh	a5,12(s0)
    8d1a:	481c                	lw	a5,16(s0)
    8d1c:	c01c                	sw	a5,0(s0)
    8d1e:	00c45783          	lhu	a5,12(s0)
    8d22:	0087e793          	ori	a5,a5,8
    8d26:	00f41623          	sh	a5,12(s0)
    8d2a:	481c                	lw	a5,16(s0)
    8d2c:	ef81                	bnez	a5,8d44 <__swsetup_r+0xd4>
    8d2e:	00c45783          	lhu	a5,12(s0)
    8d32:	20000713          	li	a4,512
    8d36:	2807f793          	andi	a5,a5,640
    8d3a:	00e78563          	beq	a5,a4,8d44 <__swsetup_r+0xd4>
    8d3e:	85a2                	mv	a1,s0
    8d40:	854a                	mv	a0,s2
    8d42:	2a39                	jal	8e60 <__smakebuf_r>
    8d44:	00c45783          	lhu	a5,12(s0)
    8d48:	0017f713          	andi	a4,a5,1
    8d4c:	c705                	beqz	a4,8d74 <__swsetup_r+0x104>
    8d4e:	485c                	lw	a5,20(s0)
    8d50:	00042423          	sw	zero,8(s0)
    8d54:	40f007b3          	neg	a5,a5
    8d58:	cc1c                	sw	a5,24(s0)
    8d5a:	481c                	lw	a5,16(s0)
    8d5c:	4501                	li	a0,0
    8d5e:	f3bd                	bnez	a5,8cc4 <__swsetup_r+0x54>
    8d60:	00c41783          	lh	a5,12(s0)
    8d64:	0807f713          	andi	a4,a5,128
    8d68:	df31                	beqz	a4,8cc4 <__swsetup_r+0x54>
    8d6a:	0407e793          	ori	a5,a5,64
    8d6e:	00f41623          	sh	a5,12(s0)
    8d72:	bf81                	j	8cc2 <__swsetup_r+0x52>
    8d74:	8b89                	andi	a5,a5,2
    8d76:	4701                	li	a4,0
    8d78:	e391                	bnez	a5,8d7c <__swsetup_r+0x10c>
    8d7a:	4858                	lw	a4,20(s0)
    8d7c:	c418                	sw	a4,8(s0)
    8d7e:	bff1                	j	8d5a <__swsetup_r+0xea>

00008d80 <_close_r>:
    8d80:	1141                	addi	sp,sp,-16
    8d82:	c422                	sw	s0,8(sp)
    8d84:	842a                	mv	s0,a0
    8d86:	852e                	mv	a0,a1
    8d88:	20006797          	auipc	a5,0x20006
    8d8c:	1c07a023          	sw	zero,448(a5) # 2000ef48 <errno>
    8d90:	c606                	sw	ra,12(sp)
    8d92:	7e3000ef          	jal	ra,9d74 <_close>
    8d96:	57fd                	li	a5,-1
    8d98:	00f51963          	bne	a0,a5,8daa <_close_r+0x2a>
    8d9c:	20006797          	auipc	a5,0x20006
    8da0:	1ac78793          	addi	a5,a5,428 # 2000ef48 <errno>
    8da4:	439c                	lw	a5,0(a5)
    8da6:	c391                	beqz	a5,8daa <_close_r+0x2a>
    8da8:	c01c                	sw	a5,0(s0)
    8daa:	40b2                	lw	ra,12(sp)
    8dac:	4422                	lw	s0,8(sp)
    8dae:	0141                	addi	sp,sp,16
    8db0:	8082                	ret

00008db2 <__locale_ctype_ptr_l>:
    8db2:	0ec52503          	lw	a0,236(a0)
    8db6:	8082                	ret

00008db8 <__locale_ctype_ptr>:
    8db8:	82418793          	addi	a5,gp,-2012 # 20000274 <_impure_ptr>
    8dbc:	439c                	lw	a5,0(a5)
    8dbe:	539c                	lw	a5,32(a5)
    8dc0:	e789                	bnez	a5,8dca <__locale_ctype_ptr+0x12>
    8dc2:	1fff7797          	auipc	a5,0x1fff7
    8dc6:	31e78793          	addi	a5,a5,798 # 200000e0 <__global_locale>
    8dca:	0ec7a503          	lw	a0,236(a5)
    8dce:	8082                	ret

00008dd0 <_lseek_r>:
    8dd0:	1141                	addi	sp,sp,-16
    8dd2:	c422                	sw	s0,8(sp)
    8dd4:	842a                	mv	s0,a0
    8dd6:	852e                	mv	a0,a1
    8dd8:	85b2                	mv	a1,a2
    8dda:	8636                	mv	a2,a3
    8ddc:	20006797          	auipc	a5,0x20006
    8de0:	1607a623          	sw	zero,364(a5) # 2000ef48 <errno>
    8de4:	c606                	sw	ra,12(sp)
    8de6:	7bf000ef          	jal	ra,9da4 <_lseek>
    8dea:	57fd                	li	a5,-1
    8dec:	00f51963          	bne	a0,a5,8dfe <_lseek_r+0x2e>
    8df0:	20006797          	auipc	a5,0x20006
    8df4:	15878793          	addi	a5,a5,344 # 2000ef48 <errno>
    8df8:	439c                	lw	a5,0(a5)
    8dfa:	c391                	beqz	a5,8dfe <_lseek_r+0x2e>
    8dfc:	c01c                	sw	a5,0(s0)
    8dfe:	40b2                	lw	ra,12(sp)
    8e00:	4422                	lw	s0,8(sp)
    8e02:	0141                	addi	sp,sp,16
    8e04:	8082                	ret

00008e06 <__swhatbuf_r>:
    8e06:	7119                	addi	sp,sp,-128
    8e08:	daa6                	sw	s1,116(sp)
    8e0a:	84ae                	mv	s1,a1
    8e0c:	00e59583          	lh	a1,14(a1)
    8e10:	dca2                	sw	s0,120(sp)
    8e12:	de86                	sw	ra,124(sp)
    8e14:	8432                	mv	s0,a2
    8e16:	0005dc63          	bgez	a1,8e2e <__swhatbuf_r+0x28>
    8e1a:	00c4d783          	lhu	a5,12(s1)
    8e1e:	0006a023          	sw	zero,0(a3)
    8e22:	0807f793          	andi	a5,a5,128
    8e26:	e785                	bnez	a5,8e4e <__swhatbuf_r+0x48>
    8e28:	40000793          	li	a5,1024
    8e2c:	a01d                	j	8e52 <__swhatbuf_r+0x4c>
    8e2e:	0830                	addi	a2,sp,24
    8e30:	c636                	sw	a3,12(sp)
    8e32:	6cd000ef          	jal	ra,9cfe <_fstat_r>
    8e36:	46b2                	lw	a3,12(sp)
    8e38:	fe0541e3          	bltz	a0,8e1a <__swhatbuf_r+0x14>
    8e3c:	4772                	lw	a4,28(sp)
    8e3e:	67bd                	lui	a5,0xf
    8e40:	8ff9                	and	a5,a5,a4
    8e42:	7779                	lui	a4,0xffffe
    8e44:	97ba                	add	a5,a5,a4
    8e46:	0017b793          	seqz	a5,a5
    8e4a:	c29c                	sw	a5,0(a3)
    8e4c:	bff1                	j	8e28 <__swhatbuf_r+0x22>
    8e4e:	04000793          	li	a5,64
    8e52:	c01c                	sw	a5,0(s0)
    8e54:	50f6                	lw	ra,124(sp)
    8e56:	5466                	lw	s0,120(sp)
    8e58:	54d6                	lw	s1,116(sp)
    8e5a:	4501                	li	a0,0
    8e5c:	6109                	addi	sp,sp,128
    8e5e:	8082                	ret

00008e60 <__smakebuf_r>:
    8e60:	00c5d783          	lhu	a5,12(a1)
    8e64:	1101                	addi	sp,sp,-32
    8e66:	cc22                	sw	s0,24(sp)
    8e68:	ce06                	sw	ra,28(sp)
    8e6a:	ca26                	sw	s1,20(sp)
    8e6c:	c84a                	sw	s2,16(sp)
    8e6e:	8b89                	andi	a5,a5,2
    8e70:	842e                	mv	s0,a1
    8e72:	cf89                	beqz	a5,8e8c <__smakebuf_r+0x2c>
    8e74:	04740793          	addi	a5,s0,71
    8e78:	c01c                	sw	a5,0(s0)
    8e7a:	c81c                	sw	a5,16(s0)
    8e7c:	4785                	li	a5,1
    8e7e:	c85c                	sw	a5,20(s0)
    8e80:	40f2                	lw	ra,28(sp)
    8e82:	4462                	lw	s0,24(sp)
    8e84:	44d2                	lw	s1,20(sp)
    8e86:	4942                	lw	s2,16(sp)
    8e88:	6105                	addi	sp,sp,32
    8e8a:	8082                	ret
    8e8c:	0074                	addi	a3,sp,12
    8e8e:	0030                	addi	a2,sp,8
    8e90:	84aa                	mv	s1,a0
    8e92:	f75ff0ef          	jal	ra,8e06 <__swhatbuf_r>
    8e96:	45a2                	lw	a1,8(sp)
    8e98:	892a                	mv	s2,a0
    8e9a:	8526                	mv	a0,s1
    8e9c:	e55fe0ef          	jal	ra,7cf0 <_malloc_r>
    8ea0:	ed01                	bnez	a0,8eb8 <__smakebuf_r+0x58>
    8ea2:	00c41783          	lh	a5,12(s0)
    8ea6:	2007f713          	andi	a4,a5,512
    8eaa:	fb79                	bnez	a4,8e80 <__smakebuf_r+0x20>
    8eac:	9bf1                	andi	a5,a5,-4
    8eae:	0027e793          	ori	a5,a5,2
    8eb2:	00f41623          	sh	a5,12(s0)
    8eb6:	bf7d                	j	8e74 <__smakebuf_r+0x14>
    8eb8:	fffff797          	auipc	a5,0xfffff
    8ebc:	ac878793          	addi	a5,a5,-1336 # 7980 <_cleanup_r>
    8ec0:	d49c                	sw	a5,40(s1)
    8ec2:	00c45783          	lhu	a5,12(s0)
    8ec6:	c008                	sw	a0,0(s0)
    8ec8:	c808                	sw	a0,16(s0)
    8eca:	0807e793          	ori	a5,a5,128
    8ece:	00f41623          	sh	a5,12(s0)
    8ed2:	47a2                	lw	a5,8(sp)
    8ed4:	c85c                	sw	a5,20(s0)
    8ed6:	47b2                	lw	a5,12(sp)
    8ed8:	cf91                	beqz	a5,8ef4 <__smakebuf_r+0x94>
    8eda:	00e41583          	lh	a1,14(s0)
    8ede:	8526                	mv	a0,s1
    8ee0:	651000ef          	jal	ra,9d30 <_isatty_r>
    8ee4:	c901                	beqz	a0,8ef4 <__smakebuf_r+0x94>
    8ee6:	00c45783          	lhu	a5,12(s0)
    8eea:	9bf1                	andi	a5,a5,-4
    8eec:	0017e793          	ori	a5,a5,1
    8ef0:	00f41623          	sh	a5,12(s0)
    8ef4:	00c45783          	lhu	a5,12(s0)
    8ef8:	00f96933          	or	s2,s2,a5
    8efc:	01241623          	sh	s2,12(s0)
    8f00:	b741                	j	8e80 <__smakebuf_r+0x20>

00008f02 <__ascii_mbtowc>:
    8f02:	e185                	bnez	a1,8f22 <__ascii_mbtowc+0x20>
    8f04:	1141                	addi	sp,sp,-16
    8f06:	006c                	addi	a1,sp,12
    8f08:	4501                	li	a0,0
    8f0a:	ca11                	beqz	a2,8f1e <__ascii_mbtowc+0x1c>
    8f0c:	5579                	li	a0,-2
    8f0e:	ca81                	beqz	a3,8f1e <__ascii_mbtowc+0x1c>
    8f10:	00064783          	lbu	a5,0(a2)
    8f14:	c19c                	sw	a5,0(a1)
    8f16:	00064503          	lbu	a0,0(a2)
    8f1a:	00a03533          	snez	a0,a0
    8f1e:	0141                	addi	sp,sp,16
    8f20:	8082                	ret
    8f22:	4501                	li	a0,0
    8f24:	ca19                	beqz	a2,8f3a <__ascii_mbtowc+0x38>
    8f26:	5579                	li	a0,-2
    8f28:	ca89                	beqz	a3,8f3a <__ascii_mbtowc+0x38>
    8f2a:	00064783          	lbu	a5,0(a2)
    8f2e:	c19c                	sw	a5,0(a1)
    8f30:	00064503          	lbu	a0,0(a2)
    8f34:	00a03533          	snez	a0,a0
    8f38:	8082                	ret
    8f3a:	8082                	ret

00008f3c <memchr>:
    8f3c:	0ff5f593          	andi	a1,a1,255
    8f40:	962a                	add	a2,a2,a0
    8f42:	00c51463          	bne	a0,a2,8f4a <memchr+0xe>
    8f46:	4501                	li	a0,0
    8f48:	8082                	ret
    8f4a:	00054783          	lbu	a5,0(a0)
    8f4e:	feb78de3          	beq	a5,a1,8f48 <memchr+0xc>
    8f52:	0505                	addi	a0,a0,1
    8f54:	b7fd                	j	8f42 <memchr+0x6>

00008f56 <__malloc_lock>:
    8f56:	8082                	ret

00008f58 <__malloc_unlock>:
    8f58:	8082                	ret

00008f5a <_realloc_r>:
    8f5a:	e581                	bnez	a1,8f62 <_realloc_r+0x8>
    8f5c:	85b2                	mv	a1,a2
    8f5e:	d93fe06f          	j	7cf0 <_malloc_r>
    8f62:	1101                	addi	sp,sp,-32
    8f64:	cc22                	sw	s0,24(sp)
    8f66:	ce06                	sw	ra,28(sp)
    8f68:	ca26                	sw	s1,20(sp)
    8f6a:	c84a                	sw	s2,16(sp)
    8f6c:	c64e                	sw	s3,12(sp)
    8f6e:	8432                	mv	s0,a2
    8f70:	ee01                	bnez	a2,8f88 <_realloc_r+0x2e>
    8f72:	cd7fe0ef          	jal	ra,7c48 <_free_r>
    8f76:	4901                	li	s2,0
    8f78:	40f2                	lw	ra,28(sp)
    8f7a:	4462                	lw	s0,24(sp)
    8f7c:	854a                	mv	a0,s2
    8f7e:	44d2                	lw	s1,20(sp)
    8f80:	4942                	lw	s2,16(sp)
    8f82:	49b2                	lw	s3,12(sp)
    8f84:	6105                	addi	sp,sp,32
    8f86:	8082                	ret
    8f88:	84ae                	mv	s1,a1
    8f8a:	89aa                	mv	s3,a0
    8f8c:	5d5000ef          	jal	ra,9d60 <_malloc_usable_size_r>
    8f90:	8926                	mv	s2,s1
    8f92:	fe8573e3          	bgeu	a0,s0,8f78 <_realloc_r+0x1e>
    8f96:	85a2                	mv	a1,s0
    8f98:	854e                	mv	a0,s3
    8f9a:	d57fe0ef          	jal	ra,7cf0 <_malloc_r>
    8f9e:	892a                	mv	s2,a0
    8fa0:	dd61                	beqz	a0,8f78 <_realloc_r+0x1e>
    8fa2:	85a6                	mv	a1,s1
    8fa4:	8622                	mv	a2,s0
    8fa6:	ba3fe0ef          	jal	ra,7b48 <memcpy>
    8faa:	85a6                	mv	a1,s1
    8fac:	854e                	mv	a0,s3
    8fae:	c9bfe0ef          	jal	ra,7c48 <_free_r>
    8fb2:	b7d9                	j	8f78 <_realloc_r+0x1e>

00008fb4 <__ssputs_r>:
    8fb4:	1101                	addi	sp,sp,-32
    8fb6:	c84a                	sw	s2,16(sp)
    8fb8:	0085a903          	lw	s2,8(a1)
    8fbc:	cc22                	sw	s0,24(sp)
    8fbe:	c452                	sw	s4,8(sp)
    8fc0:	c05a                	sw	s6,0(sp)
    8fc2:	ce06                	sw	ra,28(sp)
    8fc4:	ca26                	sw	s1,20(sp)
    8fc6:	c64e                	sw	s3,12(sp)
    8fc8:	c256                	sw	s5,4(sp)
    8fca:	842e                	mv	s0,a1
    8fcc:	8b32                	mv	s6,a2
    8fce:	8a36                	mv	s4,a3
    8fd0:	0926ee63          	bltu	a3,s2,906c <__ssputs_r+0xb8>
    8fd4:	00c5d783          	lhu	a5,12(a1)
    8fd8:	4807f713          	andi	a4,a5,1152
    8fdc:	c751                	beqz	a4,9068 <__ssputs_r+0xb4>
    8fde:	4004                	lw	s1,0(s0)
    8fe0:	498c                	lw	a1,16(a1)
    8fe2:	4858                	lw	a4,20(s0)
    8fe4:	8aaa                	mv	s5,a0
    8fe6:	40b489b3          	sub	s3,s1,a1
    8fea:	448d                	li	s1,3
    8fec:	02e484b3          	mul	s1,s1,a4
    8ff0:	4709                	li	a4,2
    8ff2:	02e4c4b3          	div	s1,s1,a4
    8ff6:	00168713          	addi	a4,a3,1
    8ffa:	974e                	add	a4,a4,s3
    8ffc:	00e4f363          	bgeu	s1,a4,9002 <__ssputs_r+0x4e>
    9000:	84ba                	mv	s1,a4
    9002:	4007f793          	andi	a5,a5,1024
    9006:	c3d9                	beqz	a5,908c <__ssputs_r+0xd8>
    9008:	85a6                	mv	a1,s1
    900a:	8556                	mv	a0,s5
    900c:	ce5fe0ef          	jal	ra,7cf0 <_malloc_r>
    9010:	892a                	mv	s2,a0
    9012:	e50d                	bnez	a0,903c <__ssputs_r+0x88>
    9014:	47b1                	li	a5,12
    9016:	00faa023          	sw	a5,0(s5)
    901a:	00c45783          	lhu	a5,12(s0)
    901e:	557d                	li	a0,-1
    9020:	0407e793          	ori	a5,a5,64
    9024:	00f41623          	sh	a5,12(s0)
    9028:	40f2                	lw	ra,28(sp)
    902a:	4462                	lw	s0,24(sp)
    902c:	44d2                	lw	s1,20(sp)
    902e:	4942                	lw	s2,16(sp)
    9030:	49b2                	lw	s3,12(sp)
    9032:	4a22                	lw	s4,8(sp)
    9034:	4a92                	lw	s5,4(sp)
    9036:	4b02                	lw	s6,0(sp)
    9038:	6105                	addi	sp,sp,32
    903a:	8082                	ret
    903c:	480c                	lw	a1,16(s0)
    903e:	864e                	mv	a2,s3
    9040:	b09fe0ef          	jal	ra,7b48 <memcpy>
    9044:	00c45783          	lhu	a5,12(s0)
    9048:	b7f7f793          	andi	a5,a5,-1153
    904c:	0807e793          	ori	a5,a5,128
    9050:	00f41623          	sh	a5,12(s0)
    9054:	01242823          	sw	s2,16(s0)
    9058:	c844                	sw	s1,20(s0)
    905a:	994e                	add	s2,s2,s3
    905c:	413484b3          	sub	s1,s1,s3
    9060:	01242023          	sw	s2,0(s0)
    9064:	c404                	sw	s1,8(s0)
    9066:	8952                	mv	s2,s4
    9068:	012a7363          	bgeu	s4,s2,906e <__ssputs_r+0xba>
    906c:	8952                	mv	s2,s4
    906e:	4008                	lw	a0,0(s0)
    9070:	864a                	mv	a2,s2
    9072:	85da                	mv	a1,s6
    9074:	b8bfe0ef          	jal	ra,7bfe <memmove>
    9078:	441c                	lw	a5,8(s0)
    907a:	4501                	li	a0,0
    907c:	412787b3          	sub	a5,a5,s2
    9080:	c41c                	sw	a5,8(s0)
    9082:	401c                	lw	a5,0(s0)
    9084:	993e                	add	s2,s2,a5
    9086:	01242023          	sw	s2,0(s0)
    908a:	bf79                	j	9028 <__ssputs_r+0x74>
    908c:	8626                	mv	a2,s1
    908e:	8556                	mv	a0,s5
    9090:	ecbff0ef          	jal	ra,8f5a <_realloc_r>
    9094:	892a                	mv	s2,a0
    9096:	fd5d                	bnez	a0,9054 <__ssputs_r+0xa0>
    9098:	480c                	lw	a1,16(s0)
    909a:	8556                	mv	a0,s5
    909c:	badfe0ef          	jal	ra,7c48 <_free_r>
    90a0:	bf95                	j	9014 <__ssputs_r+0x60>

000090a2 <_svfiprintf_r>:
    90a2:	00c5d783          	lhu	a5,12(a1)
    90a6:	7171                	addi	sp,sp,-176
    90a8:	d326                	sw	s1,164(sp)
    90aa:	d14a                	sw	s2,160(sp)
    90ac:	cf4e                	sw	s3,156(sp)
    90ae:	d706                	sw	ra,172(sp)
    90b0:	d522                	sw	s0,168(sp)
    90b2:	cd52                	sw	s4,152(sp)
    90b4:	cb56                	sw	s5,148(sp)
    90b6:	c95a                	sw	s6,144(sp)
    90b8:	c75e                	sw	s7,140(sp)
    90ba:	c562                	sw	s8,136(sp)
    90bc:	c366                	sw	s9,132(sp)
    90be:	0807f793          	andi	a5,a5,128
    90c2:	89aa                	mv	s3,a0
    90c4:	892e                	mv	s2,a1
    90c6:	84b2                	mv	s1,a2
    90c8:	c3b9                	beqz	a5,910e <_svfiprintf_r+0x6c>
    90ca:	499c                	lw	a5,16(a1)
    90cc:	e3a9                	bnez	a5,910e <_svfiprintf_r+0x6c>
    90ce:	04000593          	li	a1,64
    90d2:	c636                	sw	a3,12(sp)
    90d4:	c1dfe0ef          	jal	ra,7cf0 <_malloc_r>
    90d8:	00a92023          	sw	a0,0(s2)
    90dc:	00a92823          	sw	a0,16(s2)
    90e0:	46b2                	lw	a3,12(sp)
    90e2:	e115                	bnez	a0,9106 <_svfiprintf_r+0x64>
    90e4:	47b1                	li	a5,12
    90e6:	00f9a023          	sw	a5,0(s3)
    90ea:	557d                	li	a0,-1
    90ec:	50ba                	lw	ra,172(sp)
    90ee:	542a                	lw	s0,168(sp)
    90f0:	549a                	lw	s1,164(sp)
    90f2:	590a                	lw	s2,160(sp)
    90f4:	49fa                	lw	s3,156(sp)
    90f6:	4a6a                	lw	s4,152(sp)
    90f8:	4ada                	lw	s5,148(sp)
    90fa:	4b4a                	lw	s6,144(sp)
    90fc:	4bba                	lw	s7,140(sp)
    90fe:	4c2a                	lw	s8,136(sp)
    9100:	4c9a                	lw	s9,132(sp)
    9102:	614d                	addi	sp,sp,176
    9104:	8082                	ret
    9106:	04000793          	li	a5,64
    910a:	00f92a23          	sw	a5,20(s2)
    910e:	02000793          	li	a5,32
    9112:	02f10ca3          	sb	a5,57(sp)
    9116:	03000793          	li	a5,48
    911a:	da02                	sw	zero,52(sp)
    911c:	02f10d23          	sb	a5,58(sp)
    9120:	ce36                	sw	a3,28(sp)
    9122:	02500b93          	li	s7,37
    9126:	00005a97          	auipc	s5,0x5
    912a:	b32a8a93          	addi	s5,s5,-1230 # dc58 <__sf_fake_stdout+0x20>
    912e:	4c05                	li	s8,1
    9130:	4b29                	li	s6,10
    9132:	8426                	mv	s0,s1
    9134:	00044783          	lbu	a5,0(s0)
    9138:	c399                	beqz	a5,913e <_svfiprintf_r+0x9c>
    913a:	09779d63          	bne	a5,s7,91d4 <_svfiprintf_r+0x132>
    913e:	40940cb3          	sub	s9,s0,s1
    9142:	000c8e63          	beqz	s9,915e <_svfiprintf_r+0xbc>
    9146:	86e6                	mv	a3,s9
    9148:	8626                	mv	a2,s1
    914a:	85ca                	mv	a1,s2
    914c:	854e                	mv	a0,s3
    914e:	e67ff0ef          	jal	ra,8fb4 <__ssputs_r>
    9152:	57fd                	li	a5,-1
    9154:	1af50463          	beq	a0,a5,92fc <_svfiprintf_r+0x25a>
    9158:	56d2                	lw	a3,52(sp)
    915a:	96e6                	add	a3,a3,s9
    915c:	da36                	sw	a3,52(sp)
    915e:	00044783          	lbu	a5,0(s0)
    9162:	18078d63          	beqz	a5,92fc <_svfiprintf_r+0x25a>
    9166:	57fd                	li	a5,-1
    9168:	00140493          	addi	s1,s0,1
    916c:	d002                	sw	zero,32(sp)
    916e:	d602                	sw	zero,44(sp)
    9170:	d23e                	sw	a5,36(sp)
    9172:	d402                	sw	zero,40(sp)
    9174:	060101a3          	sb	zero,99(sp)
    9178:	dc82                	sw	zero,120(sp)
    917a:	0004c583          	lbu	a1,0(s1)
    917e:	4615                	li	a2,5
    9180:	8556                	mv	a0,s5
    9182:	dbbff0ef          	jal	ra,8f3c <memchr>
    9186:	00148413          	addi	s0,s1,1
    918a:	5782                	lw	a5,32(sp)
    918c:	e531                	bnez	a0,91d8 <_svfiprintf_r+0x136>
    918e:	0107f713          	andi	a4,a5,16
    9192:	c709                	beqz	a4,919c <_svfiprintf_r+0xfa>
    9194:	02000713          	li	a4,32
    9198:	06e101a3          	sb	a4,99(sp)
    919c:	0087f713          	andi	a4,a5,8
    91a0:	c709                	beqz	a4,91aa <_svfiprintf_r+0x108>
    91a2:	02b00713          	li	a4,43
    91a6:	06e101a3          	sb	a4,99(sp)
    91aa:	0004c683          	lbu	a3,0(s1)
    91ae:	02a00713          	li	a4,42
    91b2:	02e68b63          	beq	a3,a4,91e8 <_svfiprintf_r+0x146>
    91b6:	57b2                	lw	a5,44(sp)
    91b8:	8426                	mv	s0,s1
    91ba:	4681                	li	a3,0
    91bc:	4625                	li	a2,9
    91be:	00044703          	lbu	a4,0(s0)
    91c2:	00140593          	addi	a1,s0,1
    91c6:	fd070713          	addi	a4,a4,-48 # ffffdfd0 <_eusrstack+0xdffedfd0>
    91ca:	06e67463          	bgeu	a2,a4,9232 <_svfiprintf_r+0x190>
    91ce:	c68d                	beqz	a3,91f8 <_svfiprintf_r+0x156>
    91d0:	d63e                	sw	a5,44(sp)
    91d2:	a01d                	j	91f8 <_svfiprintf_r+0x156>
    91d4:	0405                	addi	s0,s0,1
    91d6:	bfb9                	j	9134 <_svfiprintf_r+0x92>
    91d8:	41550533          	sub	a0,a0,s5
    91dc:	00ac1533          	sll	a0,s8,a0
    91e0:	8fc9                	or	a5,a5,a0
    91e2:	d03e                	sw	a5,32(sp)
    91e4:	84a2                	mv	s1,s0
    91e6:	bf51                	j	917a <_svfiprintf_r+0xd8>
    91e8:	4772                	lw	a4,28(sp)
    91ea:	00470693          	addi	a3,a4,4
    91ee:	4318                	lw	a4,0(a4)
    91f0:	ce36                	sw	a3,28(sp)
    91f2:	02074963          	bltz	a4,9224 <_svfiprintf_r+0x182>
    91f6:	d63a                	sw	a4,44(sp)
    91f8:	00044703          	lbu	a4,0(s0)
    91fc:	02e00793          	li	a5,46
    9200:	04f71f63          	bne	a4,a5,925e <_svfiprintf_r+0x1bc>
    9204:	00144703          	lbu	a4,1(s0)
    9208:	02a00793          	li	a5,42
    920c:	02f71b63          	bne	a4,a5,9242 <_svfiprintf_r+0x1a0>
    9210:	47f2                	lw	a5,28(sp)
    9212:	0409                	addi	s0,s0,2
    9214:	00478713          	addi	a4,a5,4
    9218:	439c                	lw	a5,0(a5)
    921a:	ce3a                	sw	a4,28(sp)
    921c:	0207c163          	bltz	a5,923e <_svfiprintf_r+0x19c>
    9220:	d23e                	sw	a5,36(sp)
    9222:	a835                	j	925e <_svfiprintf_r+0x1bc>
    9224:	40e00733          	neg	a4,a4
    9228:	0027e793          	ori	a5,a5,2
    922c:	d63a                	sw	a4,44(sp)
    922e:	d03e                	sw	a5,32(sp)
    9230:	b7e1                	j	91f8 <_svfiprintf_r+0x156>
    9232:	036787b3          	mul	a5,a5,s6
    9236:	4685                	li	a3,1
    9238:	842e                	mv	s0,a1
    923a:	97ba                	add	a5,a5,a4
    923c:	b749                	j	91be <_svfiprintf_r+0x11c>
    923e:	57fd                	li	a5,-1
    9240:	b7c5                	j	9220 <_svfiprintf_r+0x17e>
    9242:	0405                	addi	s0,s0,1
    9244:	d202                	sw	zero,36(sp)
    9246:	4681                	li	a3,0
    9248:	4781                	li	a5,0
    924a:	4625                	li	a2,9
    924c:	00044703          	lbu	a4,0(s0)
    9250:	00140593          	addi	a1,s0,1
    9254:	fd070713          	addi	a4,a4,-48
    9258:	06e67863          	bgeu	a2,a4,92c8 <_svfiprintf_r+0x226>
    925c:	f2f1                	bnez	a3,9220 <_svfiprintf_r+0x17e>
    925e:	00044583          	lbu	a1,0(s0)
    9262:	460d                	li	a2,3
    9264:	00005517          	auipc	a0,0x5
    9268:	9fc50513          	addi	a0,a0,-1540 # dc60 <__sf_fake_stdout+0x28>
    926c:	cd1ff0ef          	jal	ra,8f3c <memchr>
    9270:	cd11                	beqz	a0,928c <_svfiprintf_r+0x1ea>
    9272:	00005797          	auipc	a5,0x5
    9276:	9ee78793          	addi	a5,a5,-1554 # dc60 <__sf_fake_stdout+0x28>
    927a:	8d1d                	sub	a0,a0,a5
    927c:	04000793          	li	a5,64
    9280:	00a797b3          	sll	a5,a5,a0
    9284:	5502                	lw	a0,32(sp)
    9286:	0405                	addi	s0,s0,1
    9288:	8d5d                	or	a0,a0,a5
    928a:	d02a                	sw	a0,32(sp)
    928c:	00044583          	lbu	a1,0(s0)
    9290:	4619                	li	a2,6
    9292:	00005517          	auipc	a0,0x5
    9296:	9d250513          	addi	a0,a0,-1582 # dc64 <__sf_fake_stdout+0x2c>
    929a:	00140493          	addi	s1,s0,1
    929e:	02b10c23          	sb	a1,56(sp)
    92a2:	c9bff0ef          	jal	ra,8f3c <memchr>
    92a6:	c525                	beqz	a0,930e <_svfiprintf_r+0x26c>
    92a8:	ffff7797          	auipc	a5,0xffff7
    92ac:	d5878793          	addi	a5,a5,-680 # 0 <_sinit>
    92b0:	e795                	bnez	a5,92dc <_svfiprintf_r+0x23a>
    92b2:	5702                	lw	a4,32(sp)
    92b4:	47f2                	lw	a5,28(sp)
    92b6:	10077713          	andi	a4,a4,256
    92ba:	cf09                	beqz	a4,92d4 <_svfiprintf_r+0x232>
    92bc:	0791                	addi	a5,a5,4
    92be:	ce3e                	sw	a5,28(sp)
    92c0:	57d2                	lw	a5,52(sp)
    92c2:	97d2                	add	a5,a5,s4
    92c4:	da3e                	sw	a5,52(sp)
    92c6:	b5b5                	j	9132 <_svfiprintf_r+0x90>
    92c8:	036787b3          	mul	a5,a5,s6
    92cc:	4685                	li	a3,1
    92ce:	842e                	mv	s0,a1
    92d0:	97ba                	add	a5,a5,a4
    92d2:	bfad                	j	924c <_svfiprintf_r+0x1aa>
    92d4:	079d                	addi	a5,a5,7
    92d6:	9be1                	andi	a5,a5,-8
    92d8:	07a1                	addi	a5,a5,8
    92da:	b7d5                	j	92be <_svfiprintf_r+0x21c>
    92dc:	0878                	addi	a4,sp,28
    92de:	00000697          	auipc	a3,0x0
    92e2:	cd668693          	addi	a3,a3,-810 # 8fb4 <__ssputs_r>
    92e6:	864a                	mv	a2,s2
    92e8:	100c                	addi	a1,sp,32
    92ea:	854e                	mv	a0,s3
    92ec:	00000097          	auipc	ra,0x0
    92f0:	000000e7          	jalr	zero # 0 <_sinit>
    92f4:	57fd                	li	a5,-1
    92f6:	8a2a                	mv	s4,a0
    92f8:	fcf514e3          	bne	a0,a5,92c0 <_svfiprintf_r+0x21e>
    92fc:	00c95783          	lhu	a5,12(s2)
    9300:	557d                	li	a0,-1
    9302:	0407f793          	andi	a5,a5,64
    9306:	de0793e3          	bnez	a5,90ec <_svfiprintf_r+0x4a>
    930a:	5552                	lw	a0,52(sp)
    930c:	b3c5                	j	90ec <_svfiprintf_r+0x4a>
    930e:	0878                	addi	a4,sp,28
    9310:	00000697          	auipc	a3,0x0
    9314:	ca468693          	addi	a3,a3,-860 # 8fb4 <__ssputs_r>
    9318:	864a                	mv	a2,s2
    931a:	100c                	addi	a1,sp,32
    931c:	854e                	mv	a0,s3
    931e:	ec9fe0ef          	jal	ra,81e6 <_printf_i>
    9322:	bfc9                	j	92f4 <_svfiprintf_r+0x252>

00009324 <_sungetc_r>:
    9324:	1141                	addi	sp,sp,-16
    9326:	c606                	sw	ra,12(sp)
    9328:	c422                	sw	s0,8(sp)
    932a:	c226                	sw	s1,4(sp)
    932c:	c04a                	sw	s2,0(sp)
    932e:	57fd                	li	a5,-1
    9330:	00f59a63          	bne	a1,a5,9344 <_sungetc_r+0x20>
    9334:	54fd                	li	s1,-1
    9336:	40b2                	lw	ra,12(sp)
    9338:	4422                	lw	s0,8(sp)
    933a:	8526                	mv	a0,s1
    933c:	4902                	lw	s2,0(sp)
    933e:	4492                	lw	s1,4(sp)
    9340:	0141                	addi	sp,sp,16
    9342:	8082                	ret
    9344:	00c65783          	lhu	a5,12(a2)
    9348:	0ff5f913          	andi	s2,a1,255
    934c:	0ff5f493          	andi	s1,a1,255
    9350:	fdf7f793          	andi	a5,a5,-33
    9354:	00f61623          	sh	a5,12(a2)
    9358:	5a5c                	lw	a5,52(a2)
    935a:	4258                	lw	a4,4(a2)
    935c:	c785                	beqz	a5,9384 <_sungetc_r+0x60>
    935e:	5e1c                	lw	a5,56(a2)
    9360:	8432                	mv	s0,a2
    9362:	00f75c63          	bge	a4,a5,937a <_sungetc_r+0x56>
    9366:	401c                	lw	a5,0(s0)
    9368:	fff78713          	addi	a4,a5,-1
    936c:	c018                	sw	a4,0(s0)
    936e:	ff278fa3          	sb	s2,-1(a5)
    9372:	405c                	lw	a5,4(s0)
    9374:	0785                	addi	a5,a5,1
    9376:	c05c                	sw	a5,4(s0)
    9378:	bf7d                	j	9336 <_sungetc_r+0x12>
    937a:	85b2                	mv	a1,a2
    937c:	0d7000ef          	jal	ra,9c52 <__submore>
    9380:	d17d                	beqz	a0,9366 <_sungetc_r+0x42>
    9382:	bf4d                	j	9334 <_sungetc_r+0x10>
    9384:	4a14                	lw	a3,16(a2)
    9386:	421c                	lw	a5,0(a2)
    9388:	ce81                	beqz	a3,93a0 <_sungetc_r+0x7c>
    938a:	00f6fb63          	bgeu	a3,a5,93a0 <_sungetc_r+0x7c>
    938e:	fff7c683          	lbu	a3,-1(a5)
    9392:	00969763          	bne	a3,s1,93a0 <_sungetc_r+0x7c>
    9396:	17fd                	addi	a5,a5,-1
    9398:	0705                	addi	a4,a4,1
    939a:	c21c                	sw	a5,0(a2)
    939c:	c258                	sw	a4,4(a2)
    939e:	bf61                	j	9336 <_sungetc_r+0x12>
    93a0:	de5c                	sw	a5,60(a2)
    93a2:	04460793          	addi	a5,a2,68
    93a6:	da5c                	sw	a5,52(a2)
    93a8:	478d                	li	a5,3
    93aa:	de1c                	sw	a5,56(a2)
    93ac:	04660793          	addi	a5,a2,70
    93b0:	c21c                	sw	a5,0(a2)
    93b2:	4785                	li	a5,1
    93b4:	c238                	sw	a4,64(a2)
    93b6:	05260323          	sb	s2,70(a2)
    93ba:	c25c                	sw	a5,4(a2)
    93bc:	bfad                	j	9336 <_sungetc_r+0x12>

000093be <__ssrefill_r>:
    93be:	1141                	addi	sp,sp,-16
    93c0:	c422                	sw	s0,8(sp)
    93c2:	842e                	mv	s0,a1
    93c4:	59cc                	lw	a1,52(a1)
    93c6:	c606                	sw	ra,12(sp)
    93c8:	c19d                	beqz	a1,93ee <__ssrefill_r+0x30>
    93ca:	04440793          	addi	a5,s0,68
    93ce:	00f58463          	beq	a1,a5,93d6 <__ssrefill_r+0x18>
    93d2:	877fe0ef          	jal	ra,7c48 <_free_r>
    93d6:	403c                	lw	a5,64(s0)
    93d8:	02042a23          	sw	zero,52(s0)
    93dc:	c05c                	sw	a5,4(s0)
    93de:	cb81                	beqz	a5,93ee <__ssrefill_r+0x30>
    93e0:	5c5c                	lw	a5,60(s0)
    93e2:	4501                	li	a0,0
    93e4:	c01c                	sw	a5,0(s0)
    93e6:	40b2                	lw	ra,12(sp)
    93e8:	4422                	lw	s0,8(sp)
    93ea:	0141                	addi	sp,sp,16
    93ec:	8082                	ret
    93ee:	481c                	lw	a5,16(s0)
    93f0:	00042223          	sw	zero,4(s0)
    93f4:	557d                	li	a0,-1
    93f6:	c01c                	sw	a5,0(s0)
    93f8:	00c45783          	lhu	a5,12(s0)
    93fc:	0207e793          	ori	a5,a5,32
    9400:	00f41623          	sh	a5,12(s0)
    9404:	b7cd                	j	93e6 <__ssrefill_r+0x28>

00009406 <__ssvfiscanf_r>:
    9406:	d2010113          	addi	sp,sp,-736
    940a:	00000797          	auipc	a5,0x0
    940e:	f1a78793          	addi	a5,a5,-230 # 9324 <_sungetc_r>
    9412:	2d312623          	sw	s3,716(sp)
    9416:	28f12c23          	sw	a5,664(sp)
    941a:	01c10993          	addi	s3,sp,28
    941e:	00000797          	auipc	a5,0x0
    9422:	fa078793          	addi	a5,a5,-96 # 93be <__ssrefill_r>
    9426:	2c812c23          	sw	s0,728(sp)
    942a:	2c912a23          	sw	s1,724(sp)
    942e:	2d212823          	sw	s2,720(sp)
    9432:	2d412423          	sw	s4,712(sp)
    9436:	2d512223          	sw	s5,708(sp)
    943a:	2d612023          	sw	s6,704(sp)
    943e:	2b712e23          	sw	s7,700(sp)
    9442:	2b812c23          	sw	s8,696(sp)
    9446:	2c112e23          	sw	ra,732(sp)
    944a:	2b912a23          	sw	s9,692(sp)
    944e:	2ba12823          	sw	s10,688(sp)
    9452:	2bb12623          	sw	s11,684(sp)
    9456:	84aa                	mv	s1,a0
    9458:	842e                	mv	s0,a1
    945a:	12012423          	sw	zero,296(sp)
    945e:	12012623          	sw	zero,300(sp)
    9462:	13312823          	sw	s3,304(sp)
    9466:	28f12e23          	sw	a5,668(sp)
    946a:	cc36                	sw	a3,24(sp)
    946c:	02500a13          	li	s4,37
    9470:	02a00b13          	li	s6,42
    9474:	4ba5                	li	s7,9
    9476:	4929                	li	s2,10
    9478:	00004a97          	auipc	s5,0x4
    947c:	7e8a8a93          	addi	s5,s5,2024 # dc60 <__sf_fake_stdout+0x28>
    9480:	ffff7c17          	auipc	s8,0xffff7
    9484:	b80c0c13          	addi	s8,s8,-1152 # 0 <_sinit>
    9488:	00064783          	lbu	a5,0(a2)
    948c:	c632                	sw	a2,12(sp)
    948e:	32078463          	beqz	a5,97b6 <__ssvfiscanf_r+0x3b0>
    9492:	927ff0ef          	jal	ra,8db8 <__locale_ctype_ptr>
    9496:	4632                	lw	a2,12(sp)
    9498:	00064d83          	lbu	s11,0(a2)
    949c:	00160c93          	addi	s9,a2,1
    94a0:	956e                	add	a0,a0,s11
    94a2:	00154783          	lbu	a5,1(a0)
    94a6:	8ba1                	andi	a5,a5,8
    94a8:	c3b1                	beqz	a5,94ec <__ssvfiscanf_r+0xe6>
    94aa:	405c                	lw	a5,4(s0)
    94ac:	02f05963          	blez	a5,94de <__ssvfiscanf_r+0xd8>
    94b0:	909ff0ef          	jal	ra,8db8 <__locale_ctype_ptr>
    94b4:	401c                	lw	a5,0(s0)
    94b6:	0007c703          	lbu	a4,0(a5)
    94ba:	953a                	add	a0,a0,a4
    94bc:	00154703          	lbu	a4,1(a0)
    94c0:	8b21                	andi	a4,a4,8
    94c2:	e319                	bnez	a4,94c8 <__ssvfiscanf_r+0xc2>
    94c4:	8666                	mv	a2,s9
    94c6:	b7c9                	j	9488 <__ssvfiscanf_r+0x82>
    94c8:	12c12703          	lw	a4,300(sp)
    94cc:	0785                	addi	a5,a5,1
    94ce:	c01c                	sw	a5,0(s0)
    94d0:	0705                	addi	a4,a4,1
    94d2:	12e12623          	sw	a4,300(sp)
    94d6:	4058                	lw	a4,4(s0)
    94d8:	177d                	addi	a4,a4,-1
    94da:	c058                	sw	a4,4(s0)
    94dc:	b7f9                	j	94aa <__ssvfiscanf_r+0xa4>
    94de:	29c12783          	lw	a5,668(sp)
    94e2:	85a2                	mv	a1,s0
    94e4:	8526                	mv	a0,s1
    94e6:	9782                	jalr	a5
    94e8:	d561                	beqz	a0,94b0 <__ssvfiscanf_r+0xaa>
    94ea:	bfe9                	j	94c4 <__ssvfiscanf_r+0xbe>
    94ec:	174d9a63          	bne	s11,s4,9660 <__ssvfiscanf_r+0x25a>
    94f0:	12012223          	sw	zero,292(sp)
    94f4:	10012e23          	sw	zero,284(sp)
    94f8:	00164783          	lbu	a5,1(a2)
    94fc:	01679763          	bne	a5,s6,950a <__ssvfiscanf_r+0x104>
    9500:	47c1                	li	a5,16
    9502:	10f12e23          	sw	a5,284(sp)
    9506:	00260c93          	addi	s9,a2,2
    950a:	000cc583          	lbu	a1,0(s9)
    950e:	8d66                	mv	s10,s9
    9510:	0c85                	addi	s9,s9,1
    9512:	fd058793          	addi	a5,a1,-48
    9516:	06fbf063          	bgeu	s7,a5,9576 <__ssvfiscanf_r+0x170>
    951a:	460d                	li	a2,3
    951c:	8556                	mv	a0,s5
    951e:	a1fff0ef          	jal	ra,8f3c <memchr>
    9522:	cd01                	beqz	a0,953a <__ssvfiscanf_r+0x134>
    9524:	41550533          	sub	a0,a0,s5
    9528:	4785                	li	a5,1
    952a:	00a797b3          	sll	a5,a5,a0
    952e:	11c12503          	lw	a0,284(sp)
    9532:	8d66                	mv	s10,s9
    9534:	8d5d                	or	a0,a0,a5
    9536:	10a12e23          	sw	a0,284(sp)
    953a:	000d4783          	lbu	a5,0(s10)
    953e:	06700713          	li	a4,103
    9542:	001d0c93          	addi	s9,s10,1
    9546:	08f76663          	bltu	a4,a5,95d2 <__ssvfiscanf_r+0x1cc>
    954a:	06500713          	li	a4,101
    954e:	1ae7ff63          	bgeu	a5,a4,970c <__ssvfiscanf_r+0x306>
    9552:	04700713          	li	a4,71
    9556:	02f76a63          	bltu	a4,a5,958a <__ssvfiscanf_r+0x184>
    955a:	04500713          	li	a4,69
    955e:	1ae7f763          	bgeu	a5,a4,970c <__ssvfiscanf_r+0x306>
    9562:	12078b63          	beqz	a5,9698 <__ssvfiscanf_r+0x292>
    9566:	0f478d63          	beq	a5,s4,9660 <__ssvfiscanf_r+0x25a>
    956a:	478d                	li	a5,3
    956c:	12f12a23          	sw	a5,308(sp)
    9570:	13212023          	sw	s2,288(sp)
    9574:	a061                	j	95fc <__ssvfiscanf_r+0x1f6>
    9576:	12412783          	lw	a5,292(sp)
    957a:	02f907b3          	mul	a5,s2,a5
    957e:	fd078793          	addi	a5,a5,-48
    9582:	97ae                	add	a5,a5,a1
    9584:	12f12223          	sw	a5,292(sp)
    9588:	b749                	j	950a <__ssvfiscanf_r+0x104>
    958a:	05b00713          	li	a4,91
    958e:	12e78363          	beq	a5,a4,96b4 <__ssvfiscanf_r+0x2ae>
    9592:	02f76563          	bltu	a4,a5,95bc <__ssvfiscanf_r+0x1b6>
    9596:	05800713          	li	a4,88
    959a:	fce798e3          	bne	a5,a4,956a <__ssvfiscanf_r+0x164>
    959e:	11c12703          	lw	a4,284(sp)
    95a2:	20076713          	ori	a4,a4,512
    95a6:	10e12e23          	sw	a4,284(sp)
    95aa:	4741                	li	a4,16
    95ac:	12e12023          	sw	a4,288(sp)
    95b0:	06e00713          	li	a4,110
    95b4:	00f737b3          	sltu	a5,a4,a5
    95b8:	078d                	addi	a5,a5,3
    95ba:	a83d                	j	95f8 <__ssvfiscanf_r+0x1f2>
    95bc:	06300713          	li	a4,99
    95c0:	10e78663          	beq	a5,a4,96cc <__ssvfiscanf_r+0x2c6>
    95c4:	06400713          	li	a4,100
    95c8:	fae791e3          	bne	a5,a4,956a <__ssvfiscanf_r+0x164>
    95cc:	13212023          	sw	s2,288(sp)
    95d0:	b7c5                	j	95b0 <__ssvfiscanf_r+0x1aa>
    95d2:	07000713          	li	a4,112
    95d6:	0ce78363          	beq	a5,a4,969c <__ssvfiscanf_r+0x296>
    95da:	06f76563          	bltu	a4,a5,9644 <__ssvfiscanf_r+0x23e>
    95de:	06e00713          	li	a4,110
    95e2:	0ee78e63          	beq	a5,a4,96de <__ssvfiscanf_r+0x2d8>
    95e6:	0cf76263          	bltu	a4,a5,96aa <__ssvfiscanf_r+0x2a4>
    95ea:	06900713          	li	a4,105
    95ee:	f6e79ee3          	bne	a5,a4,956a <__ssvfiscanf_r+0x164>
    95f2:	12012023          	sw	zero,288(sp)
    95f6:	478d                	li	a5,3
    95f8:	12f12a23          	sw	a5,308(sp)
    95fc:	405c                	lw	a5,4(s0)
    95fe:	10f05963          	blez	a5,9710 <__ssvfiscanf_r+0x30a>
    9602:	11c12783          	lw	a5,284(sp)
    9606:	0407f793          	andi	a5,a5,64
    960a:	ef81                	bnez	a5,9622 <__ssvfiscanf_r+0x21c>
    960c:	facff0ef          	jal	ra,8db8 <__locale_ctype_ptr>
    9610:	401c                	lw	a5,0(s0)
    9612:	0007c703          	lbu	a4,0(a5)
    9616:	953a                	add	a0,a0,a4
    9618:	00154703          	lbu	a4,1(a0)
    961c:	8b21                	andi	a4,a4,8
    961e:	10071163          	bnez	a4,9720 <__ssvfiscanf_r+0x31a>
    9622:	13412783          	lw	a5,308(sp)
    9626:	4709                	li	a4,2
    9628:	12f74163          	blt	a4,a5,974a <__ssvfiscanf_r+0x344>
    962c:	0834                	addi	a3,sp,24
    962e:	8622                	mv	a2,s0
    9630:	0a6c                	addi	a1,sp,284
    9632:	8526                	mv	a0,s1
    9634:	2261                	jal	97bc <_scanf_chars>
    9636:	4785                	li	a5,1
    9638:	16f50f63          	beq	a0,a5,97b6 <__ssvfiscanf_r+0x3b0>
    963c:	4789                	li	a5,2
    963e:	e8f513e3          	bne	a0,a5,94c4 <__ssvfiscanf_r+0xbe>
    9642:	a881                	j	9692 <__ssvfiscanf_r+0x28c>
    9644:	07500713          	li	a4,117
    9648:	f8e782e3          	beq	a5,a4,95cc <__ssvfiscanf_r+0x1c6>
    964c:	07800713          	li	a4,120
    9650:	f4e787e3          	beq	a5,a4,959e <__ssvfiscanf_r+0x198>
    9654:	07300713          	li	a4,115
    9658:	f0e799e3          	bne	a5,a4,956a <__ssvfiscanf_r+0x164>
    965c:	4789                	li	a5,2
    965e:	bf69                	j	95f8 <__ssvfiscanf_r+0x1f2>
    9660:	405c                	lw	a5,4(s0)
    9662:	02f05263          	blez	a5,9686 <__ssvfiscanf_r+0x280>
    9666:	401c                	lw	a5,0(s0)
    9668:	0007c703          	lbu	a4,0(a5)
    966c:	15b71563          	bne	a4,s11,97b6 <__ssvfiscanf_r+0x3b0>
    9670:	0785                	addi	a5,a5,1
    9672:	4058                	lw	a4,4(s0)
    9674:	c01c                	sw	a5,0(s0)
    9676:	12c12783          	lw	a5,300(sp)
    967a:	177d                	addi	a4,a4,-1
    967c:	c058                	sw	a4,4(s0)
    967e:	0785                	addi	a5,a5,1
    9680:	12f12623          	sw	a5,300(sp)
    9684:	b581                	j	94c4 <__ssvfiscanf_r+0xbe>
    9686:	29c12783          	lw	a5,668(sp)
    968a:	85a2                	mv	a1,s0
    968c:	8526                	mv	a0,s1
    968e:	9782                	jalr	a5
    9690:	d979                	beqz	a0,9666 <__ssvfiscanf_r+0x260>
    9692:	12812503          	lw	a0,296(sp)
    9696:	ed71                	bnez	a0,9772 <__ssvfiscanf_r+0x36c>
    9698:	557d                	li	a0,-1
    969a:	a0cd                	j	977c <__ssvfiscanf_r+0x376>
    969c:	11c12703          	lw	a4,284(sp)
    96a0:	02076713          	ori	a4,a4,32
    96a4:	10e12e23          	sw	a4,284(sp)
    96a8:	bddd                	j	959e <__ssvfiscanf_r+0x198>
    96aa:	47a1                	li	a5,8
    96ac:	12f12023          	sw	a5,288(sp)
    96b0:	4791                	li	a5,4
    96b2:	b799                	j	95f8 <__ssvfiscanf_r+0x1f2>
    96b4:	85e6                	mv	a1,s9
    96b6:	854e                	mv	a0,s3
    96b8:	2331                	jal	9bc4 <__sccl>
    96ba:	11c12783          	lw	a5,284(sp)
    96be:	8caa                	mv	s9,a0
    96c0:	0407e793          	ori	a5,a5,64
    96c4:	10f12e23          	sw	a5,284(sp)
    96c8:	4785                	li	a5,1
    96ca:	b73d                	j	95f8 <__ssvfiscanf_r+0x1f2>
    96cc:	11c12783          	lw	a5,284(sp)
    96d0:	12012a23          	sw	zero,308(sp)
    96d4:	0407e793          	ori	a5,a5,64
    96d8:	10f12e23          	sw	a5,284(sp)
    96dc:	b705                	j	95fc <__ssvfiscanf_r+0x1f6>
    96de:	11c12783          	lw	a5,284(sp)
    96e2:	0107f713          	andi	a4,a5,16
    96e6:	dc071fe3          	bnez	a4,94c4 <__ssvfiscanf_r+0xbe>
    96ea:	4762                	lw	a4,24(sp)
    96ec:	0017f593          	andi	a1,a5,1
    96f0:	12c12683          	lw	a3,300(sp)
    96f4:	00470613          	addi	a2,a4,4
    96f8:	c591                	beqz	a1,9704 <__ssvfiscanf_r+0x2fe>
    96fa:	cc32                	sw	a2,24(sp)
    96fc:	431c                	lw	a5,0(a4)
    96fe:	00d79023          	sh	a3,0(a5)
    9702:	b3c9                	j	94c4 <__ssvfiscanf_r+0xbe>
    9704:	cc32                	sw	a2,24(sp)
    9706:	431c                	lw	a5,0(a4)
    9708:	c394                	sw	a3,0(a5)
    970a:	bb6d                	j	94c4 <__ssvfiscanf_r+0xbe>
    970c:	4795                	li	a5,5
    970e:	b5ed                	j	95f8 <__ssvfiscanf_r+0x1f2>
    9710:	29c12783          	lw	a5,668(sp)
    9714:	85a2                	mv	a1,s0
    9716:	8526                	mv	a0,s1
    9718:	9782                	jalr	a5
    971a:	ee0504e3          	beqz	a0,9602 <__ssvfiscanf_r+0x1fc>
    971e:	bf95                	j	9692 <__ssvfiscanf_r+0x28c>
    9720:	12c12703          	lw	a4,300(sp)
    9724:	0705                	addi	a4,a4,1
    9726:	12e12623          	sw	a4,300(sp)
    972a:	4058                	lw	a4,4(s0)
    972c:	177d                	addi	a4,a4,-1
    972e:	c058                	sw	a4,4(s0)
    9730:	00e05563          	blez	a4,973a <__ssvfiscanf_r+0x334>
    9734:	0785                	addi	a5,a5,1
    9736:	c01c                	sw	a5,0(s0)
    9738:	bdd1                	j	960c <__ssvfiscanf_r+0x206>
    973a:	29c12783          	lw	a5,668(sp)
    973e:	85a2                	mv	a1,s0
    9740:	8526                	mv	a0,s1
    9742:	9782                	jalr	a5
    9744:	ec0504e3          	beqz	a0,960c <__ssvfiscanf_r+0x206>
    9748:	b7a9                	j	9692 <__ssvfiscanf_r+0x28c>
    974a:	4711                	li	a4,4
    974c:	00f74863          	blt	a4,a5,975c <__ssvfiscanf_r+0x356>
    9750:	0834                	addi	a3,sp,24
    9752:	8622                	mv	a2,s0
    9754:	0a6c                	addi	a1,sp,284
    9756:	8526                	mv	a0,s1
    9758:	2a81                	jal	98a8 <_scanf_i>
    975a:	bdf1                	j	9636 <__ssvfiscanf_r+0x230>
    975c:	d60c04e3          	beqz	s8,94c4 <__ssvfiscanf_r+0xbe>
    9760:	0834                	addi	a3,sp,24
    9762:	8622                	mv	a2,s0
    9764:	0a6c                	addi	a1,sp,284
    9766:	8526                	mv	a0,s1
    9768:	00000097          	auipc	ra,0x0
    976c:	000000e7          	jalr	zero # 0 <_sinit>
    9770:	b5d9                	j	9636 <__ssvfiscanf_r+0x230>
    9772:	00c45783          	lhu	a5,12(s0)
    9776:	0407f793          	andi	a5,a5,64
    977a:	ff99                	bnez	a5,9698 <__ssvfiscanf_r+0x292>
    977c:	2dc12083          	lw	ra,732(sp)
    9780:	2d812403          	lw	s0,728(sp)
    9784:	2d412483          	lw	s1,724(sp)
    9788:	2d012903          	lw	s2,720(sp)
    978c:	2cc12983          	lw	s3,716(sp)
    9790:	2c812a03          	lw	s4,712(sp)
    9794:	2c412a83          	lw	s5,708(sp)
    9798:	2c012b03          	lw	s6,704(sp)
    979c:	2bc12b83          	lw	s7,700(sp)
    97a0:	2b812c03          	lw	s8,696(sp)
    97a4:	2b412c83          	lw	s9,692(sp)
    97a8:	2b012d03          	lw	s10,688(sp)
    97ac:	2ac12d83          	lw	s11,684(sp)
    97b0:	2e010113          	addi	sp,sp,736
    97b4:	8082                	ret
    97b6:	12812503          	lw	a0,296(sp)
    97ba:	b7c9                	j	977c <__ssvfiscanf_r+0x376>

000097bc <_scanf_chars>:
    97bc:	459c                	lw	a5,8(a1)
    97be:	1101                	addi	sp,sp,-32
    97c0:	cc22                	sw	s0,24(sp)
    97c2:	ca26                	sw	s1,20(sp)
    97c4:	c452                	sw	s4,8(sp)
    97c6:	ce06                	sw	ra,28(sp)
    97c8:	c84a                	sw	s2,16(sp)
    97ca:	c64e                	sw	s3,12(sp)
    97cc:	c256                	sw	s5,4(sp)
    97ce:	c05a                	sw	s6,0(sp)
    97d0:	8a2a                	mv	s4,a0
    97d2:	842e                	mv	s0,a1
    97d4:	84b2                	mv	s1,a2
    97d6:	e791                	bnez	a5,97e2 <_scanf_chars+0x26>
    97d8:	4d98                	lw	a4,24(a1)
    97da:	4785                	li	a5,1
    97dc:	c311                	beqz	a4,97e0 <_scanf_chars+0x24>
    97de:	57fd                	li	a5,-1
    97e0:	c41c                	sw	a5,8(s0)
    97e2:	401c                	lw	a5,0(s0)
    97e4:	8bc1                	andi	a5,a5,16
    97e6:	e799                	bnez	a5,97f4 <_scanf_chars+0x38>
    97e8:	429c                	lw	a5,0(a3)
    97ea:	00478713          	addi	a4,a5,4
    97ee:	c298                	sw	a4,0(a3)
    97f0:	0007a983          	lw	s3,0(a5)
    97f4:	4901                	li	s2,0
    97f6:	4a85                	li	s5,1
    97f8:	4b09                	li	s6,2
    97fa:	4c08                	lw	a0,24(s0)
    97fc:	c51d                	beqz	a0,982a <_scanf_chars+0x6e>
    97fe:	09551263          	bne	a0,s5,9882 <_scanf_chars+0xc6>
    9802:	409c                	lw	a5,0(s1)
    9804:	0007c703          	lbu	a4,0(a5)
    9808:	485c                	lw	a5,20(s0)
    980a:	97ba                	add	a5,a5,a4
    980c:	0007c783          	lbu	a5,0(a5)
    9810:	ef89                	bnez	a5,982a <_scanf_chars+0x6e>
    9812:	04091863          	bnez	s2,9862 <_scanf_chars+0xa6>
    9816:	40f2                	lw	ra,28(sp)
    9818:	4462                	lw	s0,24(sp)
    981a:	44d2                	lw	s1,20(sp)
    981c:	4942                	lw	s2,16(sp)
    981e:	49b2                	lw	s3,12(sp)
    9820:	4a22                	lw	s4,8(sp)
    9822:	4a92                	lw	s5,4(sp)
    9824:	4b02                	lw	s6,0(sp)
    9826:	6105                	addi	sp,sp,32
    9828:	8082                	ret
    982a:	401c                	lw	a5,0(s0)
    982c:	0905                	addi	s2,s2,1
    982e:	8bc1                	andi	a5,a5,16
    9830:	e799                	bnez	a5,983e <_scanf_chars+0x82>
    9832:	409c                	lw	a5,0(s1)
    9834:	0985                	addi	s3,s3,1
    9836:	0007c783          	lbu	a5,0(a5)
    983a:	fef98fa3          	sb	a5,-1(s3)
    983e:	4098                	lw	a4,0(s1)
    9840:	40dc                	lw	a5,4(s1)
    9842:	0705                	addi	a4,a4,1
    9844:	c098                	sw	a4,0(s1)
    9846:	4418                	lw	a4,8(s0)
    9848:	17fd                	addi	a5,a5,-1
    984a:	c0dc                	sw	a5,4(s1)
    984c:	177d                	addi	a4,a4,-1
    984e:	c418                	sw	a4,8(s0)
    9850:	cb09                	beqz	a4,9862 <_scanf_chars+0xa6>
    9852:	faf044e3          	bgtz	a5,97fa <_scanf_chars+0x3e>
    9856:	18042783          	lw	a5,384(s0)
    985a:	85a6                	mv	a1,s1
    985c:	8552                	mv	a0,s4
    985e:	9782                	jalr	a5
    9860:	dd49                	beqz	a0,97fa <_scanf_chars+0x3e>
    9862:	401c                	lw	a5,0(s0)
    9864:	8bc1                	andi	a5,a5,16
    9866:	eb81                	bnez	a5,9876 <_scanf_chars+0xba>
    9868:	445c                	lw	a5,12(s0)
    986a:	0785                	addi	a5,a5,1
    986c:	c45c                	sw	a5,12(s0)
    986e:	4c1c                	lw	a5,24(s0)
    9870:	c399                	beqz	a5,9876 <_scanf_chars+0xba>
    9872:	00098023          	sb	zero,0(s3)
    9876:	481c                	lw	a5,16(s0)
    9878:	4501                	li	a0,0
    987a:	993e                	add	s2,s2,a5
    987c:	01242823          	sw	s2,16(s0)
    9880:	bf59                	j	9816 <_scanf_chars+0x5a>
    9882:	01651c63          	bne	a0,s6,989a <_scanf_chars+0xde>
    9886:	d32ff0ef          	jal	ra,8db8 <__locale_ctype_ptr>
    988a:	409c                	lw	a5,0(s1)
    988c:	0007c783          	lbu	a5,0(a5)
    9890:	953e                	add	a0,a0,a5
    9892:	00154783          	lbu	a5,1(a0)
    9896:	8ba1                	andi	a5,a5,8
    9898:	dbc9                	beqz	a5,982a <_scanf_chars+0x6e>
    989a:	fc0914e3          	bnez	s2,9862 <_scanf_chars+0xa6>
    989e:	4c08                	lw	a0,24(s0)
    98a0:	4785                	li	a5,1
    98a2:	fcf510e3          	bne	a0,a5,9862 <_scanf_chars+0xa6>
    98a6:	bf85                	j	9816 <_scanf_chars+0x5a>

000098a8 <_scanf_i>:
    98a8:	715d                	addi	sp,sp,-80
    98aa:	00004797          	auipc	a5,0x4
    98ae:	40e78793          	addi	a5,a5,1038 # dcb8 <__sf_fake_stdout+0x80>
    98b2:	c0ca                	sw	s2,64(sp)
    98b4:	c23e                	sw	a5,4(sp)
    98b6:	8936                	mv	s2,a3
    98b8:	00004797          	auipc	a5,0x4
    98bc:	40478793          	addi	a5,a5,1028 # dcbc <__sf_fake_stdout+0x84>
    98c0:	4d94                	lw	a3,24(a1)
    98c2:	c43e                	sw	a5,8(sp)
    98c4:	00004797          	auipc	a5,0x4
    98c8:	3fc78793          	addi	a5,a5,1020 # dcc0 <__sf_fake_stdout+0x88>
    98cc:	c4a2                	sw	s0,72(sp)
    98ce:	de4e                	sw	s3,60(sp)
    98d0:	d85a                	sw	s6,48(sp)
    98d2:	ce6e                	sw	s11,28(sp)
    98d4:	c63e                	sw	a5,12(sp)
    98d6:	c686                	sw	ra,76(sp)
    98d8:	c2a6                	sw	s1,68(sp)
    98da:	dc52                	sw	s4,56(sp)
    98dc:	da56                	sw	s5,52(sp)
    98de:	d65e                	sw	s7,44(sp)
    98e0:	d462                	sw	s8,40(sp)
    98e2:	d266                	sw	s9,36(sp)
    98e4:	d06a                	sw	s10,32(sp)
    98e6:	478d                	li	a5,3
    98e8:	89aa                	mv	s3,a0
    98ea:	842e                	mv	s0,a1
    98ec:	8db2                	mv	s11,a2
    98ee:	fffffb17          	auipc	s6,0xfffff
    98f2:	200b0b13          	addi	s6,s6,512 # 8aee <_strtoul_r>
    98f6:	00f69663          	bne	a3,a5,9902 <_scanf_i+0x5a>
    98fa:	fffffb17          	auipc	s6,0xfffff
    98fe:	0a6b0b13          	addi	s6,s6,166 # 89a0 <_strtol_r>
    9902:	441c                	lw	a5,8(s0)
    9904:	15c00693          	li	a3,348
    9908:	4a01                	li	s4,0
    990a:	fff78613          	addi	a2,a5,-1
    990e:	00c6f763          	bgeu	a3,a2,991c <_scanf_i+0x74>
    9912:	ea378a13          	addi	s4,a5,-349
    9916:	15d00793          	li	a5,349
    991a:	c41c                	sw	a5,8(s0)
    991c:	401c                	lw	a5,0(s0)
    991e:	6685                	lui	a3,0x1
    9920:	d0068693          	addi	a3,a3,-768 # d00 <tos_at_init>
    9924:	01c40493          	addi	s1,s0,28
    9928:	8fd5                	or	a5,a5,a3
    992a:	c01c                	sw	a5,0(s0)
    992c:	00410c13          	addi	s8,sp,4
    9930:	8aa6                	mv	s5,s1
    9932:	4b81                	li	s7,0
    9934:	20000c93          	li	s9,512
    9938:	000da783          	lw	a5,0(s11)
    993c:	000c2503          	lw	a0,0(s8)
    9940:	4609                	li	a2,2
    9942:	0007c583          	lbu	a1,0(a5)
    9946:	df6ff0ef          	jal	ra,8f3c <memchr>
    994a:	c125                	beqz	a0,99aa <_scanf_i+0x102>
    994c:	4785                	li	a5,1
    994e:	0efb9063          	bne	s7,a5,9a2e <_scanf_i+0x186>
    9952:	405c                	lw	a5,4(s0)
    9954:	e799                	bnez	a5,9962 <_scanf_i+0xba>
    9956:	401c                	lw	a5,0(s0)
    9958:	4721                	li	a4,8
    995a:	c058                	sw	a4,4(s0)
    995c:	2007e793          	ori	a5,a5,512
    9960:	c01c                	sw	a5,0(s0)
    9962:	401c                	lw	a5,0(s0)
    9964:	aff7f793          	andi	a5,a5,-1281
    9968:	c01c                	sw	a5,0(s0)
    996a:	441c                	lw	a5,8(s0)
    996c:	fff78613          	addi	a2,a5,-1
    9970:	c410                	sw	a2,8(s0)
    9972:	cf85                	beqz	a5,99aa <_scanf_i+0x102>
    9974:	000da603          	lw	a2,0(s11)
    9978:	001a8d13          	addi	s10,s5,1
    997c:	00160793          	addi	a5,a2,1
    9980:	00fda023          	sw	a5,0(s11)
    9984:	00064603          	lbu	a2,0(a2)
    9988:	00ca8023          	sb	a2,0(s5)
    998c:	004da603          	lw	a2,4(s11)
    9990:	8aea                	mv	s5,s10
    9992:	167d                	addi	a2,a2,-1
    9994:	00cda223          	sw	a2,4(s11)
    9998:	00c04963          	bgtz	a2,99aa <_scanf_i+0x102>
    999c:	18042603          	lw	a2,384(s0)
    99a0:	85ee                	mv	a1,s11
    99a2:	854e                	mv	a0,s3
    99a4:	9602                	jalr	a2
    99a6:	10051a63          	bnez	a0,9aba <_scanf_i+0x212>
    99aa:	0b85                	addi	s7,s7,1
    99ac:	478d                	li	a5,3
    99ae:	0c11                	addi	s8,s8,4
    99b0:	f8fb94e3          	bne	s7,a5,9938 <_scanf_i+0x90>
    99b4:	405c                	lw	a5,4(s0)
    99b6:	e399                	bnez	a5,99bc <_scanf_i+0x114>
    99b8:	47a9                	li	a5,10
    99ba:	c05c                	sw	a5,4(s0)
    99bc:	405c                	lw	a5,4(s0)
    99be:	4848                	lw	a0,20(s0)
    99c0:	00004597          	auipc	a1,0x4
    99c4:	2f458593          	addi	a1,a1,756 # dcb4 <__sf_fake_stdout+0x7c>
    99c8:	8d9d                	sub	a1,a1,a5
    99ca:	7bfd                	lui	s7,0xfffff
    99cc:	6c05                	lui	s8,0x1
    99ce:	8d56                	mv	s10,s5
    99d0:	2ad5                	jal	9bc4 <__sccl>
    99d2:	4a81                	li	s5,0
    99d4:	03000c93          	li	s9,48
    99d8:	6ffb8b93          	addi	s7,s7,1791 # fffff6ff <_eusrstack+0xdffef6ff>
    99dc:	800c0c13          	addi	s8,s8,-2048 # 800 <__stack_size>
    99e0:	4414                	lw	a3,8(s0)
    99e2:	4010                	lw	a2,0(s0)
    99e4:	c2c9                	beqz	a3,9a66 <_scanf_i+0x1be>
    99e6:	000da503          	lw	a0,0(s11)
    99ea:	484c                	lw	a1,20(s0)
    99ec:	00054803          	lbu	a6,0(a0)
    99f0:	95c2                	add	a1,a1,a6
    99f2:	0005c583          	lbu	a1,0(a1)
    99f6:	c9a5                	beqz	a1,9a66 <_scanf_i+0x1be>
    99f8:	05981863          	bne	a6,s9,9a48 <_scanf_i+0x1a0>
    99fc:	018675b3          	and	a1,a2,s8
    9a00:	c5a1                	beqz	a1,9a48 <_scanf_i+0x1a0>
    9a02:	0a85                	addi	s5,s5,1
    9a04:	000a0563          	beqz	s4,9a0e <_scanf_i+0x166>
    9a08:	0685                	addi	a3,a3,1
    9a0a:	1a7d                	addi	s4,s4,-1
    9a0c:	c414                	sw	a3,8(s0)
    9a0e:	004da683          	lw	a3,4(s11)
    9a12:	16fd                	addi	a3,a3,-1
    9a14:	00dda223          	sw	a3,4(s11)
    9a18:	04d05163          	blez	a3,9a5a <_scanf_i+0x1b2>
    9a1c:	000da683          	lw	a3,0(s11)
    9a20:	0685                	addi	a3,a3,1
    9a22:	00dda023          	sw	a3,0(s11)
    9a26:	4414                	lw	a3,8(s0)
    9a28:	16fd                	addi	a3,a3,-1
    9a2a:	c414                	sw	a3,8(s0)
    9a2c:	bf55                	j	99e0 <_scanf_i+0x138>
    9a2e:	4789                	li	a5,2
    9a30:	f2fb9de3          	bne	s7,a5,996a <_scanf_i+0xc2>
    9a34:	401c                	lw	a5,0(s0)
    9a36:	6007f613          	andi	a2,a5,1536
    9a3a:	f79618e3          	bne	a2,s9,99aa <_scanf_i+0x102>
    9a3e:	4741                	li	a4,16
    9a40:	c058                	sw	a4,4(s0)
    9a42:	1007e793          	ori	a5,a5,256
    9a46:	b70d                	j	9968 <_scanf_i+0xc0>
    9a48:	01767633          	and	a2,a2,s7
    9a4c:	c010                	sw	a2,0(s0)
    9a4e:	00054683          	lbu	a3,0(a0)
    9a52:	0d05                	addi	s10,s10,1
    9a54:	fedd0fa3          	sb	a3,-1(s10)
    9a58:	bf5d                	j	9a0e <_scanf_i+0x166>
    9a5a:	18042683          	lw	a3,384(s0)
    9a5e:	85ee                	mv	a1,s11
    9a60:	854e                	mv	a0,s3
    9a62:	9682                	jalr	a3
    9a64:	d169                	beqz	a0,9a26 <_scanf_i+0x17e>
    9a66:	4014                	lw	a3,0(s0)
    9a68:	1006f693          	andi	a3,a3,256
    9a6c:	c285                	beqz	a3,9a8c <_scanf_i+0x1e4>
    9a6e:	01a4fc63          	bgeu	s1,s10,9a86 <_scanf_i+0x1de>
    9a72:	fffd4583          	lbu	a1,-1(s10)
    9a76:	17c42683          	lw	a3,380(s0)
    9a7a:	fffd0a13          	addi	s4,s10,-1
    9a7e:	866e                	mv	a2,s11
    9a80:	854e                	mv	a0,s3
    9a82:	9682                	jalr	a3
    9a84:	8d52                	mv	s10,s4
    9a86:	4505                	li	a0,1
    9a88:	049d0f63          	beq	s10,s1,9ae6 <_scanf_i+0x23e>
    9a8c:	4018                	lw	a4,0(s0)
    9a8e:	8b41                	andi	a4,a4,16
    9a90:	e721                	bnez	a4,9ad8 <_scanf_i+0x230>
    9a92:	000d0023          	sb	zero,0(s10)
    9a96:	4054                	lw	a3,4(s0)
    9a98:	4601                	li	a2,0
    9a9a:	85a6                	mv	a1,s1
    9a9c:	854e                	mv	a0,s3
    9a9e:	9b02                	jalr	s6
    9aa0:	4014                	lw	a3,0(s0)
    9aa2:	00092703          	lw	a4,0(s2)
    9aa6:	0206f613          	andi	a2,a3,32
    9aaa:	ca11                	beqz	a2,9abe <_scanf_i+0x216>
    9aac:	00470693          	addi	a3,a4,4
    9ab0:	00d92023          	sw	a3,0(s2)
    9ab4:	4318                	lw	a4,0(a4)
    9ab6:	c308                	sw	a0,0(a4)
    9ab8:	a829                	j	9ad2 <_scanf_i+0x22a>
    9aba:	4a81                	li	s5,0
    9abc:	b76d                	j	9a66 <_scanf_i+0x1be>
    9abe:	0016f593          	andi	a1,a3,1
    9ac2:	00470613          	addi	a2,a4,4
    9ac6:	cd9d                	beqz	a1,9b04 <_scanf_i+0x25c>
    9ac8:	00c92023          	sw	a2,0(s2)
    9acc:	4318                	lw	a4,0(a4)
    9ace:	00a71023          	sh	a0,0(a4)
    9ad2:	4458                	lw	a4,12(s0)
    9ad4:	0705                	addi	a4,a4,1
    9ad6:	c458                	sw	a4,12(s0)
    9ad8:	481c                	lw	a5,16(s0)
    9ada:	409d04b3          	sub	s1,s10,s1
    9ade:	94d6                	add	s1,s1,s5
    9ae0:	94be                	add	s1,s1,a5
    9ae2:	c804                	sw	s1,16(s0)
    9ae4:	4501                	li	a0,0
    9ae6:	40b6                	lw	ra,76(sp)
    9ae8:	4426                	lw	s0,72(sp)
    9aea:	4496                	lw	s1,68(sp)
    9aec:	4906                	lw	s2,64(sp)
    9aee:	59f2                	lw	s3,60(sp)
    9af0:	5a62                	lw	s4,56(sp)
    9af2:	5ad2                	lw	s5,52(sp)
    9af4:	5b42                	lw	s6,48(sp)
    9af6:	5bb2                	lw	s7,44(sp)
    9af8:	5c22                	lw	s8,40(sp)
    9afa:	5c92                	lw	s9,36(sp)
    9afc:	5d02                	lw	s10,32(sp)
    9afe:	4df2                	lw	s11,28(sp)
    9b00:	6161                	addi	sp,sp,80
    9b02:	8082                	ret
    9b04:	00c92023          	sw	a2,0(s2)
    9b08:	b775                	j	9ab4 <_scanf_i+0x20c>

00009b0a <_putc_r>:
    9b0a:	1101                	addi	sp,sp,-32
    9b0c:	cc22                	sw	s0,24(sp)
    9b0e:	ce06                	sw	ra,28(sp)
    9b10:	842a                	mv	s0,a0
    9b12:	c909                	beqz	a0,9b24 <_putc_r+0x1a>
    9b14:	4d1c                	lw	a5,24(a0)
    9b16:	e799                	bnez	a5,9b24 <_putc_r+0x1a>
    9b18:	c632                	sw	a2,12(sp)
    9b1a:	c42e                	sw	a1,8(sp)
    9b1c:	eb5fd0ef          	jal	ra,79d0 <__sinit>
    9b20:	4632                	lw	a2,12(sp)
    9b22:	45a2                	lw	a1,8(sp)
    9b24:	00004797          	auipc	a5,0x4
    9b28:	0f478793          	addi	a5,a5,244 # dc18 <__sf_fake_stdin>
    9b2c:	02f61663          	bne	a2,a5,9b58 <_putc_r+0x4e>
    9b30:	4050                	lw	a2,4(s0)
    9b32:	461c                	lw	a5,8(a2)
    9b34:	17fd                	addi	a5,a5,-1
    9b36:	c61c                	sw	a5,8(a2)
    9b38:	0407d063          	bgez	a5,9b78 <_putc_r+0x6e>
    9b3c:	4e18                	lw	a4,24(a2)
    9b3e:	00e7c763          	blt	a5,a4,9b4c <_putc_r+0x42>
    9b42:	0ff5f793          	andi	a5,a1,255
    9b46:	4729                	li	a4,10
    9b48:	02e79863          	bne	a5,a4,9b78 <_putc_r+0x6e>
    9b4c:	8522                	mv	a0,s0
    9b4e:	4462                	lw	s0,24(sp)
    9b50:	40f2                	lw	ra,28(sp)
    9b52:	6105                	addi	sp,sp,32
    9b54:	820ff06f          	j	8b74 <__swbuf_r>
    9b58:	00004797          	auipc	a5,0x4
    9b5c:	0e078793          	addi	a5,a5,224 # dc38 <__sf_fake_stdout>
    9b60:	00f61463          	bne	a2,a5,9b68 <_putc_r+0x5e>
    9b64:	4410                	lw	a2,8(s0)
    9b66:	b7f1                	j	9b32 <_putc_r+0x28>
    9b68:	00004797          	auipc	a5,0x4
    9b6c:	09078793          	addi	a5,a5,144 # dbf8 <__sf_fake_stderr>
    9b70:	fcf611e3          	bne	a2,a5,9b32 <_putc_r+0x28>
    9b74:	4450                	lw	a2,12(s0)
    9b76:	bf75                	j	9b32 <_putc_r+0x28>
    9b78:	421c                	lw	a5,0(a2)
    9b7a:	0ff5f513          	andi	a0,a1,255
    9b7e:	00178713          	addi	a4,a5,1
    9b82:	c218                	sw	a4,0(a2)
    9b84:	00b78023          	sb	a1,0(a5)
    9b88:	40f2                	lw	ra,28(sp)
    9b8a:	4462                	lw	s0,24(sp)
    9b8c:	6105                	addi	sp,sp,32
    9b8e:	8082                	ret

00009b90 <_read_r>:
    9b90:	1141                	addi	sp,sp,-16
    9b92:	c422                	sw	s0,8(sp)
    9b94:	842a                	mv	s0,a0
    9b96:	852e                	mv	a0,a1
    9b98:	85b2                	mv	a1,a2
    9b9a:	8636                	mv	a2,a3
    9b9c:	20005797          	auipc	a5,0x20005
    9ba0:	3a07a623          	sw	zero,940(a5) # 2000ef48 <errno>
    9ba4:	c606                	sw	ra,12(sp)
    9ba6:	2439                	jal	9db4 <_read>
    9ba8:	57fd                	li	a5,-1
    9baa:	00f51963          	bne	a0,a5,9bbc <_read_r+0x2c>
    9bae:	20005797          	auipc	a5,0x20005
    9bb2:	39a78793          	addi	a5,a5,922 # 2000ef48 <errno>
    9bb6:	439c                	lw	a5,0(a5)
    9bb8:	c391                	beqz	a5,9bbc <_read_r+0x2c>
    9bba:	c01c                	sw	a5,0(s0)
    9bbc:	40b2                	lw	ra,12(sp)
    9bbe:	4422                	lw	s0,8(sp)
    9bc0:	0141                	addi	sp,sp,16
    9bc2:	8082                	ret

00009bc4 <__sccl>:
    9bc4:	0005c783          	lbu	a5,0(a1)
    9bc8:	05e00713          	li	a4,94
    9bcc:	04e78863          	beq	a5,a4,9c1c <__sccl+0x58>
    9bd0:	00158713          	addi	a4,a1,1
    9bd4:	4681                	li	a3,0
    9bd6:	4601                	li	a2,0
    9bd8:	10000593          	li	a1,256
    9bdc:	00c50833          	add	a6,a0,a2
    9be0:	00d80023          	sb	a3,0(a6) # 1000 <event_do_post+0x28>
    9be4:	0605                	addi	a2,a2,1
    9be6:	feb61be3          	bne	a2,a1,9bdc <__sccl+0x18>
    9bea:	fff70613          	addi	a2,a4,-1
    9bee:	c78d                	beqz	a5,9c18 <__sccl+0x54>
    9bf0:	0016c693          	xori	a3,a3,1
    9bf4:	02d00893          	li	a7,45
    9bf8:	05d00813          	li	a6,93
    9bfc:	00f50633          	add	a2,a0,a5
    9c00:	00d60023          	sb	a3,0(a2)
    9c04:	00074583          	lbu	a1,0(a4)
    9c08:	00170613          	addi	a2,a4,1
    9c0c:	03158463          	beq	a1,a7,9c34 <__sccl+0x70>
    9c10:	01058463          	beq	a1,a6,9c18 <__sccl+0x54>
    9c14:	e991                	bnez	a1,9c28 <__sccl+0x64>
    9c16:	863a                	mv	a2,a4
    9c18:	8532                	mv	a0,a2
    9c1a:	8082                	ret
    9c1c:	00258713          	addi	a4,a1,2
    9c20:	0015c783          	lbu	a5,1(a1)
    9c24:	4685                	li	a3,1
    9c26:	bf45                	j	9bd6 <__sccl+0x12>
    9c28:	87ae                	mv	a5,a1
    9c2a:	8732                	mv	a4,a2
    9c2c:	bfc1                	j	9bfc <__sccl+0x38>
    9c2e:	02d00793          	li	a5,45
    9c32:	bfe5                	j	9c2a <__sccl+0x66>
    9c34:	00174583          	lbu	a1,1(a4)
    9c38:	ff058be3          	beq	a1,a6,9c2e <__sccl+0x6a>
    9c3c:	fef5c9e3          	blt	a1,a5,9c2e <__sccl+0x6a>
    9c40:	0709                	addi	a4,a4,2
    9c42:	0785                	addi	a5,a5,1
    9c44:	00f50633          	add	a2,a0,a5
    9c48:	00d60023          	sb	a3,0(a2)
    9c4c:	feb7cbe3          	blt	a5,a1,9c42 <__sccl+0x7e>
    9c50:	bf55                	j	9c04 <__sccl+0x40>

00009c52 <__submore>:
    9c52:	1101                	addi	sp,sp,-32
    9c54:	cc22                	sw	s0,24(sp)
    9c56:	842e                	mv	s0,a1
    9c58:	59cc                	lw	a1,52(a1)
    9c5a:	ce06                	sw	ra,28(sp)
    9c5c:	ca26                	sw	s1,20(sp)
    9c5e:	c84a                	sw	s2,16(sp)
    9c60:	c64e                	sw	s3,12(sp)
    9c62:	c452                	sw	s4,8(sp)
    9c64:	04440793          	addi	a5,s0,68
    9c68:	04f59563          	bne	a1,a5,9cb2 <__submore+0x60>
    9c6c:	40000593          	li	a1,1024
    9c70:	880fe0ef          	jal	ra,7cf0 <_malloc_r>
    9c74:	e911                	bnez	a0,9c88 <__submore+0x36>
    9c76:	557d                	li	a0,-1
    9c78:	40f2                	lw	ra,28(sp)
    9c7a:	4462                	lw	s0,24(sp)
    9c7c:	44d2                	lw	s1,20(sp)
    9c7e:	4942                	lw	s2,16(sp)
    9c80:	49b2                	lw	s3,12(sp)
    9c82:	4a22                	lw	s4,8(sp)
    9c84:	6105                	addi	sp,sp,32
    9c86:	8082                	ret
    9c88:	40000793          	li	a5,1024
    9c8c:	dc1c                	sw	a5,56(s0)
    9c8e:	04644783          	lbu	a5,70(s0)
    9c92:	d848                	sw	a0,52(s0)
    9c94:	3fd50513          	addi	a0,a0,1021
    9c98:	00f50123          	sb	a5,2(a0)
    9c9c:	04544783          	lbu	a5,69(s0)
    9ca0:	00f500a3          	sb	a5,1(a0)
    9ca4:	04444783          	lbu	a5,68(s0)
    9ca8:	00f50023          	sb	a5,0(a0)
    9cac:	c008                	sw	a0,0(s0)
    9cae:	4501                	li	a0,0
    9cb0:	b7e1                	j	9c78 <__submore+0x26>
    9cb2:	03842903          	lw	s2,56(s0)
    9cb6:	00191993          	slli	s3,s2,0x1
    9cba:	864e                	mv	a2,s3
    9cbc:	a9eff0ef          	jal	ra,8f5a <_realloc_r>
    9cc0:	84aa                	mv	s1,a0
    9cc2:	d955                	beqz	a0,9c76 <__submore+0x24>
    9cc4:	01250a33          	add	s4,a0,s2
    9cc8:	85aa                	mv	a1,a0
    9cca:	864a                	mv	a2,s2
    9ccc:	8552                	mv	a0,s4
    9cce:	e7bfd0ef          	jal	ra,7b48 <memcpy>
    9cd2:	01442023          	sw	s4,0(s0)
    9cd6:	d844                	sw	s1,52(s0)
    9cd8:	03342c23          	sw	s3,56(s0)
    9cdc:	bfc9                	j	9cae <__submore+0x5c>

00009cde <__ascii_wctomb>:
    9cde:	cd91                	beqz	a1,9cfa <__ascii_wctomb+0x1c>
    9ce0:	0ff00793          	li	a5,255
    9ce4:	00c7f763          	bgeu	a5,a2,9cf2 <__ascii_wctomb+0x14>
    9ce8:	08a00793          	li	a5,138
    9cec:	c11c                	sw	a5,0(a0)
    9cee:	557d                	li	a0,-1
    9cf0:	8082                	ret
    9cf2:	00c58023          	sb	a2,0(a1)
    9cf6:	4505                	li	a0,1
    9cf8:	8082                	ret
    9cfa:	4501                	li	a0,0
    9cfc:	8082                	ret

00009cfe <_fstat_r>:
    9cfe:	1141                	addi	sp,sp,-16
    9d00:	c422                	sw	s0,8(sp)
    9d02:	842a                	mv	s0,a0
    9d04:	852e                	mv	a0,a1
    9d06:	85b2                	mv	a1,a2
    9d08:	20005797          	auipc	a5,0x20005
    9d0c:	2407a023          	sw	zero,576(a5) # 2000ef48 <errno>
    9d10:	c606                	sw	ra,12(sp)
    9d12:	288d                	jal	9d84 <_fstat>
    9d14:	57fd                	li	a5,-1
    9d16:	00f51963          	bne	a0,a5,9d28 <_fstat_r+0x2a>
    9d1a:	20005797          	auipc	a5,0x20005
    9d1e:	22e78793          	addi	a5,a5,558 # 2000ef48 <errno>
    9d22:	439c                	lw	a5,0(a5)
    9d24:	c391                	beqz	a5,9d28 <_fstat_r+0x2a>
    9d26:	c01c                	sw	a5,0(s0)
    9d28:	40b2                	lw	ra,12(sp)
    9d2a:	4422                	lw	s0,8(sp)
    9d2c:	0141                	addi	sp,sp,16
    9d2e:	8082                	ret

00009d30 <_isatty_r>:
    9d30:	1141                	addi	sp,sp,-16
    9d32:	c422                	sw	s0,8(sp)
    9d34:	842a                	mv	s0,a0
    9d36:	852e                	mv	a0,a1
    9d38:	20005797          	auipc	a5,0x20005
    9d3c:	2007a823          	sw	zero,528(a5) # 2000ef48 <errno>
    9d40:	c606                	sw	ra,12(sp)
    9d42:	2889                	jal	9d94 <_isatty>
    9d44:	57fd                	li	a5,-1
    9d46:	00f51963          	bne	a0,a5,9d58 <_isatty_r+0x28>
    9d4a:	20005797          	auipc	a5,0x20005
    9d4e:	1fe78793          	addi	a5,a5,510 # 2000ef48 <errno>
    9d52:	439c                	lw	a5,0(a5)
    9d54:	c391                	beqz	a5,9d58 <_isatty_r+0x28>
    9d56:	c01c                	sw	a5,0(s0)
    9d58:	40b2                	lw	ra,12(sp)
    9d5a:	4422                	lw	s0,8(sp)
    9d5c:	0141                	addi	sp,sp,16
    9d5e:	8082                	ret

00009d60 <_malloc_usable_size_r>:
    9d60:	ffc5a783          	lw	a5,-4(a1)
    9d64:	ffc78513          	addi	a0,a5,-4
    9d68:	0007d563          	bgez	a5,9d72 <_malloc_usable_size_r+0x12>
    9d6c:	95aa                	add	a1,a1,a0
    9d6e:	419c                	lw	a5,0(a1)
    9d70:	953e                	add	a0,a0,a5
    9d72:	8082                	ret

00009d74 <_close>:
    9d74:	05800793          	li	a5,88
    9d78:	20005717          	auipc	a4,0x20005
    9d7c:	1cf72823          	sw	a5,464(a4) # 2000ef48 <errno>
    9d80:	557d                	li	a0,-1
    9d82:	8082                	ret

00009d84 <_fstat>:
    9d84:	05800793          	li	a5,88
    9d88:	20005717          	auipc	a4,0x20005
    9d8c:	1cf72023          	sw	a5,448(a4) # 2000ef48 <errno>
    9d90:	557d                	li	a0,-1
    9d92:	8082                	ret

00009d94 <_isatty>:
    9d94:	05800793          	li	a5,88
    9d98:	20005717          	auipc	a4,0x20005
    9d9c:	1af72823          	sw	a5,432(a4) # 2000ef48 <errno>
    9da0:	4501                	li	a0,0
    9da2:	8082                	ret

00009da4 <_lseek>:
    9da4:	05800793          	li	a5,88
    9da8:	20005717          	auipc	a4,0x20005
    9dac:	1af72023          	sw	a5,416(a4) # 2000ef48 <errno>
    9db0:	557d                	li	a0,-1
    9db2:	8082                	ret

00009db4 <_read>:
    9db4:	05800793          	li	a5,88
    9db8:	20005717          	auipc	a4,0x20005
    9dbc:	18f72823          	sw	a5,400(a4) # 2000ef48 <errno>
    9dc0:	557d                	li	a0,-1
    9dc2:	8082                	ret

00009dc4 <_sbrk>:
    9dc4:	87c18793          	addi	a5,gp,-1924 # 200002cc <heap_end.1520>
    9dc8:	439c                	lw	a5,0(a5)
    9dca:	c791                	beqz	a5,9dd6 <_sbrk+0x12>
    9dcc:	953e                	add	a0,a0,a5
    9dce:	86a1ae23          	sw	a0,-1924(gp) # 200002cc <heap_end.1520>
    9dd2:	853e                	mv	a0,a5
    9dd4:	8082                	ret
    9dd6:	20005797          	auipc	a5,0x20005
    9dda:	17678793          	addi	a5,a5,374 # 2000ef4c <_ebss>
    9dde:	953e                	add	a0,a0,a5
    9de0:	86a1ae23          	sw	a0,-1924(gp) # 200002cc <heap_end.1520>
    9de4:	853e                	mv	a0,a5
    9de6:	8082                	ret
    9de8:	0001                	nop
    9dea:	0000                	unimp
    9dec:	1388                	addi	a0,sp,480
    9dee:	0000                	unimp
    9df0:	00f0                	addi	a2,sp,76
    9df2:	0000                	unimp
    9df4:	0001                	nop
    9df6:	0000                	unimp
    9df8:	716d                	addi	sp,sp,-272
    9dfa:	7474                	flw	fa3,108(s0)
    9dfc:	6d5f 7365 6173      	0x617373656d5f
    9e02:	685f6567          	0x685f6567
    9e06:	6e61                	lui	t3,0x18
    9e08:	6c64                	flw	fs1,92(s0)
    9e0a:	0065                	c.nop	25
    9e0c:	5441                	li	s0,-16
    9e0e:	4320                	lw	s0,64(a4)
    9e10:	444d                	li	s0,19
    9e12:	0a3a                	slli	s4,s4,0xe
    9e14:	7325                	lui	t1,0xfffe9
    9e16:	000a                	c.slli	zero,0x2
    9e18:	4146                	lw	sp,80(sp)
    9e1a:	4c49                	li	s8,18
    9e1c:	0000                	unimp
    9e1e:	0000                	unimp
    9e20:	5245                	li	tp,-15
    9e22:	4f52                	lw	t5,20(sp)
    9e24:	0052                	c.slli	zero,0x14
    9e26:	0000                	unimp
    9e28:	2d2d                	jal	a462 <_sbrk+0x69e>
    9e2a:	3e2d                	jal	9964 <_scanf_i+0xbc>
    9e2c:	7325                	lui	t1,0xfffe9
    9e2e:	0000                	unimp
    9e30:	5441                	li	s0,-16
    9e32:	7020                	flw	fs0,96(s0)
    9e34:	7261                	lui	tp,0xffff8
    9e36:	6f206573          	csrrsi	a0,0x6f2,0
    9e3a:	6576                	flw	fa0,92(sp)
    9e3c:	6672                	flw	fa2,28(sp)
    9e3e:	6f6c                	flw	fa1,92(a4)
    9e40:	00002177          	0x2177
    9e44:	6469                	lui	s0,0x1a
    9e46:	656c                	flw	fa1,76(a0)
    9e48:	0000                	unimp
    9e4a:	0000                	unimp
    9e4c:	6c6c6163          	bltu	s8,t1,a50e <ascii_1206+0x36>
    9e50:	6162                	flw	ft2,24(sp)
    9e52:	0d3a6b63          	bltu	s4,s3,9f28 <_sbrk+0x164>
    9e56:	0000                	unimp
    9e58:	2d2d                	jal	a492 <_sbrk+0x6ce>
    9e5a:	2d2d                	jal	a494 <_sbrk+0x6d0>
    9e5c:	2d2d                	jal	a496 <_sbrk+0x6d2>
    9e5e:	2d2d                	jal	a498 <_sbrk+0x6d4>
    9e60:	2d2d                	jal	a49a <_sbrk+0x6d6>
    9e62:	2d2d                	jal	a49c <_sbrk+0x6d8>
    9e64:	2d2d                	jal	a49e <_sbrk+0x6da>
    9e66:	2d2d                	jal	a4a0 <_sbrk+0x6dc>
    9e68:	2d2d                	jal	a4a2 <_sbrk+0x6de>
    9e6a:	2d2d                	jal	a4a4 <_sbrk+0x6e0>
    9e6c:	2d2d                	jal	a4a6 <_sbrk+0x6e2>
    9e6e:	2d2d                	jal	a4a8 <_sbrk+0x6e4>
    9e70:	2d2d                	jal	a4aa <_sbrk+0x6e6>
    9e72:	2d2d                	jal	a4ac <_sbrk+0x6e8>
    9e74:	2d2d                	jal	a4ae <_sbrk+0x6ea>
    9e76:	2d2d                	jal	a4b0 <_sbrk+0x6ec>
    9e78:	2d2d                	jal	a4b2 <_sbrk+0x6ee>
    9e7a:	2d2d                	jal	a4b4 <_sbrk+0x6f0>
    9e7c:	2d2d                	jal	a4b6 <_sbrk+0x6f2>
    9e7e:	2d2d                	jal	a4b8 <_sbrk+0x6f4>
    9e80:	2d2d                	jal	a4ba <_sbrk+0x6f6>
    9e82:	2d2d                	jal	a4bc <_sbrk+0x6f8>
    9e84:	2d2d                	jal	a4be <_sbrk+0x6fa>
    9e86:	2d2d                	jal	a4c0 <_sbrk+0x6fc>
    9e88:	2d2d                	jal	a4c2 <_sbrk+0x6fe>
    9e8a:	2d2d                	jal	a4c4 <_sbrk+0x700>
    9e8c:	2d2d                	jal	a4c6 <_sbrk+0x702>
    9e8e:	2d2d                	jal	a4c8 <_sbrk+0x704>
    9e90:	0d2d                	addi	s10,s10,11
    9e92:	0000                	unimp
    9e94:	7409                	lui	s0,0xfffe2
    9e96:	6369706f          	j	a14cc <_data_lma+0x93704>
    9e9a:	253a                	fld	fa0,392(sp)
    9e9c:	000a0d73          	0xa0d73
    9ea0:	7009                	c.lui	zero,0xfffe2
    9ea2:	7961                	lui	s2,0xffff8
    9ea4:	6f6c                	flw	fa1,92(a4)
    9ea6:	6461                	lui	s0,0x18
    9ea8:	253a                	fld	fa0,392(sp)
    9eaa:	000a0d73          	0xa0d73
    9eae:	0000                	unimp
    9eb0:	4e4e4f43          	fmadd.q	ft10,ft8,ft4,fs1,rmm
    9eb4:	4345                	li	t1,17
    9eb6:	4554                	lw	a3,12(a0)
    9eb8:	0044                	addi	s1,sp,4
    9eba:	0000                	unimp
    9ebc:	4944                	lw	s1,20(a0)
    9ebe:	4e4f4353          	0x4e4f4353
    9ec2:	454e                	lw	a0,208(sp)
    9ec4:	44455443          	0x44455443
    9ec8:	0000                	unimp
    9eca:	0000                	unimp
    9ecc:	7365                	lui	t1,0xffff9
    9ece:	3870                	fld	fa2,240(s0)
    9ed0:	3632                	fld	fa2,296(sp)
    9ed2:	2036                	fld	ft0,328(sp)
    9ed4:	6574                	flw	fa3,76(a0)
    9ed6:	636e                	flw	ft6,216(sp)
    9ed8:	6e65                	lui	t3,0x19
    9eda:	2074                	fld	fa3,192(s0)
    9edc:	6966                	flw	fs2,88(sp)
    9ede:	6d72                	flw	fs10,28(sp)
    9ee0:	65726177          	0x65726177
    9ee4:	7320                	flw	fs0,96(a4)
    9ee6:	6c61                	lui	s8,0x18
    9ee8:	6920                	flw	fs0,80(a0)
    9eea:	696e                	flw	fs2,216(sp)
    9eec:	2074                	fld	fa3,192(s0)
    9eee:	6166                	flw	ft2,88(sp)
    9ef0:	6c69                	lui	s8,0x1a
    9ef2:	202c                	fld	fa1,64(s0)
    9ef4:	6572                	flw	fa0,28(sp)
    9ef6:	2074                	fld	fa3,192(s0)
    9ef8:	7369                	lui	t1,0xffffa
    9efa:	2520                	fld	fs0,72(a0)
    9efc:	0d64                	addi	s1,sp,668
    9efe:	000a                	c.slli	zero,0x2
    9f00:	6574                	flw	fa3,76(a0)
    9f02:	636e                	flw	ft6,216(sp)
    9f04:	6e65                	lui	t3,0x19
    9f06:	6f74                	flw	fa3,92(a4)
    9f08:	00000073          	ecall
    9f0c:	7565                	lui	a0,0xffff9
    9f0e:	616c                	flw	fa1,68(a0)
    9f10:	0072                	c.slli	zero,0x1c
    9f12:	0000                	unimp
    9f14:	4e544a33          	0x4e544a33
    9f18:	424c                	lw	a1,4(a2)
    9f1a:	394a                	fld	fs2,176(sp)
    9f1c:	484c                	lw	a1,20(s0)
    9f1e:	0000                	unimp
    9f20:	636f6c63          	bltu	t5,s6,a558 <ascii_1206+0x80>
    9f24:	0000006b          	0x6b
    9f28:	51394543          	fmadd.s	fa0,fs2,fs3,fa0,rmm
    9f2c:	4f46                	lw	t5,80(sp)
    9f2e:	6534                	flw	fa3,72(a0)
    9f30:	5165                	li	sp,-7
    9f32:	576a                	lw	a4,184(sp)
    9f34:	2f78                	fld	fa4,216(a4)
    9f36:	68785947          	fmsub.s	fs2,fa6,ft7,fa3,unknown
    9f3a:	77444743          	fmadd.q	fa4,fs0,fs4,fa4,rmm
    9f3e:	3d3d                	jal	9d7c <_close+0x8>
    9f40:	0000                	unimp
    9f42:	0000                	unimp
    9f44:	6f6d                	lui	t5,0x1b
    9f46:	7564                	flw	fs1,108(a0)
    9f48:	656c                	flw	fa1,76(a0)
    9f4a:	6d20                	flw	fs0,88(a0)
    9f4c:	7471                	lui	s0,0xffffc
    9f4e:	2074                	fld	fa3,192(s0)
    9f50:	6e6e6f63          	bltu	t3,t1,a64e <ascii_1206+0x176>
    9f54:	6620                	flw	fs0,72(a2)
    9f56:	6961                	lui	s2,0x18
    9f58:	006c                	addi	a1,sp,12
    9f5a:	0000                	unimp
    9f5c:	6f6d                	lui	t5,0x1b
    9f5e:	7564                	flw	fs1,108(a0)
    9f60:	656c                	flw	fa1,76(a0)
    9f62:	6d20                	flw	fs0,88(a0)
    9f64:	7471                	lui	s0,0xffffc
    9f66:	2074                	fld	fa3,192(s0)
    9f68:	6e6e6f63          	bltu	t3,t1,a666 <ascii_1206+0x18e>
    9f6c:	7320                	flw	fs0,96(a4)
    9f6e:	6375                	lui	t1,0x1d
    9f70:	73736563          	bltu	t1,s7,a69a <ascii_1206+0x1c2>
    9f74:	0000                	unimp
    9f76:	0000                	unimp
    9f78:	514d                	li	sp,-13
    9f7a:	5454                	lw	a3,44(s0)
    9f7c:	203a                	fld	ft0,392(sp)
    9f7e:	7325                	lui	t1,0xfffe9
    9f80:	000a                	c.slli	zero,0x2
    9f82:	0000                	unimp
    9f84:	7424                	flw	fs1,104(s0)
    9f86:	6968                	flw	fa0,84(a0)
    9f88:	676e                	flw	fa4,216(sp)
    9f8a:	776f642f          	0x776f642f
    9f8e:	2f6e                	fld	ft10,216(sp)
    9f90:	7270                	flw	fa2,100(a2)
    9f92:	7265706f          	j	616b8 <_data_lma+0x538f0>
    9f96:	7974                	flw	fa3,116(a0)
    9f98:	2f73252f          	0x2f73252f
    9f9c:	7325                	lui	t1,0xfffe9
    9f9e:	0000                	unimp
    9fa0:	6f6d                	lui	t5,0x1b
    9fa2:	7564                	flw	fs1,108(a0)
    9fa4:	656c                	flw	fa1,76(a0)
    9fa6:	6d20                	flw	fs0,88(a0)
    9fa8:	7471                	lui	s0,0xffffc
    9faa:	2074                	fld	fa3,192(s0)
    9fac:	20627573          	csrrci	a0,0x206,4
    9fb0:	6166                	flw	ft2,88(sp)
    9fb2:	6c69                	lui	s8,0x1a
    9fb4:	0000                	unimp
    9fb6:	0000                	unimp
    9fb8:	6f6d                	lui	t5,0x1b
    9fba:	7564                	flw	fs1,108(a0)
    9fbc:	656c                	flw	fa1,76(a0)
    9fbe:	6d20                	flw	fs0,88(a0)
    9fc0:	7471                	lui	s0,0xffffc
    9fc2:	2074                	fld	fa3,192(s0)
    9fc4:	20627573          	csrrci	a0,0x206,4
    9fc8:	63637573          	csrrci	a0,0x636,6
    9fcc:	7365                	lui	t1,0xffff9
    9fce:	74240073          	0x74240073
    9fd2:	6968                	flw	fa0,84(a0)
    9fd4:	676e                	flw	fa4,216(sp)
    9fd6:	2f70752f          	0x2f70752f
    9fda:	7270                	flw	fa2,100(a2)
    9fdc:	7265706f          	j	61702 <_data_lma+0x5393a>
    9fe0:	7974                	flw	fa3,116(a0)
    9fe2:	2f73252f          	0x2f73252f
    9fe6:	7325                	lui	t1,0xfffe9
    9fe8:	0000                	unimp
    9fea:	0000                	unimp
    9fec:	6d225c7b          	0x6d225c7b
    9ff0:	7465                	lui	s0,0xffff9
    9ff2:	6f68                	flw	fa0,92(a4)
    9ff4:	5c64                	lw	s1,124(s0)
    9ff6:	3a22                	fld	fs4,40(sp)
    9ff8:	225c                	fld	fa5,128(a2)
    9ffa:	6572                	flw	fa0,28(sp)
    9ffc:	6f70                	flw	fa2,92(a4)
    9ffe:	7472                	flw	fs0,60(sp)
    a000:	225c                	fld	fa5,128(a2)
    a002:	2c5c                	fld	fa5,152(s0)
    a004:	225c                	fld	fa5,128(a2)
    a006:	65696c63          	bltu	s2,s6,a65e <ascii_1206+0x186>
    a00a:	746e                	flw	fs0,248(sp)
    a00c:	6f54                	flw	fa3,28(a4)
    a00e:	5c6e656b          	0x5c6e656b
    a012:	3a22                	fld	fs4,40(sp)
    a014:	225c                	fld	fa5,128(a2)
    a016:	3030                	fld	fa2,96(s0)
    a018:	3030                	fld	fa2,96(s0)
    a01a:	3030                	fld	fa2,96(s0)
    a01c:	3130                	fld	fa2,96(a0)
    a01e:	225c                	fld	fa5,128(a2)
    a020:	2c5c                	fld	fa5,152(s0)
    a022:	225c                	fld	fa5,128(a2)
    a024:	6170                	flw	fa2,68(a0)
    a026:	6172                	flw	ft2,28(sp)
    a028:	736d                	lui	t1,0xffffb
    a02a:	225c                	fld	fa5,128(a2)
    a02c:	7b3a                	flw	fs6,172(sp)
    a02e:	225c                	fld	fa5,128(a2)
    a030:	6974                	flw	fa3,84(a0)
    a032:	5c736b63          	bltu	t1,t2,a608 <ascii_1206+0x130>
    a036:	3a22                	fld	fs4,40(sp)
    a038:	6425                	lui	s0,0x9
    a03a:	2c5c                	fld	fa5,152(s0)
    a03c:	225c                	fld	fa5,128(a2)
    a03e:	616e                	flw	ft2,216(sp)
    a040:	656d                	lui	a0,0x1b
    a042:	225c                	fld	fa5,128(a2)
    a044:	5c3a                	lw	s8,172(sp)
    a046:	6322                	flw	ft6,8(sp)
    a048:	6f6c                	flw	fa1,92(a4)
    a04a:	225c6b63          	bltu	s8,t0,a280 <_sbrk+0x4bc>
    a04e:	7d7d                	lui	s10,0xfffff
    a050:	0000                	unimp
    a052:	0000                	unimp
    a054:	5441                	li	s0,-16
    a056:	4a57432b          	0x4a57432b
    a05a:	5041                	c.li	zero,-16
    a05c:	000a0d3f 38707365 	0x38707365000a0d3f
    a064:	3632                	fld	fa2,296(sp)
    a066:	5f36                	lw	t5,108(sp)
    a068:	5f746567          	0x5f746567
    a06c:	7372                	flw	ft6,60(sp)
    a06e:	66206973          	csrrsi	s2,0x662,0
    a072:	6961                	lui	s2,0x18
    a074:	206c                	fld	fa1,192(s0)
    a076:	6425                	lui	s0,0x9
    a078:	2520                	fld	fs0,72(a0)
    a07a:	000a0d73          	0xa0d73
    a07e:	0000                	unimp
    a080:	6f4e                	flw	ft10,208(sp)
    a082:	4120                	lw	s0,64(a0)
    a084:	0050                	addi	a2,sp,4
    a086:	0000                	unimp
    a088:	4a57432b          	0x4a57432b
    a08c:	5041                	c.li	zero,-16
    a08e:	0000                	unimp
    a090:	6f4e                	flw	ft10,208(sp)
    a092:	2220                	fld	fs0,64(a2)
    a094:	4a57432b          	0x4a57432b
    a098:	5041                	c.li	zero,-16
    a09a:	223a                	fld	ft4,392(sp)
    a09c:	000d                	c.nop	3
    a09e:	0000                	unimp
    a0a0:	5b25                	li	s6,-23
    a0a2:	2c5e                	fld	fs8,464(sp)
    a0a4:	2c5d                	jal	a35a <_sbrk+0x596>
    a0a6:	5b25                	li	s6,-23
    a0a8:	2c5e                	fld	fs8,464(sp)
    a0aa:	2c5d                	jal	a360 <_sbrk+0x59c>
    a0ac:	2520                	fld	fs0,72(a0)
    a0ae:	2c64                	fld	fs1,216(s0)
    a0b0:	2520                	fld	fs0,72(a0)
    a0b2:	0064                	addi	s1,sp,12
    a0b4:	20746567          	0x20746567
    a0b8:	69666977          	0x69666977
    a0bc:	7220                	flw	fs0,96(a2)
    a0be:	20697373          	csrrci	t1,0x206,18
    a0c2:	6166                	flw	ft2,88(sp)
    a0c4:	6c69                	lui	s8,0x1a
    a0c6:	0d21                	addi	s10,s10,8
    a0c8:	0000                	unimp
    a0ca:	0000                	unimp
    a0cc:	6572                	flw	fa0,28(sp)
    a0ce:	733e2d63          	0x733e2d63
    a0d2:	3a646973          	csrrsi	s2,0x3a6,8
    a0d6:	7325                	lui	t1,0xfffe9
    a0d8:	202c                	fld	fa1,64(s0)
    a0da:	7362                	flw	ft6,56(sp)
    a0dc:	3a646973          	csrrsi	s2,0x3a6,8
    a0e0:	7325                	lui	t1,0xfffe9
    a0e2:	202c                	fld	fa1,64(s0)
    a0e4:	6e616863          	bltu	sp,t1,a7d4 <ascii_1206+0x2fc>
    a0e8:	656e                	flw	fa0,216(sp)
    a0ea:	3a6c                	fld	fa1,240(a2)
    a0ec:	6425                	lui	s0,0x9
    a0ee:	202c                	fld	fa1,64(s0)
    a0f0:	7372                	flw	ft6,60(sp)
    a0f2:	253a6973          	csrrsi	s2,0x253,20
    a0f6:	0d64                	addi	s1,sp,668
    a0f8:	000a                	c.slli	zero,0x2
    a0fa:	0000                	unimp
    a0fc:	6e49                	lui	t3,0x12
    a0fe:	7469                	lui	s0,0xffffa
    a100:	4520                	lw	s0,72(a0)
    a102:	32385053          	0x32385053
    a106:	3636                	fld	fa2,360(sp)
    a108:	7720                	flw	fs0,104(a4)
    a10a:	7469                	lui	s0,0xffffa
    a10c:	2068                	fld	fa0,192(s0)
    a10e:	6574                	flw	fa3,76(a0)
    a110:	636e                	flw	ft6,216(sp)
    a112:	6e65                	lui	t3,0x19
    a114:	2074                	fld	fa3,192(s0)
    a116:	6966                	flw	fs2,88(sp)
    a118:	6d72                	flw	fs10,28(sp)
    a11a:	65726177          	0x65726177
    a11e:	2e20                	fld	fs0,88(a2)
    a120:	2e2e                	fld	ft8,200(sp)
    a122:	0000                	unimp
    a124:	6572                	flw	fa0,28(sp)
    a126:	6461                	lui	s0,0x18
    a128:	0079                	c.nop	30
    a12a:	0000                	unimp
    a12c:	5441                	li	s0,-16
    a12e:	5345522b          	0x5345522b
    a132:	4f54                	lw	a3,28(a4)
    a134:	4552                	lw	a0,20(sp)
    a136:	0a0d                	addi	s4,s4,3
    a138:	0000                	unimp
    a13a:	0000                	unimp
    a13c:	7365                	lui	t1,0xffff9
    a13e:	3870                	fld	fa2,240(s0)
    a140:	3632                	fld	fa2,296(sp)
    a142:	2036                	fld	ft0,328(sp)
    a144:	6365                	lui	t1,0x19
    a146:	6f68                	flw	fa0,92(a4)
    a148:	6320                	flw	fs0,64(a4)
    a14a:	6f6c                	flw	fa1,92(a4)
    a14c:	46206573          	csrrsi	a0,0x462,0
    a150:	4941                	li	s2,16
    a152:	454c                	lw	a1,12(a0)
    a154:	0044                	addi	s1,sp,4
    a156:	0000                	unimp
    a158:	5441                	li	s0,-16
    a15a:	4d57432b          	0x4d57432b
    a15e:	3d45444f          	0x3d45444f
    a162:	0d31                	addi	s10,s10,12
    a164:	000a                	c.slli	zero,0x2
    a166:	0000                	unimp
    a168:	5441                	li	s0,-16
    a16a:	5049432b          	0x5049432b
    a16e:	4f4d                	li	t5,19
    a170:	4544                	lw	s1,12(a0)
    a172:	253d                	jal	a7a0 <ascii_1206+0x2c8>
    a174:	0d64                	addi	s1,sp,668
    a176:	000a                	c.slli	zero,0x2
    a178:	7365                	lui	t1,0xffff9
    a17a:	3870                	fld	fa2,240(s0)
    a17c:	3632                	fld	fa2,296(sp)
    a17e:	2036                	fld	ft0,328(sp)
    a180:	646e6573          	csrrsi	a0,0x646,28
    a184:	6d20                	flw	fs0,88(a0)
    a186:	2065646f          	jal	s0,6038c <_data_lma+0x525c4>
    a18a:	20746573          	csrrsi	a0,0x207,8
    a18e:	4146                	lw	sp,80(sp)
    a190:	4c49                	li	s8,18
    a192:	4445                	li	s0,17
    a194:	0000                	unimp
    a196:	0000                	unimp
    a198:	6e49                	lui	t3,0x12
    a19a:	7469                	lui	s0,0xffffa
    a19c:	4520                	lw	s0,72(a0)
    a19e:	32385053          	0x32385053
    a1a2:	3636                	fld	fa2,360(sp)
    a1a4:	7720                	flw	fs0,104(a4)
    a1a6:	7469                	lui	s0,0xffffa
    a1a8:	2068                	fld	fa0,192(s0)
    a1aa:	6574                	flw	fa3,76(a0)
    a1ac:	636e                	flw	ft6,216(sp)
    a1ae:	6e65                	lui	t3,0x19
    a1b0:	2074                	fld	fa3,192(s0)
    a1b2:	6966                	flw	fs2,88(sp)
    a1b4:	6d72                	flw	fs10,28(sp)
    a1b6:	65726177          	0x65726177
    a1ba:	4420                	lw	s0,72(s0)
    a1bc:	00656e6f          	jal	t3,601c2 <_data_lma+0x523fa>
    a1c0:	7365                	lui	t1,0xffff9
    a1c2:	3870                	fld	fa2,240(s0)
    a1c4:	3632                	fld	fa2,296(sp)
    a1c6:	2036                	fld	ft0,328(sp)
    a1c8:	656e                	flw	fa0,216(sp)
    a1ca:	2074                	fld	fa3,192(s0)
    a1cc:	6f6d                	lui	t5,0x1b
    a1ce:	6564                	flw	fs1,76(a0)
    a1d0:	7320                	flw	fs0,96(a4)
    a1d2:	7465                	lui	s0,0xffff9
    a1d4:	4620                	lw	s0,72(a2)
    a1d6:	4941                	li	s2,16
    a1d8:	454c                	lw	a1,12(a0)
    a1da:	0044                	addi	s1,sp,4
    a1dc:	5441                	li	s0,-16
    a1de:	3045                	jal	9a7e <_scanf_i+0x1d6>
    a1e0:	0a0d                	addi	s4,s4,3
    a1e2:	0000                	unimp
    a1e4:	7365                	lui	t1,0xffff9
    a1e6:	3870                	fld	fa2,240(s0)
    a1e8:	3632                	fld	fa2,296(sp)
    a1ea:	2036                	fld	ft0,328(sp)
    a1ec:	6572                	flw	fa0,28(sp)
    a1ee:	726f7473          	csrrci	s0,0x726,30
    a1f2:	2065                	jal	a29a <_sbrk+0x4d6>
    a1f4:	4146                	lw	sp,80(sp)
    a1f6:	4c49                	li	s8,18
    a1f8:	4445                	li	s0,17
    a1fa:	0000                	unimp
    a1fc:	5441                	li	s0,-16
    a1fe:	4a57432b          	0x4a57432b
    a202:	5041                	c.li	zero,-16
    a204:	223d                	jal	a332 <_sbrk+0x56e>
    a206:	7325                	lui	t1,0xfffe9
    a208:	2c22                	fld	fs8,8(sp)
    a20a:	2522                	fld	fa0,8(sp)
    a20c:	0a0d2273          	csrrs	tp,0xa0,s10
    a210:	0000                	unimp
    a212:	0000                	unimp
    a214:	5441                	li	s0,-16
    a216:	5443542b          	0x5443542b
    a21a:	4d45                	li	s10,17
    a21c:	4f4c                	lw	a1,28(a4)
    a21e:	64253d47          	0x64253d47
    a222:	0a0d                	addi	s4,s4,3
    a224:	0000                	unimp
    a226:	0000                	unimp
    a228:	4443542b          	0x4443542b
    a22c:	5645                	li	a2,-15
    a22e:	4e49                	li	t3,18
    a230:	4f46                	lw	t5,80(sp)
    a232:	3a544553          	0x3a544553
    a236:	00004b4f          	fnmadd.s	fs6,ft0,ft0,ft0,rmm
    a23a:	0000                	unimp
    a23c:	5441                	li	s0,-16
    a23e:	4443542b          	0x4443542b
    a242:	5645                	li	a2,-15
    a244:	4e49                	li	t3,18
    a246:	4f46                	lw	t5,80(sp)
    a248:	3d544553          	0x3d544553
    a24c:	6425                	lui	s0,0x9
    a24e:	222c                	fld	fa1,64(a2)
    a250:	7325                	lui	t1,0xfffe9
    a252:	2c22                	fld	fs8,8(sp)
    a254:	2522                	fld	fa0,8(sp)
    a256:	222c2273          	csrrs	tp,0x222,s8
    a25a:	7325                	lui	t1,0xfffe9
    a25c:	0d22                	slli	s10,s10,0x8
    a25e:	000a                	c.slli	zero,0x2
    a260:	4d43542b          	0x4d43542b
    a264:	5451                	li	s0,-12
    a266:	4354                	lw	a3,4(a4)
    a268:	3a4e4e4f          	fnmadd.d	ft8,ft8,ft4,ft7,rmm
    a26c:	00004b4f          	fnmadd.s	fs6,ft0,ft0,ft0,rmm
    a270:	5441                	li	s0,-16
    a272:	4d43542b          	0x4d43542b
    a276:	5451                	li	s0,-12
    a278:	4354                	lw	a3,4(a4)
    a27a:	3d4e4e4f          	0x3d4e4e4f
    a27e:	6425                	lui	s0,0x9
    a280:	252c                	fld	fa1,72(a0)
    a282:	2c64                	fld	fs1,216(s0)
    a284:	6425                	lui	s0,0x9
    a286:	252c                	fld	fa1,72(a0)
    a288:	2c64                	fld	fs1,216(s0)
    a28a:	6425                	lui	s0,0x9
    a28c:	0a0d                	addi	s4,s4,3
    a28e:	0000                	unimp
    a290:	5441                	li	s0,-16
    a292:	4d43542b          	0x4d43542b
    a296:	5451                	li	s0,-12
    a298:	4454                	lw	a3,12(s0)
    a29a:	5349                	li	t1,-14
    a29c:	4e4e4f43          	fmadd.q	ft10,ft8,ft4,fs1,rmm
    a2a0:	0a0d                	addi	s4,s4,3
    a2a2:	0000                	unimp
    a2a4:	4d43542b          	0x4d43542b
    a2a8:	5451                	li	s0,-12
    a2aa:	5054                	lw	a3,36(s0)
    a2ac:	4255                	li	tp,21
    a2ae:	4f3a                	lw	t5,140(sp)
    a2b0:	0000004b          	fnmsub.s	ft0,ft0,ft0,ft0,rne
    a2b4:	5441                	li	s0,-16
    a2b6:	4d43542b          	0x4d43542b
    a2ba:	5451                	li	s0,-12
    a2bc:	5054                	lw	a3,36(s0)
    a2be:	4255                	li	tp,21
    a2c0:	223d                	jal	a3ee <_sbrk+0x62a>
    a2c2:	7325                	lui	t1,0xfffe9
    a2c4:	2c22                	fld	fs8,8(sp)
    a2c6:	6425                	lui	s0,0x9
    a2c8:	222c                	fld	fa1,64(a2)
    a2ca:	7325                	lui	t1,0xfffe9
    a2cc:	0d22                	slli	s10,s10,0x8
    a2ce:	000a                	c.slli	zero,0x2
    a2d0:	003e                	c.slli	zero,0xf
    a2d2:	0000                	unimp
    a2d4:	5441                	li	s0,-16
    a2d6:	4d43542b          	0x4d43542b
    a2da:	5451                	li	s0,-12
    a2dc:	5054                	lw	a3,36(s0)
    a2de:	4255                	li	tp,21
    a2e0:	3d4c                	fld	fa1,184(a0)
    a2e2:	2522                	fld	fa0,8(sp)
    a2e4:	252c2273          	csrrs	tp,0x252,s8
    a2e8:	2c64                	fld	fs1,216(s0)
    a2ea:	6425                	lui	s0,0x9
    a2ec:	0a0d                	addi	s4,s4,3
    a2ee:	0000                	unimp
    a2f0:	4d43542b          	0x4d43542b
    a2f4:	5451                	li	s0,-12
    a2f6:	5054                	lw	a3,36(s0)
    a2f8:	4255                	li	tp,21
    a2fa:	3a4c                	fld	fa1,176(a2)
    a2fc:	00004b4f          	fnmadd.s	fs6,ft0,ft0,ft0,rmm
    a300:	5441                	li	s0,-16
    a302:	4d43542b          	0x4d43542b
    a306:	5451                	li	s0,-12
    a308:	5354                	lw	a3,36(a4)
    a30a:	4154                	lw	a3,4(a0)
    a30c:	4554                	lw	a3,12(a0)
    a30e:	000a0d3f 542b0000 	0x542b0000000a0d3f
    a316:	54514d43          	0x54514d43
    a31a:	5354                	lw	a3,36(a4)
    a31c:	4154                	lw	a3,4(a0)
    a31e:	4554                	lw	a3,12(a0)
    a320:	003a                	c.slli	zero,0xe
    a322:	0000                	unimp
    a324:	4d43542b          	0x4d43542b
    a328:	5451                	li	s0,-12
    a32a:	5354                	lw	a3,36(a4)
    a32c:	4154                	lw	a3,4(a0)
    a32e:	4554                	lw	a3,12(a0)
    a330:	253a                	fld	fa0,392(sp)
    a332:	0064                	addi	s1,sp,12
    a334:	4d43542b          	0x4d43542b
    a338:	5451                	li	s0,-12
    a33a:	5354                	lw	a3,36(a4)
    a33c:	4255                	li	tp,21
    a33e:	4f3a                	lw	t5,140(sp)
    a340:	0000004b          	fnmsub.s	ft0,ft0,ft0,ft0,rne
    a344:	5441                	li	s0,-16
    a346:	4d43542b          	0x4d43542b
    a34a:	5451                	li	s0,-12
    a34c:	5354                	lw	a3,36(a4)
    a34e:	4255                	li	tp,21
    a350:	223d                	jal	a47e <_sbrk+0x6ba>
    a352:	7325                	lui	t1,0xfffe9
    a354:	2c22                	fld	fs8,8(sp)
    a356:	6425                	lui	s0,0x9
    a358:	0a0d                	addi	s4,s4,3
    a35a:	0000                	unimp
    a35c:	4d43542b          	0x4d43542b
    a360:	5451                	li	s0,-12
    a362:	5554                	lw	a3,44(a0)
    a364:	534e                	lw	t1,240(sp)
    a366:	4255                	li	tp,21
    a368:	4f3a                	lw	t5,140(sp)
    a36a:	5441004b          	0x5441004b
    a36e:	4d43542b          	0x4d43542b
    a372:	5451                	li	s0,-12
    a374:	5554                	lw	a3,44(a0)
    a376:	534e                	lw	t1,240(sp)
    a378:	4255                	li	tp,21
    a37a:	223d                	jal	a4a8 <_sbrk+0x6e4>
    a37c:	7325                	lui	t1,0xfffe9
    a37e:	0d22                	slli	s10,s10,0x8
    a380:	000a                	c.slli	zero,0x2
    a382:	0000                	unimp
    a384:	5441                	li	s0,-16
    a386:	5243542b          	0x5243542b
    a38a:	4145                	li	sp,17
    a38c:	4644                	lw	s1,12(a2)
    a38e:	54414457          	0x54414457
    a392:	3d41                	jal	a222 <_sbrk+0x45e>
    a394:	6425                	lui	s0,0x9
    a396:	0a0d                	addi	s4,s4,3
    a398:	0000                	unimp
    a39a:	0000                	unimp
    a39c:	4643542b          	0x4643542b
    a3a0:	464e4957          	0x464e4957
    a3a4:	00003a4f          	fnmadd.s	fs4,ft0,ft0,ft0,rup
    a3a8:	5441                	li	s0,-16
    a3aa:	4643542b          	0x4643542b
    a3ae:	464e4957          	0x464e4957
    a3b2:	0a0d3f4f          	fnmadd.d	ft10,fs10,ft0,ft1,rup
    a3b6:	0000                	unimp
    a3b8:	2a25                	jal	a4f0 <ascii_1206+0x18>
    a3ba:	5d225e5b          	0x5d225e5b
    a3be:	2a25                	jal	a4f6 <ascii_1206+0x1e>
    a3c0:	5e5b2563          	0x5e5b2563
    a3c4:	5d22                	lw	s10,40(sp)
    a3c6:	2a25                	jal	a4fe <ascii_1206+0x26>
    a3c8:	5d2c5e5b          	0x5d2c5e5b
    a3cc:	2a25                	jal	a504 <ascii_1206+0x2c>
    a3ce:	5e5b2563          	0x5e5b2563
    a3d2:	5d2c                	lw	a1,120(a0)
    a3d4:	2a25                	jal	a50c <ascii_1206+0x34>
    a3d6:	5d225e5b          	0x5d225e5b
    a3da:	2a25                	jal	a512 <ascii_1206+0x3a>
    a3dc:	5e5b2563          	0x5e5b2563
    a3e0:	5d22                	lw	s10,40(sp)
    a3e2:	0000                	unimp
    a3e4:	4f43542b          	0x4f43542b
    a3e8:	4154                	lw	a3,4(a0)
    a3ea:	3a544553          	0x3a544553
    a3ee:	00004b4f          	fnmadd.s	fs6,ft0,ft0,ft0,rmm
    a3f2:	0000                	unimp
    a3f4:	5441                	li	s0,-16
    a3f6:	4f43542b          	0x4f43542b
    a3fa:	4154                	lw	a3,4(a0)
    a3fc:	3d544553          	0x3d544553
    a400:	6425                	lui	s0,0x9
    a402:	222c                	fld	fa1,64(a2)
    a404:	7325                	lui	t1,0xfffe9
    a406:	0d22                	slli	s10,s10,0x8
    a408:	000a                	c.slli	zero,0x2
    a40a:	0000                	unimp
    a40c:	5055                	c.li	zero,-11
    a40e:	4144                	lw	s1,4(a0)
    a410:	4554                	lw	a3,12(a0)
    a412:	43435553          	0x43435553
    a416:	5345                	li	t1,-15
    a418:	00000053          	fadd.s	ft0,ft0,ft0,rne
    a41c:	43435553          	0x43435553
    a420:	5345                	li	t1,-15
    a422:	73650053          	0x73650053
    a426:	3870                	fld	fa2,240(s0)
    a428:	3632                	fld	fa2,296(sp)
    a42a:	5f36                	lw	t5,108(sp)
    a42c:	6674                	flw	fa3,76(a2)
    a42e:	615f 0074 0000      	0x74615f
    a434:	5441                	li	s0,-16
    a436:	5343542b          	0x5343542b
    a43a:	4154                	lw	a3,4(a0)
    a43c:	5452                	lw	s0,52(sp)
    a43e:	52414d53          	0x52414d53
    a442:	0d54                	addi	a3,sp,660
    a444:	000a                	c.slli	zero,0x2
    a446:	0000                	unimp
    a448:	5441                	li	s0,-16
    a44a:	5343542b          	0x5343542b
    a44e:	4f54                	lw	a3,28(a4)
    a450:	5350                	lw	a2,36(a4)
    a452:	414d                	li	sp,19
    a454:	5452                	lw	s0,52(sp)
    a456:	0a0d                	addi	s4,s4,3
    a458:	0000                	unimp
    a45a:	0000                	unimp
    a45c:	4d43542b          	0x4d43542b
    a460:	5451                	li	s0,-12
    a462:	5254                	lw	a3,36(a2)
    a464:	55505643          	0x55505643
    a468:	3a42                	fld	fs4,48(sp)
    a46a:	0000                	unimp
    a46c:	5243542b          	0x5243542b
    a470:	4145                	li	sp,17
    a472:	4644                	lw	s1,12(a2)
    a474:	54414457          	0x54414457
    a478:	3a41                	jal	9e08 <_sbrk+0x44>
    a47a:	0000                	unimp
    a47c:	4f43542b          	0x4f43542b
    a480:	4154                	lw	a3,4(a0)
    a482:	54415453          	0x54415453
    a486:	5355                	li	t1,-11
    a488:	003a                	c.slli	zero,0xe
    a48a:	0000                	unimp
    a48c:	5343542b          	0x5343542b
    a490:	4154                	lw	a3,4(a0)
    a492:	5452                	lw	s0,52(sp)
    a494:	52414d53          	0x52414d53
    a498:	3a54                	fld	fa3,176(a2)
    a49a:	0000                	unimp
    a49c:	6168                	flw	fa0,68(a0)
    a49e:	6472                	flw	fs0,28(sp)
    a4a0:	6166                	flw	ft2,88(sp)
    a4a2:	6c75                	lui	s8,0x1d
    a4a4:	0d74                	addi	a3,sp,668
    a4a6:	0000                	unimp
    a4a8:	656d                	lui	a0,0x1b
    a4aa:	6370                	flw	fa2,68(a4)
    a4ac:	2020                	fld	fs0,64(s0)
    a4ae:	3d20                	fld	fs0,120(a0)
    a4b0:	2520                	fld	fs0,72(a0)
    a4b2:	3830                	fld	fa2,112(s0)
    a4b4:	0d78                	addi	a4,sp,668
    a4b6:	000a                	c.slli	zero,0x2
    a4b8:	636d                	lui	t1,0x1b
    a4ba:	7561                	lui	a0,0xffff8
    a4bc:	3d206573          	csrrsi	a0,0x3d2,0
    a4c0:	2520                	fld	fs0,72(a0)
    a4c2:	3830                	fld	fa2,112(s0)
    a4c4:	0d78                	addi	a4,sp,668
    a4c6:	000a                	c.slli	zero,0x2
    a4c8:	746d                	lui	s0,0xffffb
    a4ca:	6176                	flw	ft2,92(sp)
    a4cc:	206c                	fld	fa1,192(s0)
    a4ce:	3d20                	fld	fs0,120(a0)
    a4d0:	2520                	fld	fs0,72(a0)
    a4d2:	3830                	fld	fa2,112(s0)
    a4d4:	0d78                	addi	a4,sp,668
    a4d6:	000a                	c.slli	zero,0x2

0000a4d8 <ascii_1206>:
	...
    a4e4:	0000 0404 0404 0004 0400 0000 1414 000a     ................
	...
    a4fc:	0000 0a0a 0a1f 1f0a 0a0a 0000 0400 150e     ................
    a50c:	0605 140c 0e15 0004 0000 1512 150d 2c2e     ...............,
    a51c:	122a 0000 0000 0a04 360a 1515 1629 0000     *........6..)...
    a52c:	0202 0001 0000 0000 0000 0000 0810 0408     ................
    a53c:	0404 0404 0808 0010 0402 0804 0808 0808     ................
    a54c:	0404 0002 0000 0400 0e15 150e 0004 0000     ................
    a55c:	0000 0800 3e08 0808 0000 0000 0000 0000     .....>..........
    a56c:	0000 0000 0202 0001 0000 0000 3f00 0000     .............?..
	...
    a588:	0200 0000 2000 1010 0808 0404 0202 0001     ..... ..........
    a598:	0000 110e 1111 1111 0e11 0000 0000 0604     ................
    a5a8:	0404 0404 0e04 0000 0000 110e 0811 0204     ................
    a5b8:	1f01 0000 0000 110e 0c10 1010 0e11 0000     ................
    a5c8:	0000 0c08 0a0c 1f09 1c08 0000 0000 011f     ................
    a5d8:	0f01 1011 0e11 0000 0000 120c 0d01 1113     ................
    a5e8:	0e11 0000 0000 101e 0808 0404 0404 0000     ................
    a5f8:	0000 110e 0e11 1111 0e11 0000 0000 110e     ................
    a608:	1911 1016 0609 0000 0000 0000 0004 0000     ................
    a618:	0400 0000 0000 0000 0400 0000 0400 0004     ................
    a628:	0000 0810 0204 0402 1008 0000 0000 0000     ................
    a638:	003f 003f 0000 0000 0000 0402 1008 0810     ?.?.............
    a648:	0204 0000 0000 110e 0811 0404 0400 0000     ................
    a658:	0000 221c 2d29 1d2d 1c22 0000 0000 0404     ...")--.".......
    a668:	0a0c 1e0a 3312 0000 0000 120f 0e12 1212     .....3..........
    a678:	0f12 0000 0000 111e 0101 0101 0e11 0000     ................
    a688:	0000 120f 1212 1212 0f12 0000 0000 121f     ................
    a698:	0e0a 020a 1f12 0000 0000 121f 0e0a 020a     ................
    a6a8:	0702 0000 0000 121c 0101 1139 0c12 0000     ..........9.....
    a6b8:	0000 1233 1e12 1212 3312 0000 0000 041f     ..3......3......
    a6c8:	0404 0404 1f04 0000 0000 083e 0808 0808     ..........>.....
    a6d8:	0808 0709 0000 1237 060a 120a 3712 0000     ......7......7..
    a6e8:	0000 0207 0202 0202 3f22 0000 0000 1b3b     ........"?....;.
    a6f8:	1b1b 1515 3515 0000 0000 123b 1616 1a1a     .....5....;.....
    a708:	1712 0000 0000 110e 1111 1111 0e11 0000     ................
    a718:	0000 120f 0e12 0202 0702 0000 0000 110e     ................
    a728:	1111 1711 0e19 0018 0000 120f 0e12 120a     ................
    a738:	3712 0000 0000 111e 0601 1008 0f11 0000     .7..............
    a748:	0000 151f 0404 0404 0e04 0000 0000 1233     ..............3.
    a758:	1212 1212 0c12 0000 0000 1233 0a12 0c0a     ..........3.....
    a768:	0404 0000 0000 1515 1515 0a0e 0a0a 0000     ................
    a778:	0000 0a1b 040a 0a04 1b0a 0000 0000 0a1b     ................
    a788:	0a0a 0404 0e04 0000 0000 091f 0408 0204     ................
    a798:	1f12 0000 041c 0404 0404 0404 0404 001c     ................
    a7a8:	0200 0402 0404 0808 1008 0010 080e 0808     ................
    a7b8:	0808 0808 0808 000e 0a04 0000 0000 0000     ................
	...
    a7d4:	0000 3f00 0402 0000 0000 0000 0000 0000     ...?............
    a7e4:	0000 0000 0c00 1c12 3c12 0000 0300 0202     .........<......
    a7f4:	0e02 1212 0e12 0000 0000 0000 1c00 0212     ................
    a804:	0c12 0000 1800 1010 1c10 1212 3c12 0000     .............<..
    a814:	0000 0000 0c00 1e12 1c02 0000 1800 0424     ..............$.
    a824:	1e04 0404 1e04 0000 0000 0000 3c00 0c12     .............<..
    a834:	1c02 1c22 0300 0202 0e02 1212 3712 0000     .."..........7..
    a844:	0400 0004 0600 0404 0e04 0000 0800 0008     ................
    a854:	0c00 0808 0808 0708 0300 0202 1a02 060a     ................
    a864:	130a 0000 0700 0404 0404 0404 1f04 0000     ................
    a874:	0000 0000 0f00 1515 1515 0000 0000 0000     ................
    a884:	0f00 1212 3712 0000 0000 0000 0c00 1212     .....7..........
    a894:	0c12 0000 0000 0000 0f00 1212 0e12 0702     ................
    a8a4:	0000 0000 1c00 1212 1c12 3810 0000 0000     ...........8....
    a8b4:	1b00 0206 0702 0000 0000 0000 1e00 0c02     ................
    a8c4:	1e10 0000 0000 0400 1e04 0404 1c04 0000     ................
    a8d4:	0000 0000 1b00 1212 3c12 0000 0000 0000     .........<......
    a8e4:	1b00 0a0a 0404 0000 0000 0000 1500 0e15     ................
    a8f4:	0a0a 0000 0000 0000 1b00 040a 1b0a 0000     ................
    a904:	0000 0000 3300 1212 080c 0304 0000 0000     .....3..........
    a914:	1e00 0408 1e04 0000 0818 0808 0c08 0808     ................
    a924:	0808 0018 0808 0808 0808 0808 0808 0808     ................
    a934:	0406 0404 0804 0404 0404 0006 0916 0000     ................
	...

0000a94c <ascii_1608>:
	...
    a95c:	0000 0800 0808 0808 0808 0000 1818 0000     ................
    a96c:	4800 246c 0012 0000 0000 0000 0000 0000     .Hl$............
    a97c:	0000 2400 2424 127f 1212 127f 1212 0000     ...$$$..........
    a98c:	0000 1c08 2a2a 0c0a 2818 2a28 1c2a 0808     ....**...((**...
    a99c:	0000 2200 1525 1515 582a 5454 2254 0000     ..."%...*XTTT"..
    a9ac:	0000 0c00 1212 0a12 2576 1129 6e91 0000     ........v%)..n..
    a9bc:	0600 0406 0003 0000 0000 0000 0000 0000     ................
    a9cc:	4000 1020 0810 0808 0808 1008 2010 0040     .@ .......... @.
    a9dc:	0200 0804 1008 1010 1010 0810 0408 0002     ................
    a9ec:	0000 0000 0808 1c6b 6b1c 0808 0000 0000     ......k..k......
    a9fc:	0000 0000 0808 0808 087f 0808 0008 0000     ................
	...
    aa18:	0606 0304 0000 0000 0000 0000 00fe 0000     ................
	...
    aa38:	0606 0000 0000 4080 2040 1020 0810 0408     .......@@  .....
    aa48:	0204 0002 0000 1800 4224 4242 4242 4242     ........$BBBBBBB
    aa58:	1824 0000 0000 0800 080e 0808 0808 0808     $...............
    aa68:	3e08 0000 0000 3c00 4242 2042 1020 0408     .>.....<BBB  ...
    aa78:	7e42 0000 0000 3c00 4242 1820 4020 4240     B~.....<BB . @@B
    aa88:	1c22 0000 0000 2000 2830 2424 2222 207e     "...... 0($$""~ 
    aa98:	7820 0000 0000 7e00 0202 1a02 4026 4240      x.....~....&@@B
    aaa8:	1c22 0000 0000 3800 0224 1a02 4226 4242     "......8$...&BBB
    aab8:	1824 0000 0000 7e00 2222 1010 0808 0808     $......~""......
    aac8:	0808 0000 0000 3c00 4242 2442 2418 4242     .......<BBB$.$BB
    aad8:	3c42 0000 0000 1800 4224 4242 5864 4040     B<......$BBBdX@@
    aae8:	1c24 0000 0000 0000 0000 1818 0000 0000     $...............
    aaf8:	1818 0000 0000 0000 0000 0800 0000 0000     ................
    ab08:	0800 0408 0000 4000 1020 0408 0402 1008     .......@ .......
    ab18:	4020 0000 0000 0000 0000 007f 0000 007f      @..............
    ab28:	0000 0000 0000 0200 0804 2010 2040 0810     ........... @ ..
    ab38:	0204 0000 0000 3c00 4242 4046 1020 0010     .......<BBF@ ...
    ab48:	1818 0000 0000 1c00 5a22 5555 5555 422d     ........"ZUUUU-B
    ab58:	1c22 0000 0000 0800 1808 1414 3c24 4222     "...........$<"B
    ab68:	e742 0000 0000 1f00 2222 1e22 4222 4242     B......."""."BBB
    ab78:	1f22 0000 0000 7c00 4242 0101 0101 4201     "......|BB.....B
    ab88:	1c22 0000 0000 1f00 4222 4242 4242 4242     "......."BBBBBBB
    ab98:	1f22 0000 0000 3f00 1242 1e12 1212 4202     "......?B......B
    aba8:	3f42 0000 0000 3f00 1242 1e12 1212 0202     B?.....?B.......
    abb8:	0702 0000 0000 3c00 2222 0101 7101 2221     .......<""...q!"
    abc8:	1c22 0000 0000 e700 4242 4242 427e 4242     ".......BBBB~BBB
    abd8:	e742 0000 0000 3e00 0808 0808 0808 0808     B......>........
    abe8:	3e08 0000 0000 7c00 1010 1010 1010 1010     .>.....|........
    abf8:	1010 0f11 0000 7700 1222 0e0a 120a 2212     .......w"......"
    ac08:	7722 0000 0000 0700 0202 0202 0202 0202     "w..............
    ac18:	7f42 0000 0000 7700 3636 3636 2a2a 2a2a     B......w6666****
    ac28:	6b2a 0000 0000 e300 4646 4a4a 5252 6252     *k......FFJJRRRb
    ac38:	4762 0000 0000 1c00 4122 4141 4141 4141     bG......"AAAAAAA
    ac48:	1c22 0000 0000 3f00 4242 4242 023e 0202     "......?BBBB>...
    ac58:	0702 0000 0000 1c00 4122 4141 4141 534d     ........"AAAAAMS
    ac68:	1c32 0060 0000 3f00 4242 3e42 1212 2222     2.`....?BBB>..""
    ac78:	c742 0000 0000 7c00 4242 0402 2018 4240     B......|BB... @B
    ac88:	3e42 0000 0000 7f00 0849 0808 0808 0808     B>......I.......
    ac98:	1c08 0000 0000 e700 4242 4242 4242 4242     ........BBBBBBBB
    aca8:	3c42 0000 0000 e700 4242 2422 1424 1814     B<......BB"$$...
    acb8:	0808 0000 0000 6b00 4949 4949 5555 2236     .......kIIIIUU6"
    acc8:	2222 0000 0000 e700 2442 1824 1818 2424     ""......B$$...$$
    acd8:	e742 0000 0000 7700 2222 1414 0808 0808     B......w""......
    ace8:	1c08 0000 0000 7e00 2021 1010 0408 4204     .......~! .....B
    acf8:	3f42 0000 7800 0808 0808 0808 0808 0808     B?...x..........
    ad08:	0808 0078 0000 0202 0404 0808 1008 2010     ..x............ 
    ad18:	2020 4040 1e00 1010 1010 1010 1010 1010       @@............
    ad28:	1010 001e 3800 0044 0000 0000 0000 0000     .....8D.........
	...
    ad48:	0000 ff00 0600 0008 0000 0000 0000 0000     ................
	...
    ad60:	0000 3c00 7842 4244 fc42 0000 0000 0300     ...<BxDBB.......
    ad70:	0202 1a02 4226 4242 1a26 0000 0000 0000     ....&BBB&.......
    ad80:	0000 3800 0244 0202 3844 0000 0000 6000     ...8D...D8.....`
    ad90:	4040 7840 4244 4242 d864 0000 0000 0000     @@@xDBBBd.......
    ada0:	0000 3c00 7e42 0202 3c42 0000 0000 f000     ...<B~..B<......
    adb0:	0888 7e08 0808 0808 3e08 0000 0000 0000     ...~.....>......
    adc0:	0000 7c00 2222 021c 423c 3c42 0000 0300     ...|""..<BB<....
    add0:	0202 3a02 4246 4242 e742 0000 0000 0c00     ...:FBBBB.......
    ade0:	000c 0e00 0808 0808 3e08 0000 0000 3000     .........>.....0
    adf0:	0030 3800 2020 2020 2020 1e22 0000 0300     0..8      ".....
    ae00:	0202 7202 0a12 1216 7722 0000 0000 0e00     ...r...."w......
    ae10:	0808 0808 0808 0808 3e08 0000 0000 0000     .........>......
    ae20:	0000 7f00 9292 9292 b792 0000 0000 0000     ................
    ae30:	0000 3b00 4246 4242 e742 0000 0000 0000     ...;FBBBB.......
    ae40:	0000 3c00 4242 4242 3c42 0000 0000 0000     ...<BBBBB<......
    ae50:	0000 1b00 4226 4242 1e22 0702 0000 0000     ....&BBB".......
    ae60:	0000 7800 4244 4242 7844 e040 0000 0000     ...xDBBBDx@.....
    ae70:	0000 7700 044c 0404 1f04 0000 0000 0000     ...wL...........
    ae80:	0000 7c00 0242 403c 3e42 0000 0000 0000     ...|B.<@B>......
    ae90:	0800 3e08 0808 0808 3008 0000 0000 0000     ...>.....0......
    aea0:	0000 6300 4242 4242 dc62 0000 0000 0000     ...cBBBBb.......
    aeb0:	0000 e700 2442 1424 0808 0000 0000 0000     ....B$$.........
    aec0:	0000 eb00 4949 5555 2222 0000 0000 0000     ....IIUU""......
    aed0:	0000 7600 1824 1818 6e24 0000 0000 0000     ...v$...$n......
    aee0:	0000 e700 2442 1424 0818 0708 0000 0000     ....B$$.........
    aef0:	0000 7e00 1022 0808 7e44 0000 c000 2020     ...~"...D~....  
    af00:	2020 1020 2020 2020 2020 00c0 1010 1010        .      ......
    af10:	1010 1010 1010 1010 1010 1010 0600 0808     ................
    af20:	0808 1008 0808 0808 0808 0006 320c 00c2     .............2..
	...

0000af3c <ascii_2412>:
	...
    af74:	0060 0060 0060 0060 0060 0060 0060 0040     `.`.`.`.`.`.`.@.
    af84:	0020 0020 0020 0000 0000 0000 0060 0060      . . .......`.`.
    af94:	0060 0000 0000 0000 0000 0000 0660 0660     `...........`.`.
    afa4:	0330 0198 0088 0044 0000 0000 0000 0000     0.....D.........
	...
    afd4:	0210 0210 0210 0210 07fe 07fe 0208 0108     ................
    afe4:	0108 0108 0108 07fe 07fe 0104 0104 0104     ................
    aff4:	0104 0000 0000 0000 0000 0000 0000 0040     ..............@.
    b004:	0040 01f0 0358 034c 03cc 004c 0058 0070     @...X.L...L.X.p.
    b014:	00e0 01c0 01c0 0340 034c 035c 034c 0148     ......@.L.\.L.H.
    b024:	00f0 0040 0040 0000 0000 0000 0000 0000     ..@.@...........
    b034:	010e 010a 0091 0091 0091 0051 0051 003a     ..........Q.Q.:.
    b044:	03ae 02a0 0450 0450 0448 0448 0448 0284     ....P.P.H.H.H...
    b054:	0384 0000 0000 0000 0000 0000 0000 0000     ................
    b064:	0038 006c 006c 006c 006c 006c 002c 0798     8.l.l.l.l.l.,...
    b074:	011c 011a 0133 0133 0163 00e3 08c3 09c6     ....3.3.c.......
    b084:	073c 0000 0000 0000 0000 0000 000c 001c     <...............
    b094:	0010 0010 0008 0004 0000 0000 0000 0000     ................
	...
    b0c0:	0400 0200 0100 0080 0080 0040 0040 0020     ..........@.@. .
    b0d0:	0020 0020 0020 0020 0020 0020 0040 0040      . . . . . .@.@.
    b0e0:	0080 0080 0100 0200 0400 0000 0000 0000     ................
    b0f0:	0002 0004 0008 0010 0010 0020 0020 0040     .......... . .@.
    b100:	0040 0040 0040 0040 0040 0040 0020 0020     @.@.@.@.@.@. . .
    b110:	0010 0010 0008 0004 0002 0000 0000 0000     ................
	...
    b128:	0040 00c0 0040 0c46 0f4e 01d0 01f0 0f5e     @...@.F.N.....^.
    b138:	0c46 0040 0040 0040 0000 0000 0000 0000     F.@.@.@.........
	...
    b158:	0000 0040 0040 0040 0040 0040 0ffe 0040     ..@.@.@.@.@...@.
    b168:	0040 0040 0040 0040 0000 0000 0000 0000     @.@.@.@.........
	...
    b1a0:	000c 001c 0010 0010 0008 0004 0000 0000     ................
	...
    b1c4:	07fe 0000 0000 0000 0000 0000 0000 0000     ................
	...
    b200:	001c 001c 001c 0000 0000 0000 0000 0000     ................
    b210:	0400 0600 0200 0300 0100 0100 0080 0080     ................
    b220:	0040 0040 0060 0020 0020 0010 0010 0008     @.@.`. . .......
    b230:	0008 000c 0004 0006 0002 0000 0000 0000     ................
    b240:	0000 0000 0000 00f0 0198 030c 030c 0606     ................
    b250:	0606 0606 0606 0606 0606 0606 0606 030c     ................
    b260:	030c 0198 00f0 0000 0000 0000 0000 0000     ................
    b270:	0000 0000 0000 0040 007c 0060 0060 0060     ......@.|.`.`.`.
    b280:	0060 0060 0060 0060 0060 0060 0060 0060     `.`.`.`.`.`.`.`.
    b290:	0060 0060 03fc 0000 0000 0000 0000 0000     `.`.............
    b2a0:	0000 0000 0000 00f8 0184 0302 0306 0306     ................
    b2b0:	0300 0100 0180 00c0 0060 0020 0010 0208     ........`. .....
    b2c0:	0204 0206 03fe 0000 0000 0000 0000 0000     ................
    b2d0:	0000 0000 0000 0078 00c6 0186 0186 0180     ......x.........
    b2e0:	0180 00c0 0070 0180 0100 0300 0300 0306     ....p...........
    b2f0:	0306 0186 00f8 0000 0000 0000 0000 0000     ................
    b300:	0000 0000 0000 0180 0180 01c0 01a0 01a0     ................
    b310:	0190 0188 0188 0184 0182 0ffe 0180 0180     ................
    b320:	0180 0180 07e0 0000 0000 0000 0000 0000     ................
    b330:	0000 0000 0000 03fc 0004 0004 0004 0004     ................
    b340:	0004 00f4 018c 0304 0300 0300 0306 0306     ................
    b350:	0182 0184 00f8 0000 0000 0000 0000 0000     ................
    b360:	0000 0000 0000 01e0 0318 030c 000c 0004     ................
    b370:	0006 01e6 0316 060e 0606 0606 0606 0604     ................
    b380:	020c 0318 00f0 0000 0000 0000 0000 0000     ................
    b390:	0000 0000 0000 07f8 060c 0204 0104 0100     ................
    b3a0:	0100 0080 0080 0040 0040 0040 0060 0060     ......@.@.@.`.`.
    b3b0:	0060 0060 0060 0000 0000 0000 0000 0000     `.`.`...........
    b3c0:	0000 0000 0000 01f8 030c 0606 0606 0606     ................
    b3d0:	020c 031c 00f0 01c8 030c 0606 0606 0606     ................
    b3e0:	0606 030c 01f0 0000 0000 0000 0000 0000     ................
    b3f0:	0000 0000 0000 00f0 010c 030c 0206 0606     ................
    b400:	0606 0606 0706 068c 0678 0600 0300 0300     ........x.......
    b410:	010c 018c 0078 0000 0000 0000 0000 0000     ....x...........
	...
    b430:	00e0 00e0 00e0 0000 0000 0000 0000 0000     ................
    b440:	00e0 00e0 00e0 0000 0000 0000 0000 0000     ................
	...
    b460:	0060 0060 0000 0000 0000 0000 0000 0000     `.`.............
    b470:	0000 0060 0060 0040 0020 0020 0000 0000     ..`.`.@. . .....
    b480:	0000 0000 0400 0200 0100 0080 0040 0020     ............@. .
    b490:	0010 0008 0004 0008 0010 0020 0040 0080     .......... .@...
    b4a0:	0100 0200 0400 0000 0000 0000 0000 0000     ................
	...
    b4c0:	07fe 0000 0000 0000 07fe 0000 0000 0000     ................
	...
    b4e4:	0004 0008 0010 0020 0040 0080 0100 0200     ...... .@.......
    b4f4:	0400 0200 0100 0080 0040 0020 0010 0008     ........@. .....
    b504:	0004 0000 0000 0000 0000 0000 0000 0000     ................
    b514:	0000 03e0 0618 0c04 0c04 0c0c 0c0c 0700     ................
    b524:	0180 0040 0040 0040 0000 0000 00e0 00e0     ..@.@.@.........
    b534:	00e0 0000 0000 0000 0000 0000 0000 0000     ................
    b544:	00e0 0318 020c 05cc 0564 0566 05a6 04b6     ........d.f.....
    b554:	04b6 04b6 04b6 02b6 01e4 040c 020c 0318     ................
    b564:	00f0 0000 0000 0000 0000 0000 0000 0000     ................
    b574:	0000 0060 0060 0050 00d0 0090 0090 0088     ..`.`.P.........
    b584:	0188 0108 01f8 0304 0304 0204 0202 0602     ................
    b594:	0f0f 0000 0000 0000 0000 0000 0000 0000     ................
    b5a4:	0000 00fe 038c 030c 030c 030c 030c 018c     ................
    b5b4:	00fc 030c 020c 060c 060c 060c 060c 030c     ................
    b5c4:	01fe 0000 0000 0000 0000 0000 0000 0000     ................
    b5d4:	0000 03e0 0318 060c 040c 0404 0006 0006     ................
    b5e4:	0006 0006 0006 0006 0406 040c 020c 0318     ................
    b5f4:	00f0 0000 0000 0000 0000 0000 0000 0000     ................
    b604:	0000 007f 018c 030c 030c 060c 060c 060c     ................
    b614:	060c 060c 060c 060c 060c 030c 030c 018c     ................
    b624:	007f 0000 0000 0000 0000 0000 0000 0000     ................
    b634:	0000 03ff 0306 0406 0406 0006 0086 0086     ................
    b644:	00fe 0086 0086 0086 0006 0406 0406 0206     ................
    b654:	03ff 0000 0000 0000 0000 0000 0000 0000     ................
    b664:	0000 03ff 0306 0406 0406 0006 0086 0086     ................
    b674:	00fe 0086 0086 0086 0006 0006 0006 0006     ................
    b684:	001f 0000 0000 0000 0000 0000 0000 0000     ................
    b694:	0000 00f0 0118 020c 020c 0204 0006 0006     ................
    b6a4:	0006 0006 0fc6 0306 0306 030c 030c 0318     ................
    b6b4:	00f0 0000 0000 0000 0000 0000 0000 0000     ................
    b6c4:	0000 0f0f 0606 0606 0606 0606 0606 0606     ................
    b6d4:	07fe 0606 0606 0606 0606 0606 0606 0606     ................
    b6e4:	0f0f 0000 0000 0000 0000 0000 0000 0000     ................
    b6f4:	0000 03fc 0060 0060 0060 0060 0060 0060     ....`.`.`.`.`.`.
    b704:	0060 0060 0060 0060 0060 0060 0060 0060     `.`.`.`.`.`.`.`.
    b714:	03fc 0000 0000 0000 0000 0000 0000 0000     ................
    b724:	0000 07f8 00c0 00c0 00c0 00c0 00c0 00c0     ................
    b734:	00c0 00c0 00c0 00c0 00c0 00c0 00c0 00c0     ................
    b744:	00c0 00c6 0066 003c 0000 0000 0000 0000     ....f.<.........
    b754:	0000 03cf 0186 00c6 0046 0026 0016 0036     ........F.&...6.
    b764:	002e 006e 0046 00c6 0086 0186 0106 0306     ..n.F...........
    b774:	078f 0000 0000 0000 0000 0000 0000 0000     ................
    b784:	0000 001f 0006 0006 0006 0006 0006 0006     ................
    b794:	0006 0006 0006 0006 0006 0406 0406 0206     ................
    b7a4:	03ff 0000 0000 0000 0000 0000 0000 0000     ................
    b7b4:	0000 0707 0386 0386 038e 038e 034e 034e     ............N.N.
    b7c4:	034a 035a 035a 033a 0332 0332 0332 0312     J.Z.Z.:.2.2.2...
    b7d4:	0787 0000 0000 0000 0000 0000 0000 0000     ................
    b7e4:	0000 0f8e 020c 021c 021c 0234 0234 0264     ..........4.4.d.
    b7f4:	0264 0244 02c4 0284 0384 0384 0304 0304     d.D.............
    b804:	021f 0000 0000 0000 0000 0000 0000 0000     ................
    b814:	0000 00f0 0198 030c 020c 0606 0606 0606     ................
    b824:	0606 0606 0606 0606 0606 020c 030c 0198     ................
    b834:	00f0 0000 0000 0000 0000 0000 0000 0000     ................
    b844:	0000 00ff 0306 0606 0606 0606 0606 0606     ................
    b854:	0386 00fe 0006 0006 0006 0006 0006 0006     ................
    b864:	001f 0000 0000 0000 0000 0000 0000 0000     ................
    b874:	0000 00f0 0198 030c 020c 0606 0606 0606     ................
    b884:	0606 0606 0606 0606 0676 024c 03cc 0198     ........v.L.....
    b894:	00f0 0780 0300 0000 0000 0000 0000 0000     ................
    b8a4:	0000 01ff 0306 0606 0606 0606 0606 0306     ................
    b8b4:	00fe 0046 00c6 0086 0186 0306 0306 0606     ..F.............
    b8c4:	0e0f 0000 0000 0000 0000 0000 0000 0000     ................
    b8d4:	0000 02f8 030c 0206 0206 0006 000e 003c     ..............<.
    b8e4:	00f8 03e0 0380 0700 0602 0602 0606 030c     ................
    b8f4:	01f0 0000 0000 0000 0000 0000 0000 0000     ................
    b904:	0000 07fe 0462 0861 0861 0060 0060 0060     ....b.a.a.`.`.`.
    b914:	0060 0060 0060 0060 0060 0060 0060 0060     `.`.`.`.`.`.`.`.
    b924:	01f8 0000 0000 0000 0000 0000 0000 0000     ................
    b934:	0000 071e 020c 020c 020c 020c 020c 020c     ................
    b944:	020c 020c 020c 020c 020c 020c 020c 0118     ................
    b954:	00f0 0000 0000 0000 0000 0000 0000 0000     ................
    b964:	0000 070f 0206 0104 0104 010c 010c 0088     ................
    b974:	0088 0098 0098 0050 0050 0070 0030 0020     ......P.P.p.0. .
    b984:	0020 0000 0000 0000 0000 0000 0000 0000      ...............
    b994:	0000 0ef7 0462 0442 0446 0446 0264 0264     ....b.B.F.F.d.d.
    b9a4:	02e4 02e4 029c 019c 0198 0198 0188 0088     ................
    b9b4:	0088 0000 0000 0000 0000 0000 0000 0000     ................
    b9c4:	0000 079e 010c 0108 0118 0090 00b0 0060     ..............`.
    b9d4:	0020 0060 0060 00d0 0090 0188 0108 0304      .`.`...........
    b9e4:	078e 0000 0000 0000 0000 0000 0000 0000     ................
    b9f4:	0000 0f0f 0406 0204 020c 0108 0118 00b8     ................
    ba04:	00b0 0070 0060 0060 0060 0060 0060 0060     ..p.`.`.`.`.`.`.
    ba14:	01f8 0000 0000 0000 0000 0000 0000 0000     ................
    ba24:	0000 07fc 020c 0306 0102 0180 0080 0040     ..............@.
    ba34:	0040 0020 0020 0010 0018 0408 040c 0204     @. . ...........
    ba44:	03fe 0000 0000 0000 0000 0000 03e0 0020     .............. .
    ba54:	0020 0020 0020 0020 0020 0020 0020 0020      . . . . . . . .
    ba64:	0020 0020 0020 0020 0020 0020 0020 0020      . . . . . . . .
    ba74:	0020 0020 03e0 0000 0000 0000 0000 0000      . .............
    ba84:	0004 0004 0008 0008 0010 0010 0010 0020     .............. .
    ba94:	0020 0040 0040 00c0 0080 0080 0100 0100      .@.@...........
    baa4:	0200 0200 0200 0400 0000 0000 007c 0040     ............|.@.
    bab4:	0040 0040 0040 0040 0040 0040 0040 0040     @.@.@.@.@.@.@.@.
    bac4:	0040 0040 0040 0040 0040 0040 0040 0040     @.@.@.@.@.@.@.@.
    bad4:	0040 0040 007c 0000 0000 0060 0090 0108     @.@.|.....`.....
	...
    bb38:	0000 0fff 0000 0000 0018 0060 0000 0000     ..........`.....
	...
    bb80:	01f0 030c 030c 0300 03e0 031c 030e 0306     ................
    bb90:	0306 0b8e 0e7c 0000 0000 0000 0000 0000     ....|...........
    bba0:	0000 0000 0008 000e 000c 000c 000c 000c     ................
    bbb0:	01cc 033c 061c 060c 060c 060c 060c 060c     ..<.............
    bbc0:	020c 031c 01e4 0000 0000 0000 0000 0000     ................
	...
    bbe0:	00f0 018c 018c 0186 0006 0006 0006 0206     ................
    bbf0:	020c 010c 00f0 0000 0000 0000 0000 0000     ................
    bc00:	0000 0000 0200 03c0 0300 0300 0300 0300     ................
    bc10:	0378 038c 030c 0306 0306 0306 0306 0306     x...............
    bc20:	0304 078c 0178 0000 0000 0000 0000 0000     ....x...........
	...
    bc40:	01e0 0318 0208 060c 060c 07fc 000c 000c     ................
    bc50:	0418 0218 01e0 0000 0000 0000 0000 0000     ................
    bc60:	0000 0000 0000 03c0 0660 0630 0030 0030     ........`.0.0.0.
    bc70:	01fe 0030 0030 0030 0030 0030 0030 0030     ..0.0.0.0.0.0.0.
    bc80:	0030 0030 01fc 0000 0000 0000 0000 0000     0.0.............
	...
    bca0:	07f0 06d8 018c 018c 018c 0198 00f8 000c     ................
    bcb0:	00fc 03cc 0306 0306 038e 00f8 0000 0000     ................
    bcc0:	0000 0000 0008 000e 000c 000c 000c 000c     ................
    bcd0:	01ec 031c 030c 030c 030c 030c 030c 030c     ................
    bce0:	030c 030c 079e 0000 0000 0000 0000 0000     ................
    bcf0:	0000 0000 0000 0060 0060 0000 0000 0040     ......`.`.....@.
    bd00:	007c 0060 0060 0060 0060 0060 0060 0060     |.`.`.`.`.`.`.`.
    bd10:	0060 0060 03fc 0000 0000 0000 0000 0000     `.`.............
    bd20:	0000 0000 0000 01c0 01c0 0000 0000 0100     ................
    bd30:	01f0 0180 0180 0180 0180 0180 0180 0180     ................
    bd40:	0180 0180 0180 0180 00cc 007c 0000 0000     ..........|.....
    bd50:	0000 0000 0008 000e 000c 000c 000c 000c     ................
    bd60:	038c 008c 008c 004c 006c 005c 008c 018c     ......L.l.\.....
    bd70:	010c 030c 079e 0000 0000 0000 0000 0000     ................
    bd80:	0000 0000 0040 007c 0060 0060 0060 0060     ....@.|.`.`.`.`.
    bd90:	0060 0060 0060 0060 0060 0060 0060 0060     `.`.`.`.`.`.`.`.
    bda0:	0060 0060 03fc 0000 0000 0000 0000 0000     `.`.............
	...
    bdc0:	0737 06ee 0666 0666 0666 0666 0666 0666     7...f.f.f.f.f.f.
    bdd0:	0666 0666 0fff 0000 0000 0000 0000 0000     f.f.............
	...
    bdf0:	01ee 031c 030c 030c 030c 030c 030c 030c     ................
    be00:	030c 030c 079e 0000 0000 0000 0000 0000     ................
	...
    be20:	00f0 0198 030c 0606 0606 0606 0606 0606     ................
    be30:	030c 030c 00f0 0000 0000 0000 0000 0000     ................
	...
    be50:	01ee 031c 060c 060c 060c 060c 060c 060c     ................
    be60:	030c 031c 01ec 000c 000c 003e 0000 0000     ..........>.....
	...
    be80:	0278 038c 030c 0306 0306 0306 0306 0306     x...............
    be90:	0304 038c 0378 0300 0300 07c0 0000 0000     ....x...........
	...
    beb0:	039f 0658 0638 0018 0018 0018 0018 0018     ..X.8...........
    bec0:	0018 0018 00ff 0000 0000 0000 0000 0000     ................
	...
    bee0:	03f0 031c 020c 020c 0038 00f0 03c0 0304     ........8.......
    bef0:	0304 038c 01fc 0000 0000 0000 0000 0000     ................
	...
    bf08:	0020 0020 0030 0030 01fe 0030 0030 0030      . .0.0...0.0.0.
    bf18:	0030 0030 0030 0030 0230 0230 01e0 0000     0.0.0.0.0.0.....
	...
    bf3c:	0000 0208 038e 030c 030c 030c 030c 030c     ................
    bf4c:	030c 030c 030c 079c 0178 0000 0000 0000     ........x.......
	...
    bf70:	071e 020c 0108 0108 0118 0090 00b0 00b0     ................
    bf80:	0060 0060 0020 0000 0000 0000 0000 0000     `.`. ...........
	...
    bfa0:	0ef7 0462 0446 0264 0264 02ec 019c 0198     ..b.F.d.d.......
    bfb0:	0198 0198 0008 0000 0000 0000 0000 0000     ................
	...
    bfd0:	07bc 0118 0110 00b0 0060 0060 00e0 0090     ........`.`.....
    bfe0:	0108 0308 079e 0000 0000 0000 0000 0000     ................
	...
    c000:	079e 0108 0108 0108 0090 0090 00b0 0060     ..............`.
    c010:	0060 0060 0020 0020 0024 001c 0000 0000     `.`. . .$.......
	...
    c030:	01fc 0184 00c4 0044 0060 0020 0030 0218     ......D.`. .0...
    c040:	0208 030c 01fc 0000 0000 0000 0000 0000     ................
    c050:	0300 0080 0080 0080 0080 0080 0080 0080     ................
    c060:	0080 0040 0020 0040 0080 0080 0080 0080     ..@. .@.........
    c070:	0080 0080 0080 0080 0300 0000 0040 0040     ............@.@.
    c080:	0040 0040 0040 0040 0040 0040 0040 0040     @.@.@.@.@.@.@.@.
    c090:	0040 0040 0040 0040 0040 0040 0040 0040     @.@.@.@.@.@.@.@.
    c0a0:	0040 0040 0040 0040 0040 0040 0000 0000     @.@.@.@.@.@.....
    c0b0:	000c 0010 0010 0010 0010 0010 0010 0010     ................
    c0c0:	0010 0020 0040 0020 0010 0010 0010 0010     .. .@. .........
    c0d0:	0010 0010 0010 0010 000c 0000 0000 001c     ................
    c0e0:	0422 04c2 0380 0000 0000 0000 0000 0000     "...............
	...

0000c10c <ascii_3216>:
	...
    c154:	0000 01c0 01c0 01c0 01c0 01c0 01c0 01c0     ................
    c164:	0080 0080 0080 0080 0080 0080 0080 0000     ................
    c174:	0000 0000 0000 0180 03c0 03c0 0180 0000     ................
	...
    c190:	0000 1ce0 1ce0 1ef0 0e70 0738 0318 0108     ........p.8.....
    c1a0:	0084 0000 0000 0000 0000 0000 0000 0000     ................
	...
    c1d8:	1020 1020 1020 1020 1020 7ffe 7ffe 0810      . . . . .......
    c1e8:	0810 0810 0810 0810 0810 0810 7ffe 7ffe     ................
    c1f8:	0408 0408 0408 0408 0408 0000 0000 0000     ................
	...
    c214:	0100 0100 07c0 1960 3110 3118 3918 3918     ......`..1.1.9.9
    c224:	0138 0170 01e0 03c0 0780 0f00 1d00 3900     8.p............9
    c234:	3100 311c 311c 310c 110c 0d18 07e0 0100     .1.1.1.1........
    c244:	0100 0100 0000 0000 0000 0000 0000 0000     ................
    c254:	0000 0000 101c 1836 0863 0c63 0463 0463     ......6.c.c.c.c.
    c264:	0263 0263 0163 1d36 379c 2280 6380 6340     c.c.c.6..7.".c@c
    c274:	6340 6320 6320 6330 2210 3618 1c08 0000     @c c c0c.".6....
	...
    c298:	00f0 0198 018c 018c 018c 018c 008c 00cc     ................
    c2a8:	0078 3e18 081c 0836 0832 0463 0463 04c3     x..>..6.2.c.c...
    c2b8:	03c3 4383 4306 268e 1c78 0000 0000 0000     ...C.C.&x.......
	...
    c2d0:	0000 001c 003c 003c 0030 0030 0010 000c     ....<.<.0.0.....
    c2e0:	0006 0000 0000 0000 0000 0000 0000 0000     ................
	...
    c310:	0000 4000 2000 1000 0800 0c00 0400 0600     ...@. ..........
    c320:	0300 0300 0300 0180 0180 0180 0180 0180     ................
    c330:	0180 0180 0180 0300 0300 0300 0600 0600     ................
    c340:	0c00 0800 1000 2000 4000 0000 0000 0000     ....... .@......
    c350:	0000 0002 0004 0008 0010 0030 0020 0060     ..........0. .`.
    c360:	00c0 00c0 00c0 0180 0180 0180 0180 0180     ................
    c370:	0180 0180 0180 00c0 00c0 00c0 0060 0060     ............`.`.
    c380:	0030 0010 0008 0004 0002 0000 0000 0000     0...............
	...
    c39c:	0100 0380 0380 0100 711c 793c 3d78 07c0     .........q<yx=..
    c3ac:	0100 07c0 3d78 793c 711c 0100 0380 0380     ....x=<y.q......
    c3bc:	0180 0000 0000 0000 0000 0000 0000 0000     ................
	...
    c3dc:	0000 0100 0100 0100 0100 0100 0100 0100     ................
    c3ec:	7ffc 0100 0100 0100 0100 0100 0100 0100     ................
	...
    c43c:	001c 003c 003c 0030 0030 0010 000c 0006     ..<.<.0.0.......
	...
    c46c:	7ffe 0000 0000 0000 0000 0000 0000 0000     ................
	...
    c4b8:	0000 0018 003c 003c 0018 0000 0000 0000     ....<.<.........
	...
    c4d0:	0000 4000 6000 2000 3000 1000 1800 0800     ...@.`. .0......
    c4e0:	0c00 0400 0600 0200 0300 0100 0180 0080     ................
    c4f0:	00c0 0040 0060 0020 0030 0010 0018 0008     ..@.`. .0.......
    c500:	000c 0004 0006 0002 0000 0000 0000 0000     ................
	...
    c518:	07c0 0c60 1830 3018 3018 2018 600c 600c     ..`.0..0.0. .`.`
    c528:	600c 600c 600c 600c 600c 600c 600c 2018     .`.`.`.`.`.`.`. 
    c538:	3018 3018 1830 0c60 07c0 0000 0000 0000     .0.00.`.........
	...
    c558:	0100 0180 01f8 0180 0180 0180 0180 0180     ................
    c568:	0180 0180 0180 0180 0180 0180 0180 0180     ................
    c578:	0180 0180 0180 03c0 1ff8 0000 0000 0000     ................
	...
    c598:	07e0 1c10 1808 3004 3004 300c 300c 3000     .......0.0.0.0.0
    c5a8:	1800 0800 0400 0200 0100 0080 0040 2020     ............@.  
    c5b8:	2010 2008 3004 1ffc 1ffc 0000 0000 0000     . . .0..........
	...
    c5d8:	03e0 0e18 0c0c 180c 180c 180c 1800 0c00     ................
    c5e8:	0600 03c0 0e00 1800 1000 3000 3000 300c     ...........0.0.0
    c5f8:	300c 100c 180c 0c18 03e0 0000 0000 0000     .0..............
	...
    c618:	0c00 0e00 0e00 0f00 0e80 0e80 0e40 0e60     ............@.`.
    c628:	0e20 0e10 0e10 0e08 0e04 0e04 7ffe 0e00      ...............
    c638:	0e00 0e00 0e00 0e00 0e00 7fc0 0000 0000     ................
	...
    c658:	3ff0 3ff0 0010 0010 0010 0008 0008 07c8     .?.?............
    c668:	0c28 1818 1008 3000 3000 3000 3000 300c     (......0.0.0.0.0
    c678:	300c 1804 1804 0c08 03f0 0000 0000 0000     .0..............
	...
    c698:	0f80 10c0 3020 3010 0018 0018 0008 000c     .... 0.0........
    c6a8:	0f8c 186c 303c 601c 600c 600c 600c 600c     ..l.<0.`.`.`.`.`
    c6b8:	6018 2018 3030 1860 07c0 0000 0000 0000     .`. 00`.........
	...
    c6d8:	3ff8 3ff8 101c 080c 0804 0404 0400 0200     .?.?............
    c6e8:	0200 0100 0100 0100 0080 0080 0080 00c0     ................
    c6f8:	00c0 00c0 00c0 00c0 00c0 0000 0000 0000     ................
	...
    c718:	07e0 0c30 1818 300c 300c 300c 301c 1838     ..0....0.0.0.08.
    c728:	0870 07e0 07b0 0e18 1c0c 3806 3006 3006     p..........8.0.0
    c738:	3006 3006 180c 0c18 03e0 0000 0000 0000     .0.0............
	...
    c758:	03e0 0418 080c 180c 1006 3006 3006 3006     ...........0.0.0
    c768:	3006 3806 3c0c 3618 31f0 3000 1800 1800     .0.8.<.6.1.0....
    c778:	1800 0c0c 060c 030c 01f0 0000 0000 0000     ................
	...
    c7a4:	0000 0180 03c0 03c0 0180 0000 0000 0000     ................
    c7b4:	0000 0000 0000 0180 03c0 03c0 0180 0000     ................
	...
    c7e4:	0000 00c0 00c0 0000 0000 0000 0000 0000     ................
	...
    c7fc:	0000 00c0 00c0 0080 0080 0040 0040 0000     ..........@.@...
	...
    c814:	0000 2000 1000 0800 0400 0600 0300 0180     ... ............
    c824:	00c0 0060 0030 0018 000c 0018 0030 0060     ..`.0.......0.`.
    c834:	00c0 0180 0300 0600 0400 0800 1000 2000     ............... 
	...
    c864:	0000 7ffe 0000 0000 0000 0000 0000 7ffe     ................
	...
    c894:	0000 0004 0008 0010 0020 0060 00c0 0180     ........ .`.....
    c8a4:	0300 0600 0c00 1800 3000 1800 0c00 0600     .........0......
    c8b4:	0300 0180 00c0 0060 0020 0010 0008 0004     ......`. .......
	...
    c8d4:	0000 07c0 1830 3008 6008 600c 601c 601c     ....0..0.`.`.`.`
    c8e4:	601c 3000 1c00 0600 0100 0080 0080 0080     .`.0............
    c8f4:	0080 0000 0000 0180 03c0 03c0 0180 0000     ................
	...
    c918:	07c0 1860 3010 2018 2f0c 4d8c 4c86 4cc6     ..`..0. ./.M.L.L
    c928:	4cc6 4c66 4466 4466 2666 2666 1566 1ccc     .LfLfDfDf&f&f...
    c938:	400c 2008 3018 1830 07c0 0000 0000 0000     .@. .00.........
	...
    c954:	0000 0100 01c0 01c0 01c0 0140 0360 0320     ..........@.`. .
    c964:	0320 0320 0630 0610 0610 0610 0ff8 0c08      . .0...........
    c974:	0c08 0c08 0c0c 1804 1804 1806 7c1f 0000     .............|..
	...
    c998:	07fe 1c18 3818 3018 3018 3018 3018 1818     .....8.0.0.0.0..
    c9a8:	0c18 07f8 1818 3018 2018 6018 6018 6018     .......0. .`.`.`
    c9b8:	6018 6018 3018 1818 0ffe 0000 0000 0000     .`.`.0..........
	...
    c9d8:	27c0 3860 3010 2018 400c 400c 0004 0006     .'`8.0. .@.@....
    c9e8:	0006 0006 0006 0006 0006 0006 0006 400c     ...............@
    c9f8:	400c 200c 3018 1830 07c0 0000 0000 0000     .@. .00.........
	...
    ca18:	03fe 0e18 1818 3018 3018 3018 6018 6018     .......0.0.0.`.`
    ca28:	6018 6018 6018 6018 6018 6018 6018 3018     .`.`.`.`.`.`.`.0
    ca38:	3018 1018 1818 0e18 03fe 0000 0000 0000     .0..............
	...
    ca58:	3ffe 3018 2018 6018 4018 0018 0818 0818     .?.0. .`.@......
    ca68:	0c18 0ff8 0c18 0818 0818 0018 0018 0018     ................
    ca78:	4018 4018 2018 3018 3ffe 0000 0000 0000     .@.@. .0.?......
	...
    ca98:	7ffe 7018 4018 c018 8018 0018 1018 1018     ...p.@..........
    caa8:	1818 1ff8 1818 1018 1018 0018 0018 0018     ................
    cab8:	0018 0018 0018 0018 007e 0000 0000 0000     ........~.......
	...
    cad8:	13c0 1c70 1010 1018 200c 200c 0004 0006     ..p...... . ....
    cae8:	0006 0006 0006 0006 fc06 3006 3006 300c     ...........0.0.0
    caf8:	300c 3018 3018 0830 07c0 0000 0000 0000     .0.0.00.........
	...
    cb18:	7e3f 180c 180c 180c 180c 180c 180c 180c     ?~..............
    cb28:	180c 180c 1ffc 180c 180c 180c 180c 180c     ................
    cb38:	180c 180c 180c 180c 7e3f 0000 0000 0000     ........?~......
	...
    cb58:	1ff8 0180 0180 0180 0180 0180 0180 0180     ................
    cb68:	0180 0180 0180 0180 0180 0180 0180 0180     ................
    cb78:	0180 0180 0180 0180 1ff8 0000 0000 0000     ................
	...
    cb98:	7fe0 0600 0600 0600 0600 0600 0600 0600     ................
    cba8:	0600 0600 0600 0600 0600 0600 0600 0600     ................
    cbb8:	0600 0600 0600 0600 0600 0600 060e 030e     ................
    cbc8:	018e 00fc 0000 0000 0000 0000 0000 0000     ................
    cbd8:	7c7e 1818 0818 0418 0618 0218 0118 0198     ~|..............
    cbe8:	0198 01d8 03b8 0338 0718 0618 0e18 0c18     ......8.........
    cbf8:	1c18 1818 3018 3018 fc7e 0000 0000 0000     .....0.0~.......
	...
    cc18:	007e 0018 0018 0018 0018 0018 0018 0018     ~...............
    cc28:	0018 0018 0018 0018 0018 0018 0018 0018     ................
    cc38:	4018 4018 2018 3018 3ffe 0000 0000 0000     .@.@. .0.?......
	...
    cc58:	f81f 381c 381c 381c 3c1c 3434 3434 3434     ...8.8.8.<444444
    cc68:	3634 3274 3264 3264 3264 3164 31c4 31c4     46t2d2d2d2d1.1.1
    cc78:	31c4 30c4 30c4 3084 fc9f 0000 0000 0000     .1.0.0.0........
	...
    cc98:	7c1f 101c 103c 1034 1034 1074 1064 10e4     .|..<.4.4.t.d...
    cca8:	10c4 11c4 1184 1384 1304 1704 1604 1e04     ................
    ccb8:	1c04 1c04 1c04 1804 181f 0000 0000 0000     ................
	...
    ccd8:	03c0 0c30 1818 1008 300c 300c 6006 6006     ..0......0.0.`.`
    cce8:	6006 6006 6006 6006 6006 6006 6006 200c     .`.`.`.`.`.`.`. 
    ccf8:	300c 1008 1818 0c30 03c0 0000 0000 0000     .0....0.........
	...
    cd18:	0ffe 1818 3018 6018 6018 6018 6018 6018     .....0.`.`.`.`.`
    cd28:	3018 1818 0ff8 0018 0018 0018 0018 0018     .0..............
    cd38:	0018 0018 0018 0018 007e 0000 0000 0000     ........~.......
	...
    cd58:	03c0 0c30 1818 100c 300c 200c 6006 6006     ..0......0. .`.`
    cd68:	6006 6006 6006 6006 6006 6006 6006 61e4     .`.`.`.`.`.`.`.a
    cd78:	332c 321c 1618 0e30 07c0 4c00 7c00 3800     ,3.2..0....L.|.8
	...
    cd98:	07fe 1c18 3818 3018 3018 3018 3018 1818     .....8.0.0.0.0..
    cda8:	0c18 07f8 0398 0318 0718 0618 0618 0e18     ................
    cdb8:	0c18 0c18 1c18 1818 787e 0000 0000 0000     ........~x......
	...
    cdd8:	27e0 3830 3018 200c 200c 000c 000c 0018     .'08.0. . ......
    cde8:	0078 03e0 0f80 1e00 3800 7000 6000 6004     x........8.p.`.`
    cdf8:	6004 6008 3018 1838 0fc8 0000 0000 0000     .`.`.08.........
	...
    ce18:	3ffc 218c 6184 4182 4182 0180 0180 0180     .?.!.a.A.A......
    ce28:	0180 0180 0180 0180 0180 0180 0180 0180     ................
    ce38:	0180 0180 0180 0180 07e0 0000 0000 0000     ................
	...
    ce58:	7c3f 100c 100c 100c 100c 100c 100c 100c     ?|..............
    ce68:	100c 100c 100c 100c 100c 100c 100c 100c     ................
    ce78:	100c 100c 0808 0438 03e0 0000 0000 0000     ......8.........
	...
    ce98:	f83e 2018 2018 2018 1030 1030 1030 1030     >.. . . 0.0.0.0.
    cea8:	0860 0860 0860 0ce0 04c0 04c0 04c0 0380     `.`.`...........
    ceb8:	0380 0380 0380 0100 0100 0000 0000 0000     ................
	...
    ced8:	f3df 6186 2186 2186 218c 210c 238c 138c     ...a.!.!.!.!.#..
    cee8:	138c 138c 134c 1258 1658 0e58 0e38 0e38     ....L.X.X.X.8.8.
    cef8:	0e38 0c30 0410 0410 0410 0000 0000 0000     8.0.............
	...
    cf18:	3e7e 0818 0838 0430 0430 0270 0260 01e0     ~>..8.0.0.p.`...
    cf28:	01c0 01c0 0180 0380 0340 0740 0620 0620     ........@.@. . .
    cf38:	0c10 0c10 1808 1808 7c3e 0000 0000 0000     ........>|......
	...
    cf58:	7c7e 101c 1018 0818 0830 0c30 0470 0460     ~|......0.0.p.`.
    cf68:	0260 02c0 02c0 01c0 0180 0180 0180 0180     `...............
    cf78:	0180 0180 0180 0180 07e0 0000 0000 0000     ................
	...
    cf98:	3ff8 1818 1808 0c04 0e04 0600 0700 0300     .?..............
    cfa8:	0380 0180 01c0 00c0 00e0 0060 0070 0030     ..........`.p.0.
    cfb8:	2038 2018 101c 180c 1ffe 0000 0000 0000     8 . ............
	...
    cfd0:	0000 3fc0 0040 0040 0040 0040 0040 0040     ...?@.@.@.@.@.@.
    cfe0:	0040 0040 0040 0040 0040 0040 0040 0040     @.@.@.@.@.@.@.@.
    cff0:	0040 0040 0040 0040 0040 0040 0040 0040     @.@.@.@.@.@.@.@.
    d000:	0040 0040 0040 3fc0 0000 0000 0000 0000     @.@.@..?........
    d010:	0000 0000 0000 0008 0018 0018 0010 0030     ..............0.
    d020:	0020 0060 0060 0040 00c0 0080 0180 0180      .`.`.@.........
    d030:	0100 0300 0200 0600 0600 0400 0c00 0800     ................
    d040:	1800 1800 1000 3000 2000 0000 0000 0000     .......0. ......
    d050:	0000 03fc 0200 0200 0200 0200 0200 0200     ................
    d060:	0200 0200 0200 0200 0200 0200 0200 0200     ................
    d070:	0200 0200 0200 0200 0200 0200 0200 0200     ................
    d080:	0200 0200 0200 03fc 0000 0000 0000 0000     ................
    d090:	0000 0780 06c0 0820 1010 0000 0000 0000     ...... .........
	...
    d108:	0000 ffff 0000 0000 0000 0078 00c0 0100     ..........x.....
	...
    d164:	0000 03f0 0618 0c0c 0c0c 0c00 0f80 0c70     ..............p.
    d174:	0c1c 0c0c 0c06 0c06 4c06 4f0c 38f8 0000     .........L.O.8..
	...
    d194:	0000 0010 001e 0018 0018 0018 0018 0018     ................
    d1a4:	0018 0f18 18d8 3038 6038 6018 6018 6018     ......808`.`.`.`
    d1b4:	6018 6018 6018 2018 3038 1878 07c8 0000     .`.`.`. 80x.....
	...
    d1e4:	0000 07c0 0c70 1818 1818 180c 000c 000c     ....p...........
    d1f4:	000c 000c 200c 2018 1018 0830 07c0 0000     ..... . ..0.....
	...
    d214:	0000 1000 1e00 1800 1800 1800 1800 1800     ................
    d224:	1800 1be0 1c30 1818 1818 180c 180c 180c     ....0...........
    d234:	180c 180c 180c 1808 1c18 7a30 09e0 0000     ..........0z....
	...
    d264:	0000 07c0 0c30 1818 1008 300c 300c 3ffc     ....0......0.0.?
    d274:	000c 000c 000c 2018 1018 1870 07c0 0000     ....... ..p.....
	...
    d298:	3e00 c380 c080 c0c0 00c0 00c0 00c0 1ffc     .>..............
    d2a8:	00c0 00c0 00c0 00c0 00c0 00c0 00c0 00c0     ................
    d2b8:	00c0 00c0 00c0 00c0 0ff8 0000 0000 0000     ................
	...
    d2e4:	0000 77c0 6c30 1810 1818 1818 1818 1810     ...w0l..........
    d2f4:	0c30 07f0 0018 0018 0ff0 3ff0 7008 600c     0..........?.p.`
    d304:	600c 600c 3838 0fe0 0000 0000 0000 0000     .`.`88..........
    d314:	0000 0010 001e 0018 0018 0018 0018 0018     ................
    d324:	0018 0f98 18d8 3038 3018 3018 3018 3018     ......80.0.0.0.0
    d334:	3018 3018 3018 3018 3018 3018 fc7e 0000     .0.0.0.0.0.0~...
	...
    d358:	0380 0380 0380 0000 0000 0000 0100 01f8     ................
    d368:	0180 0180 0180 0180 0180 0180 0180 0180     ................
    d378:	0180 0180 0180 0180 1ff8 0000 0000 0000     ................
	...
    d398:	3800 3800 3800 0000 0000 0000 1000 1f80     .8.8.8..........
    d3a8:	1800 1800 1800 1800 1800 1800 1800 1800     ................
    d3b8:	1800 1800 1800 1800 1800 1800 1800 0c18     ................
    d3c8:	0618 03f0 0000 0000 0000 0000 0000 0010     ................
    d3d8:	001e 0018 0018 0018 0018 0018 0018 3e18     ...............>
    d3e8:	0c18 0618 0318 0118 0198 01d8 0338 0718     ............8...
    d3f8:	0618 0c18 1c18 1818 7c7e 0000 0000 0000     ........~|......
	...
    d414:	0000 0100 01f8 0180 0180 0180 0180 0180     ................
    d424:	0180 0180 0180 0180 0180 0180 0180 0180     ................
    d434:	0180 0180 0180 0180 0180 0180 1ff8 0000     ................
	...
    d464:	0008 1cee 339c 318c 318c 318c 318c 318c     .....3.1.1.1.1.1
    d474:	318c 318c 318c 318c 318c 318c 7bde 0000     .1.1.1.1.1.1.{..
	...
    d4a4:	0010 0f1e 18d8 3038 3018 3018 3018 3018     ......80.0.0.0.0
    d4b4:	3018 3018 3018 3018 3018 3018 fc7e 0000     .0.0.0.0.0.0~...
	...
    d4e4:	0000 07c0 1c70 3010 3018 600c 600c 600c     ....p..0.0.`.`.`
    d4f4:	600c 600c 600c 3018 3018 1830 07c0 0000     .`.`.`.0.00.....
	...
    d524:	0010 0f9e 1858 3038 2018 6018 6018 6018     ....X.80. .`.`.`
    d534:	6018 6018 6018 3018 3038 1878 0798 0018     .`.`.`.080x.....
    d544:	0018 0018 0018 007e 0000 0000 0000 0000     ......~.........
	...
    d564:	0000 23c0 3c30 3818 3018 300c 300c 300c     ...#0<.8.0.0.0.0
    d574:	300c 300c 300c 3008 3818 3c30 33e0 3000     .0.0.0.0.80<.3.0
    d584:	3000 3000 3000 fc00 0000 0000 0000 0000     .0.0.0..........
	...
    d5a4:	0060 3c7e 6660 6160 00e0 00e0 0060 0060     `.~<`f`a....`.`.
    d5b4:	0060 0060 0060 0060 0060 0060 07fe 0000     `.`.`.`.`.`.....
	...
    d5e4:	0000 27e0 3830 3018 2018 0018 0070 03e0     ...'08.0. ..p...
    d5f4:	0f80 1c00 3004 3004 300c 181c 0fec 0000     .....0.0.0......
	...
    d61c:	0080 0080 0080 00c0 00e0 1ffc 00c0 00c0     ................
    d62c:	00c0 00c0 00c0 00c0 00c0 00c0 00c0 20c0     ............... 
    d63c:	20c0 1180 0f00 0000 0000 0000 0000 0000     . ..............
	...
    d664:	2010 3c1e 3018 3018 3018 3018 3018 3018     . .<.0.0.0.0.0.0
    d674:	3018 3018 3018 3018 3818 f430 13e0 0000     .0.0.0.0.80.....
	...
    d6a4:	0000 3c7e 1818 0818 0838 0430 0430 0270     ..~<....8.0.0.p.
    d6b4:	0260 0260 01e0 01c0 01c0 00c0 0080 0000     `.`.............
	...
    d6e4:	0000 f7df 638e 230c 238c 238c 1398 1398     .....c.#.#.#....
    d6f4:	1658 1658 0e70 0e70 0e70 0420 0420 0000     X.X.p.p.p. . ...
	...
    d724:	0000 3efc 0870 0470 04e0 02c0 01c0 0380     ...>p.p.........
    d734:	0380 0740 0660 0c20 0c10 1818 7e3e 0000     ..@.`. .....>~..
	...
    d764:	0000 7c7e 1818 0818 0830 0830 0430 0460     ..~|....0.0.0.`.
    d774:	0460 02c0 02c0 02c0 0180 0180 0180 0080     `...............
    d784:	0080 0080 004c 003c 0000 0000 0000 0000     ....L.<.........
	...
    d7a4:	0000 1ffc 0c0c 0e04 0604 0300 0380 0180     ................
    d7b4:	00c0 00e0 2070 2030 3038 181c 1ffc 0000     ....p 0 80......
	...
    d7d0:	0000 3000 0800 0400 0400 0400 0400 0400     ...0............
    d7e0:	0400 0400 0400 0400 0400 0200 0180 0200     ................
    d7f0:	0400 0400 0400 0400 0400 0400 0400 0400     ................
    d800:	0400 0400 0400 0800 3000 0000 0100 0100     .........0......
    d810:	0100 0100 0100 0100 0100 0100 0100 0100     ................
    d820:	0100 0100 0100 0100 0100 0100 0100 0100     ................
    d830:	0100 0100 0100 0100 0100 0100 0100 0100     ................
    d840:	0100 0100 0100 0100 0100 0100 0000 0000     ................
    d850:	0000 000c 0010 0020 0020 0020 0020 0020     ...... . . . . .
    d860:	0020 0020 0020 0020 0020 0040 0180 0040      . . . . .@...@.
    d870:	0020 0020 0020 0020 0020 0020 0020 0020      . . . . . . . .
    d880:	0020 0020 0020 0010 000c 0000 0000 0038      . . .........8.
    d890:	00c4 4086 6102 2200 1c00 0000 0000 0000     ...@.a."........
	...
    d8d0:	851f 51eb 1eb8 4009 0000 0000 0000 404e     ...Q...@......N@
    d8e0:	0000 0000 0000 4028 3425 2d64 3225 2d64     ......(@%4d-%2d-
    d8f0:	3225 2064 7720 6565 3a6b 6425 0000 0000     %2d  week:%d....
    d900:	3225 3a64 3225 3a64 3225 0064 7953 7473     %2d:%2d:%2d.Syst
    d910:	6d65 6c43 3a6b 6425 0a0d 0000 2e32 2e35     emClk:%d....2.5.
    d920:	0032 0000 6557 636c 6d6f 2065 6f74 5420     2...Welcome to T
    d930:	6e65 6563 746e 534f 7420 6e69 2879 7325     encentOS tiny(%s
    d940:	0d29 000a 6874 2065 7274 6e69 6c67 2065     )...the tringle 
    d950:	7369 2520 0d64 000a 5452 2043 6554 7473     is %d...RTC Test
    d960:	000d 0000 7061 6c70 6369 7461 6f69 5f6e     ....application_
    d970:	6174 6b73 0033 0000 7061 6c70 6369 7461     task3...applicat
    d980:	6f69 5f6e 6174 6b73 0000 0000 6873 756f     ion_task....shou
    d990:	646c 6e20 746f 7220 6e75 6120 2074 6568     ld not run at he
    d9a0:	6572 0d21 0000 0000                         re!.....

0000d9a8 <mon_table>:
    d9a8:	1c1f 1e1f 1e1f 1f1f 1f1e 1f1e               ............

0000d9b4 <table_week>:
    d9b4:	0300 0603 0401 0206 0005 0503               ............

0000d9c0 <sin0_90_table>:
    d9c0:	0000 023c 0478 06b3 08ee 0b28 0d61 0f99     ..<.x.....(.a...
    d9d0:	11d0 1406 163a 186c 1a9d 1ccb 1ef7 2121     ....:.l.......!!
    d9e0:	2348 256c 278e 29ac 2bc7 2ddf 2ff3 3203     H#l%.'.).+.-./.2
    d9f0:	3410 3618 381c 3a1c 3c17 3e0e 3fff 41ec     .4.6.8.:.<.>.?.A
    da00:	43d4 45b6 4793 496a 4b3c 4d08 4ecd 508d     .C.E.GjI<K.M.N.P
    da10:	5246 53f9 55a5 574b 58ea 5a82 5c13 5d9c     FR.S.UKW.X.Z.\.]
    da20:	5f1f 609a 620d 6379 64dd 6639 678d 68d9     ._.`.byc.d9f.g.h
    da30:	6a1d 6b59 6c8c 6db7 6ed9 6ff3 7104 720c     .jYk.l.m.n.o.q.r
    da40:	730b 7401 74ee 75d2 76ad 777f 7847 7906     .s.t.t.u.v.wGx.y
    da50:	79bb 7a67 7b0a 7ba2 7c32 7cb7 7d33 7da5     .ygz.{.{2|.|3}.}
    da60:	7e0d 7e6c 7ec0 7f0b 7f4b 7f82 7faf 7fd2     .~l~.~..K.......
    da70:	7feb 7ffa 7fff 0000                         ........

0000da78 <__clz_tab>:
    da78:	0100 0202 0303 0303 0404 0404 0404 0404     ................
    da88:	0505 0505 0505 0505 0505 0505 0505 0505     ................
    da98:	0606 0606 0606 0606 0606 0606 0606 0606     ................
    daa8:	0606 0606 0606 0606 0606 0606 0606 0606     ................
    dab8:	0707 0707 0707 0707 0707 0707 0707 0707     ................
    dac8:	0707 0707 0707 0707 0707 0707 0707 0707     ................
    dad8:	0707 0707 0707 0707 0707 0707 0707 0707     ................
    dae8:	0707 0707 0707 0707 0707 0707 0707 0707     ................
    daf8:	0808 0808 0808 0808 0808 0808 0808 0808     ................
    db08:	0808 0808 0808 0808 0808 0808 0808 0808     ................
    db18:	0808 0808 0808 0808 0808 0808 0808 0808     ................
    db28:	0808 0808 0808 0808 0808 0808 0808 0808     ................
    db38:	0808 0808 0808 0808 0808 0808 0808 0808     ................
    db48:	0808 0808 0808 0808 0808 0808 0808 0808     ................
    db58:	0808 0808 0808 0808 0808 0808 0808 0808     ................
    db68:	0808 0808 0808 0808 0808 0808 0808 0808     ................
    db78:	8f16 ffff 8efe ffff 8e8a ffff 8efa ffff     ................
    db88:	8e8a ffff 920a ffff 8e8a ffff 8efa ffff     ................
    db98:	8ef0 ffff 8ef0 ffff 920a ffff 8efa ffff     ................
    dba8:	8e92 ffff 8e92 ffff 8e92 ffff 8e50 ffff     ............P...
    dbb8:	967e ffff 9538 ffff 9538 ffff 9536 ffff     ~...8...8...6...
    dbc8:	953e ffff 953e ffff 996a ffff 9536 ffff     >...>...j...6...
    dbd8:	953e ffff 996a ffff 953e ffff 9536 ffff     >...j...>...6...
    dbe8:	966a ffff 966a ffff 966a ffff 965c ffff     j...j...j...\...

0000dbf8 <__sf_fake_stderr>:
	...

0000dc18 <__sf_fake_stdin>:
	...

0000dc38 <__sf_fake_stdout>:
	...
    dc58:	2d23 2b30 0020 0000 6c68 004c 6665 4567     #-0+ ...hlL.efgE
    dc68:	4746 0000 3130 3332 3534 3736 3938 4241     FG..0123456789AB
    dc78:	4443 4645 0000 0000 3130 3332 3534 3736     CDEF....01234567
    dc88:	3938 6261 6463 6665 0000 0000 0043 0000     89abcdef....C...
    dc98:	4f50 4953 0058 0000 002e 0000 2d41 6146     POSIX.......A-Fa
    dca8:	662d 3938 3130 3332 3534 3736 005d 0000     -f8901234567]...
    dcb8:	2d2b 0000 3030 0000 5878 0000               +-..00..xX..

0000dcc4 <_ctype_>:
    dcc4:	2000 2020 2020 2020 2020 2828 2828 2028     .         ((((( 
    dcd4:	2020 2020 2020 2020 2020 2020 2020 2020                     
    dce4:	8820 1010 1010 1010 1010 1010 1010 1010      ...............
    dcf4:	0410 0404 0404 0404 0404 1004 1010 1010     ................
    dd04:	1010 4141 4141 4141 0101 0101 0101 0101     ..AAAAAA........
    dd14:	0101 0101 0101 0101 0101 0101 1010 1010     ................
    dd24:	1010 4242 4242 4242 0202 0202 0202 0202     ..BBBBBB........
    dd34:	0202 0202 0202 0202 0202 0202 1010 1010     ................
    dd44:	0020 0000 0000 0000 0000 0000 0000 0000      ...............
	...
